
/tmp/x:     file format elf64-x86-64


Disassembly of section .init:

0000000000001000 <_init>:
    1000:	f3 0f 1e fa          	endbr64 
    1004:	48 83 ec 08          	sub    $0x8,%rsp
    1008:	48 8b 05 e1 6f 00 00 	mov    0x6fe1(%rip),%rax        # 7ff0 <__gmon_start__>
    100f:	48 85 c0             	test   %rax,%rax
    1012:	74 02                	je     1016 <_init+0x16>
    1014:	ff d0                	call   *%rax
    1016:	48 83 c4 08          	add    $0x8,%rsp
    101a:	c3                   	ret    

Disassembly of section .plt:

0000000000001020 <__printf_chk@plt-0x10>:
    1020:	ff 35 1a 6f 00 00    	push   0x6f1a(%rip)        # 7f40 <_GLOBAL_OFFSET_TABLE_+0x8>
    1026:	ff 25 1c 6f 00 00    	jmp    *0x6f1c(%rip)        # 7f48 <_GLOBAL_OFFSET_TABLE_+0x10>
    102c:	0f 1f 40 00          	nopl   0x0(%rax)

0000000000001030 <__printf_chk@plt>:
    1030:	ff 25 1a 6f 00 00    	jmp    *0x6f1a(%rip)        # 7f50 <__printf_chk@GLIBC_2.3.4>
    1036:	68 00 00 00 00       	push   $0x0
    103b:	e9 e0 ff ff ff       	jmp    1020 <_init+0x20>

0000000000001040 <strstr@plt>:
    1040:	ff 25 12 6f 00 00    	jmp    *0x6f12(%rip)        # 7f58 <strstr@GLIBC_2.2.5>
    1046:	68 01 00 00 00       	push   $0x1
    104b:	e9 d0 ff ff ff       	jmp    1020 <_init+0x20>

0000000000001050 <setpriority@plt>:
    1050:	ff 25 0a 6f 00 00    	jmp    *0x6f0a(%rip)        # 7f60 <setpriority@GLIBC_2.2.5>
    1056:	68 02 00 00 00       	push   $0x2
    105b:	e9 c0 ff ff ff       	jmp    1020 <_init+0x20>

0000000000001060 <pthread_join@plt>:
    1060:	ff 25 02 6f 00 00    	jmp    *0x6f02(%rip)        # 7f68 <pthread_join@GLIBC_2.2.5>
    1066:	68 03 00 00 00       	push   $0x3
    106b:	e9 b0 ff ff ff       	jmp    1020 <_init+0x20>

0000000000001070 <pthread_create@plt>:
    1070:	ff 25 fa 6e 00 00    	jmp    *0x6efa(%rip)        # 7f70 <pthread_create@GLIBC_2.2.5>
    1076:	68 04 00 00 00       	push   $0x4
    107b:	e9 a0 ff ff ff       	jmp    1020 <_init+0x20>

0000000000001080 <open@plt>:
    1080:	ff 25 f2 6e 00 00    	jmp    *0x6ef2(%rip)        # 7f78 <open@GLIBC_2.2.5>
    1086:	68 05 00 00 00       	push   $0x5
    108b:	e9 90 ff ff ff       	jmp    1020 <_init+0x20>

0000000000001090 <sched_setaffinity@plt>:
    1090:	ff 25 ea 6e 00 00    	jmp    *0x6eea(%rip)        # 7f80 <sched_setaffinity@GLIBC_2.3.4>
    1096:	68 06 00 00 00       	push   $0x6
    109b:	e9 80 ff ff ff       	jmp    1020 <_init+0x20>

00000000000010a0 <__cxa_atexit@plt>:
    10a0:	ff 25 e2 6e 00 00    	jmp    *0x6ee2(%rip)        # 7f88 <__cxa_atexit@GLIBC_2.2.5>
    10a6:	68 07 00 00 00       	push   $0x7
    10ab:	e9 70 ff ff ff       	jmp    1020 <_init+0x20>

00000000000010b0 <gettid@plt>:
    10b0:	ff 25 da 6e 00 00    	jmp    *0x6eda(%rip)        # 7f90 <gettid@GLIBC_2.30>
    10b6:	68 08 00 00 00       	push   $0x8
    10bb:	e9 60 ff ff ff       	jmp    1020 <_init+0x20>

00000000000010c0 <__stack_chk_fail@plt>:
    10c0:	ff 25 d2 6e 00 00    	jmp    *0x6ed2(%rip)        # 7f98 <__stack_chk_fail@GLIBC_2.4>
    10c6:	68 09 00 00 00       	push   $0x9
    10cb:	e9 50 ff ff ff       	jmp    1020 <_init+0x20>

00000000000010d0 <putchar@plt>:
    10d0:	ff 25 ca 6e 00 00    	jmp    *0x6eca(%rip)        # 7fa0 <putchar@GLIBC_2.2.5>
    10d6:	68 0a 00 00 00       	push   $0xa
    10db:	e9 40 ff ff ff       	jmp    1020 <_init+0x20>

00000000000010e0 <strtol@plt>:
    10e0:	ff 25 c2 6e 00 00    	jmp    *0x6ec2(%rip)        # 7fa8 <strtol@GLIBC_2.2.5>
    10e6:	68 0b 00 00 00       	push   $0xb
    10eb:	e9 30 ff ff ff       	jmp    1020 <_init+0x20>

00000000000010f0 <ioctl@plt>:
    10f0:	ff 25 ba 6e 00 00    	jmp    *0x6eba(%rip)        # 7fb0 <ioctl@GLIBC_2.2.5>
    10f6:	68 0c 00 00 00       	push   $0xc
    10fb:	e9 20 ff ff ff       	jmp    1020 <_init+0x20>

0000000000001100 <sched_yield@plt>:
    1100:	ff 25 b2 6e 00 00    	jmp    *0x6eb2(%rip)        # 7fb8 <sched_yield@GLIBC_2.2.5>
    1106:	68 0d 00 00 00       	push   $0xd
    110b:	e9 10 ff ff ff       	jmp    1020 <_init+0x20>

0000000000001110 <sched_getaffinity@plt>:
    1110:	ff 25 aa 6e 00 00    	jmp    *0x6eaa(%rip)        # 7fc0 <sched_getaffinity@GLIBC_2.3.4>
    1116:	68 0e 00 00 00       	push   $0xe
    111b:	e9 00 ff ff ff       	jmp    1020 <_init+0x20>

0000000000001120 <_Unwind_Resume@plt>:
    1120:	ff 25 a2 6e 00 00    	jmp    *0x6ea2(%rip)        # 7fc8 <_Unwind_Resume@GCC_3.0>
    1126:	68 0f 00 00 00       	push   $0xf
    112b:	e9 f0 fe ff ff       	jmp    1020 <_init+0x20>

0000000000001130 <close@plt>:
    1130:	ff 25 9a 6e 00 00    	jmp    *0x6e9a(%rip)        # 7fd0 <close@GLIBC_2.2.5>
    1136:	68 10 00 00 00       	push   $0x10
    113b:	e9 e0 fe ff ff       	jmp    1020 <_init+0x20>

Disassembly of section .plt.got:

0000000000001140 <__cxa_finalize@plt>:
    1140:	ff 25 92 6e 00 00    	jmp    *0x6e92(%rip)        # 7fd8 <__cxa_finalize@GLIBC_2.2.5>
    1146:	66 90                	xchg   %ax,%ax

Disassembly of section .text:

0000000000001160 <main.cold>:
    1160:	83 7c 24 40 00       	cmpl   $0x0,0x40(%rsp)
    1165:	75 08                	jne    116f <main.cold+0xf>
    1167:	48 89 ef             	mov    %rbp,%rdi
    116a:	e8 b1 ff ff ff       	call   1120 <_Unwind_Resume@plt>
    116f:	48 8b 7c 24 30       	mov    0x30(%rsp),%rdi
    1174:	e8 57 0b 00 00       	call   1cd0 <_ZN13ThreadHandler4StopEv.part.0>
    1179:	eb ec                	jmp    1167 <main.cold+0x7>
    117b:	0f 1f 44 00 00       	nopl   0x0(%rax,%rax,1)

0000000000001180 <main>:
    1180:	f3 0f 1e fa          	endbr64 
    1184:	41 57                	push   %r15
    1186:	41 56                	push   %r14
    1188:	41 55                	push   %r13
    118a:	41 54                	push   %r12
    118c:	55                   	push   %rbp
    118d:	53                   	push   %rbx
    118e:	48 81 ec 48 01 00 00 	sub    $0x148,%rsp
    1195:	64 48 8b 04 25 28 00 	mov    %fs:0x28,%rax
    119c:	00 00 
    119e:	48 89 84 24 38 01 00 	mov    %rax,0x138(%rsp)
    11a5:	00 
    11a6:	31 c0                	xor    %eax,%eax
    11a8:	83 ff 01             	cmp    $0x1,%edi
    11ab:	7e 2b                	jle    11d8 <main+0x58>
    11ad:	4c 8b 6e 08          	mov    0x8(%rsi),%r13
    11b1:	89 fd                	mov    %edi,%ebp
    11b3:	49 89 f4             	mov    %rsi,%r12
    11b6:	48 8d 35 70 41 00 00 	lea    0x4170(%rip),%rsi        # 532d <_IO_stdin_used+0x32d>
    11bd:	4c 89 ef             	mov    %r13,%rdi
    11c0:	e8 7b fe ff ff       	call   1040 <strstr@plt>
    11c5:	48 85 c0             	test   %rax,%rax
    11c8:	0f 84 72 03 00 00    	je     1540 <main+0x3c0>
    11ce:	c7 05 f0 cf 81 00 01 	movl   $0x1,0x81cff0(%rip)        # 81e1c8 <diagnostics>
    11d5:	00 00 00 
    11d8:	83 3d f9 c0 00 00 08 	cmpl   $0x8,0xc0f9(%rip)        # d2d8 <NumThreads>
    11df:	0f 8f 21 03 00 00    	jg     1506 <main+0x386>
    11e5:	8b 0d ed c0 00 00    	mov    0xc0ed(%rip),%ecx        # d2d8 <NumThreads>
    11eb:	85 c9                	test   %ecx,%ecx
    11ed:	0f 8e f4 01 00 00    	jle    13e7 <main+0x267>
    11f3:	48 8d 94 24 b0 00 00 	lea    0xb0(%rsp),%rdx
    11fa:	00 
    11fb:	31 c0                	xor    %eax,%eax
    11fd:	b9 10 00 00 00       	mov    $0x10,%ecx
    1202:	be 80 00 00 00       	mov    $0x80,%esi
    1207:	48 89 d7             	mov    %rdx,%rdi
    120a:	f3 48 ab             	rep stos %rax,%es:(%rdi)
    120d:	31 ff                	xor    %edi,%edi
    120f:	e8 fc fe ff ff       	call   1110 <sched_getaffinity@plt>
    1214:	85 c0                	test   %eax,%eax
    1216:	0f 85 0c 03 00 00    	jne    1528 <main+0x3a8>
    121c:	48 8b 94 24 b0 00 00 	mov    0xb0(%rsp),%rdx
    1223:	00 
    1224:	31 ed                	xor    %ebp,%ebp
    1226:	31 c9                	xor    %ecx,%ecx
    1228:	0f 1f 84 00 00 00 00 	nopl   0x0(%rax,%rax,1)
    122f:	00 
    1230:	48 89 d0             	mov    %rdx,%rax
    1233:	48 d3 e8             	shr    %cl,%rax
    1236:	83 c1 01             	add    $0x1,%ecx
    1239:	83 e0 01             	and    $0x1,%eax
    123c:	01 c5                	add    %eax,%ebp
    123e:	83 f9 40             	cmp    $0x40,%ecx
    1241:	75 ed                	jne    1230 <main+0xb0>
    1243:	45 31 e4             	xor    %r12d,%r12d
    1246:	4c 89 e1             	mov    %r12,%rcx
    1249:	41 89 ce             	mov    %ecx,%r14d
    124c:	48 81 f9 ff 03 00 00 	cmp    $0x3ff,%rcx
    1253:	0f 87 57 01 00 00    	ja     13b0 <main+0x230>
    1259:	48 89 c8             	mov    %rcx,%rax
    125c:	48 c1 e8 06          	shr    $0x6,%rax
    1260:	4c 8b ac c4 b0 00 00 	mov    0xb0(%rsp,%rax,8),%r13
    1267:	00 
    1268:	49 d3 ed             	shr    %cl,%r13
    126b:	41 83 e5 01          	and    $0x1,%r13d
    126f:	0f 84 3b 01 00 00    	je     13b0 <main+0x230>
    1275:	48 8d 3d 64 c1 80 00 	lea    0x80c164(%rip),%rdi        # 80d3e0 <MSRCounters>
    127c:	49 89 cc             	mov    %rcx,%r12
    127f:	e8 cc 16 00 00       	call   2950 <_ZN9CCounters18GetProcessorVendorEv>
    1284:	31 c9                	xor    %ecx,%ecx
    1286:	c7 05 a4 c1 80 00 00 	movl   $0x0,0x80c1a4(%rip)        # 80d434 <MSRCounters+0x54>
    128d:	00 00 00 
    1290:	89 c8                	mov    %ecx,%eax
    1292:	0f a2                	cpuid  
    1294:	85 c0                	test   %eax,%eax
    1296:	74 0c                	je     12a4 <main+0x124>
    1298:	48 8d 3d 41 c1 80 00 	lea    0x80c141(%rip),%rdi        # 80d3e0 <MSRCounters>
    129f:	e8 2c 0b 00 00       	call   1dd0 <_ZN9CCounters18GetProcessorFamilyEv.part.0>
    12a4:	8b 05 2e c0 00 00    	mov    0xc02e(%rip),%eax        # d2d8 <NumThreads>
    12aa:	44 8d 50 ff          	lea    -0x1(%rax),%r10d
    12ae:	44 89 d3             	mov    %r10d,%ebx
    12b1:	85 c0                	test   %eax,%eax
    12b3:	0f 8e 5b 01 00 00    	jle    1414 <main+0x294>
    12b9:	89 e8                	mov    %ebp,%eax
    12bb:	4c 89 6c 24 10       	mov    %r13,0x10(%rsp)
    12c0:	4c 8d 3d d9 cd 81 00 	lea    0x81cdd9(%rip),%r15        # 81e0a0 <ProcNum>
    12c7:	45 89 d5             	mov    %r10d,%r13d
    12ca:	d1 f8                	sar    %eax
    12cc:	89 44 24 08          	mov    %eax,0x8(%rsp)
    12d0:	41 89 d9             	mov    %ebx,%r9d
    12d3:	45 29 e9             	sub    %r13d,%r9d
    12d6:	83 fd 03             	cmp    $0x3,%ebp
    12d9:	0f 8f da 00 00 00    	jg     13b9 <main+0x239>
    12df:	43 8d 44 25 00       	lea    0x0(%r13,%r12,1),%eax
    12e4:	41 89 07             	mov    %eax,(%r15)
    12e7:	41 8b 0f             	mov    (%r15),%ecx
    12ea:	44 89 ca             	mov    %r9d,%edx
    12ed:	48 8d 35 ec 3e 00 00 	lea    0x3eec(%rip),%rsi        # 51e0 <_IO_stdin_used+0x1e0>
    12f4:	31 c0                	xor    %eax,%eax
    12f6:	bf 01 00 00 00       	mov    $0x1,%edi
    12fb:	e8 30 fd ff ff       	call   1030 <__printf_chk@plt>
    1300:	49 63 07             	movslq (%r15),%rax
    1303:	48 89 c2             	mov    %rax,%rdx
    1306:	48 3d ff 03 00 00    	cmp    $0x3ff,%rax
    130c:	77 16                	ja     1324 <main+0x1a4>
    130e:	48 c1 e8 06          	shr    $0x6,%rax
    1312:	48 8b 84 c4 b0 00 00 	mov    0xb0(%rsp,%rax,8),%rax
    1319:	00 
    131a:	48 0f a3 d0          	bt     %rdx,%rax
    131e:	0f 82 d2 00 00 00    	jb     13f6 <main+0x276>
    1324:	48 8d 35 dd 3e 00 00 	lea    0x3edd(%rip),%rsi        # 5208 <_IO_stdin_used+0x208>
    132b:	bf 01 00 00 00       	mov    $0x1,%edi
    1330:	31 c0                	xor    %eax,%eax
    1332:	31 db                	xor    %ebx,%ebx
    1334:	e8 f7 fc ff ff       	call   1030 <__printf_chk@plt>
    1339:	48 8d 2d 0b 40 00 00 	lea    0x400b(%rip),%rbp        # 534b <_IO_stdin_used+0x34b>
    1340:	48 8b 84 24 b0 00 00 	mov    0xb0(%rsp),%rax
    1347:	00 
    1348:	48 0f a3 d8          	bt     %rbx,%rax
    134c:	73 11                	jae    135f <main+0x1df>
    134e:	89 da                	mov    %ebx,%edx
    1350:	48 89 ee             	mov    %rbp,%rsi
    1353:	bf 01 00 00 00       	mov    $0x1,%edi
    1358:	31 c0                	xor    %eax,%eax
    135a:	e8 d1 fc ff ff       	call   1030 <__printf_chk@plt>
    135f:	83 c3 01             	add    $0x1,%ebx
    1362:	83 fb 08             	cmp    $0x8,%ebx
    1365:	75 d9                	jne    1340 <main+0x1c0>
    1367:	bf 0a 00 00 00       	mov    $0xa,%edi
    136c:	e8 5f fd ff ff       	call   10d0 <putchar@plt>
    1371:	c7 44 24 10 01 00 00 	movl   $0x1,0x10(%rsp)
    1378:	00 
    1379:	48 8b 84 24 38 01 00 	mov    0x138(%rsp),%rax
    1380:	00 
    1381:	64 48 33 04 25 28 00 	xor    %fs:0x28,%rax
    1388:	00 00 
    138a:	0f 85 fe 07 00 00    	jne    1b8e <main+0xa0e>
    1390:	8b 44 24 10          	mov    0x10(%rsp),%eax
    1394:	48 81 c4 48 01 00 00 	add    $0x148,%rsp
    139b:	5b                   	pop    %rbx
    139c:	5d                   	pop    %rbp
    139d:	41 5c                	pop    %r12
    139f:	41 5d                	pop    %r13
    13a1:	41 5e                	pop    %r14
    13a3:	41 5f                	pop    %r15
    13a5:	c3                   	ret    
    13a6:	66 2e 0f 1f 84 00 00 	cs nopw 0x0(%rax,%rax,1)
    13ad:	00 00 00 
    13b0:	48 83 c1 01          	add    $0x1,%rcx
    13b4:	e9 90 fe ff ff       	jmp    1249 <main+0xc9>
    13b9:	81 3d 71 c0 80 00 00 	cmpl   $0x800,0x80c071(%rip)        # 80d434 <MSRCounters+0x54>
    13c0:	08 00 00 
    13c3:	0f 84 9e 01 00 00    	je     1567 <main+0x3e7>
    13c9:	44 89 e8             	mov    %r13d,%eax
    13cc:	be 02 00 00 00       	mov    $0x2,%esi
    13d1:	99                   	cltd   
    13d2:	f7 fe                	idiv   %esi
    13d4:	0f af 54 24 08       	imul   0x8(%rsp),%edx
    13d9:	01 c2                	add    %eax,%edx
    13db:	42 8d 04 32          	lea    (%rdx,%r14,1),%eax
    13df:	41 89 07             	mov    %eax,(%r15)
    13e2:	e9 00 ff ff ff       	jmp    12e7 <main+0x167>
    13e7:	c7 05 e7 be 00 00 01 	movl   $0x1,0xbee7(%rip)        # d2d8 <NumThreads>
    13ee:	00 00 00 
    13f1:	e9 fd fd ff ff       	jmp    11f3 <main+0x73>
    13f6:	41 83 ed 01          	sub    $0x1,%r13d
    13fa:	89 d8                	mov    %ebx,%eax
    13fc:	49 83 c7 04          	add    $0x4,%r15
    1400:	44 29 e8             	sub    %r13d,%eax
    1403:	39 05 cf be 00 00    	cmp    %eax,0xbecf(%rip)        # d2d8 <NumThreads>
    1409:	0f 8f c1 fe ff ff    	jg     12d0 <main+0x150>
    140f:	4c 8b 6c 24 10       	mov    0x10(%rsp),%r13
    1414:	48 8d 3d c5 bf 80 00 	lea    0x80bfc5(%rip),%rdi        # 80d3e0 <MSRCounters>
    141b:	e8 50 0f 00 00       	call   2370 <_ZN9CCounters13LockProcessorEv>
    1420:	48 8d 3d b9 bf 80 00 	lea    0x80bfb9(%rip),%rdi        # 80d3e0 <MSRCounters>
    1427:	e8 04 28 00 00       	call   3c30 <_ZN9CCounters13QueueCountersEv>
    142c:	8b 05 96 cd 81 00    	mov    0x81cd96(%rip),%eax        # 81e1c8 <diagnostics>
    1432:	89 44 24 10          	mov    %eax,0x10(%rsp)
    1436:	85 c0                	test   %eax,%eax
    1438:	0f 85 32 07 00 00    	jne    1b70 <main+0x9f0>
    143e:	83 3d 8b be 00 00 00 	cmpl   $0x0,0xbe8b(%rip)        # d2d0 <UsePMC>
    1445:	0f 85 32 07 00 00    	jne    1b7d <main+0x9fd>
    144b:	31 f6                	xor    %esi,%esi
    144d:	31 ff                	xor    %edi,%edi
    144f:	48 8d 5c 24 40       	lea    0x40(%rsp),%rbx
    1454:	ba ec ff ff ff       	mov    $0xffffffec,%edx
    1459:	e8 f2 fb ff ff       	call   1050 <setpriority@plt>
    145e:	b8 08 00 00 00       	mov    $0x8,%eax
    1463:	48 89 5c 24 30       	mov    %rbx,0x30(%rsp)
    1468:	83 3d 69 be 00 00 08 	cmpl   $0x8,0xbe69(%rip)        # d2d8 <NumThreads>
    146f:	0f 4e 05 62 be 00 00 	cmovle 0xbe62(%rip),%eax        # d2d8 <NumThreads>
    1476:	48 c7 84 24 88 00 00 	movq   $0x0,0x88(%rsp)
    147d:	00 00 00 00 00 
    1482:	48 8d 2d 97 0b 00 00 	lea    0xb97(%rip),%rbp        # 2020 <_Z11ThreadProc1Pv>
    1489:	48 c7 84 24 90 00 00 	movq   $0x0,0x90(%rsp)
    1490:	00 00 00 00 00 
    1495:	48 c7 84 24 98 00 00 	movq   $0x0,0x98(%rsp)
    149c:	00 00 00 00 00 
    14a1:	48 c7 84 24 a0 00 00 	movq   $0x0,0xa0(%rsp)
    14a8:	00 00 00 00 00 
    14ad:	89 44 24 40          	mov    %eax,0x40(%rsp)
    14b1:	eb 08                	jmp    14bb <main+0x33b>
    14b3:	49 83 c5 01          	add    $0x1,%r13
    14b7:	48 83 c3 04          	add    $0x4,%rbx
    14bb:	8b 44 24 40          	mov    0x40(%rsp),%eax
    14bf:	45 8d 65 ff          	lea    -0x1(%r13),%r12d
    14c3:	83 e8 01             	sub    $0x1,%eax
    14c6:	44 39 e0             	cmp    %r12d,%eax
    14c9:	0f 8e c3 00 00 00    	jle    1592 <main+0x412>
    14cf:	48 8b 44 24 30       	mov    0x30(%rsp),%rax
    14d4:	44 89 63 48          	mov    %r12d,0x48(%rbx)
    14d8:	31 f6                	xor    %esi,%esi
    14da:	48 8d 4b 48          	lea    0x48(%rbx),%rcx
    14de:	48 89 ea             	mov    %rbp,%rdx
    14e1:	4a 8d 3c e8          	lea    (%rax,%r13,8),%rdi
    14e5:	e8 86 fb ff ff       	call   1070 <pthread_create@plt>
    14ea:	85 c0                	test   %eax,%eax
    14ec:	74 c5                	je     14b3 <main+0x333>
    14ee:	44 89 e2             	mov    %r12d,%edx
    14f1:	48 8d 35 58 3e 00 00 	lea    0x3e58(%rip),%rsi        # 5350 <_IO_stdin_used+0x350>
    14f8:	bf 01 00 00 00       	mov    $0x1,%edi
    14fd:	31 c0                	xor    %eax,%eax
    14ff:	e8 2c fb ff ff       	call   1030 <__printf_chk@plt>
    1504:	eb ad                	jmp    14b3 <main+0x333>
    1506:	48 8d 35 2c 3e 00 00 	lea    0x3e2c(%rip),%rsi        # 5339 <_IO_stdin_used+0x339>
    150d:	bf 01 00 00 00       	mov    $0x1,%edi
    1512:	31 c0                	xor    %eax,%eax
    1514:	c7 05 ba bd 00 00 08 	movl   $0x8,0xbdba(%rip)        # d2d8 <NumThreads>
    151b:	00 00 00 
    151e:	e8 0d fb ff ff       	call   1030 <__printf_chk@plt>
    1523:	e9 bd fc ff ff       	jmp    11e5 <main+0x65>
    1528:	48 8d 35 b4 3d 00 00 	lea    0x3db4(%rip),%rsi        # 52e3 <_IO_stdin_used+0x2e3>
    152f:	bf 01 00 00 00       	mov    $0x1,%edi
    1534:	31 c0                	xor    %eax,%eax
    1536:	e8 f5 fa ff ff       	call   1030 <__printf_chk@plt>
    153b:	e9 dc fc ff ff       	jmp    121c <main+0x9c>
    1540:	48 8d 35 5b 3d 00 00 	lea    0x3d5b(%rip),%rsi        # 52a2 <_IO_stdin_used+0x2a2>
    1547:	4c 89 ef             	mov    %r13,%rdi
    154a:	e8 f1 fa ff ff       	call   1040 <strstr@plt>
    154f:	48 85 c0             	test   %rax,%rax
    1552:	74 1b                	je     156f <main+0x3ef>
    1554:	4c 89 e6             	mov    %r12,%rsi
    1557:	89 ef                	mov    %ebp,%edi
    1559:	e8 e2 28 00 00       	call   3e40 <_Z11setcountersiPPc>
    155e:	89 44 24 10          	mov    %eax,0x10(%rsp)
    1562:	e9 12 fe ff ff       	jmp    1379 <main+0x1f9>
    1567:	45 89 0f             	mov    %r9d,(%r15)
    156a:	e9 78 fd ff ff       	jmp    12e7 <main+0x167>
    156f:	4c 89 ea             	mov    %r13,%rdx
    1572:	48 8d 35 df 3b 00 00 	lea    0x3bdf(%rip),%rsi        # 5158 <_IO_stdin_used+0x158>
    1579:	bf 01 00 00 00       	mov    $0x1,%edi
    157e:	31 c0                	xor    %eax,%eax
    1580:	e8 ab fa ff ff       	call   1030 <__printf_chk@plt>
    1585:	c7 44 24 10 01 00 00 	movl   $0x1,0x10(%rsp)
    158c:	00 
    158d:	e9 e7 fd ff ff       	jmp    1379 <main+0x1f9>
    1592:	48 8b 5c 24 30       	mov    0x30(%rsp),%rbx
    1597:	48 63 d0             	movslq %eax,%rdx
    159a:	89 84 94 88 00 00 00 	mov    %eax,0x88(%rsp,%rdx,4)
    15a1:	48 8d 7c 93 48       	lea    0x48(%rbx,%rdx,4),%rdi
    15a6:	e8 75 0a 00 00       	call   2020 <_Z11ThreadProc1Pv>
    15ab:	83 7c 24 40 00       	cmpl   $0x0,0x40(%rsp)
    15b0:	74 08                	je     15ba <main+0x43a>
    15b2:	48 89 df             	mov    %rbx,%rdi
    15b5:	e8 16 07 00 00       	call   1cd0 <_ZN13ThreadHandler4StopEv.part.0>
    15ba:	31 d2                	xor    %edx,%edx
    15bc:	31 f6                	xor    %esi,%esi
    15be:	4c 8d 35 c3 3d 00 00 	lea    0x3dc3(%rip),%r14        # 5388 <_IO_stdin_used+0x388>
    15c5:	31 ff                	xor    %edi,%edi
    15c7:	e8 84 fa ff ff       	call   1050 <setpriority@plt>
    15cc:	48 8d 3d 0d be 80 00 	lea    0x80be0d(%rip),%rdi        # 80d3e0 <MSRCounters>
    15d3:	e8 38 0f 00 00       	call   2510 <_ZN9CCounters7CleanUpEv>
    15d8:	48 8d 05 81 ca 81 00 	lea    0x81ca81(%rip),%rax        # 81e060 <clockFactor>
    15df:	c7 44 24 2c 00 00 00 	movl   $0x0,0x2c(%rsp)
    15e6:	00 
    15e7:	48 89 44 24 20       	mov    %rax,0x20(%rsp)
    15ec:	8b 5c 24 2c          	mov    0x2c(%rsp),%ebx
    15f0:	39 1d e2 bc 00 00    	cmp    %ebx,0xbce2(%rip)        # d2d8 <NumThreads>
    15f6:	0f 8e 54 05 00 00    	jle    1b50 <main+0x9d0>
    15fc:	89 da                	mov    %ebx,%edx
    15fe:	48 8d 35 67 3d 00 00 	lea    0x3d67(%rip),%rsi        # 536c <_IO_stdin_used+0x36c>
    1605:	bf 01 00 00 00       	mov    $0x1,%edi
    160a:	31 c0                	xor    %eax,%eax
    160c:	e8 1f fa ff ff       	call   1030 <__printf_chk@plt>
    1611:	8b 35 d5 bc 00 00    	mov    0xbcd5(%rip),%esi        # d2ec <CustomPMCResultsOS>
    1617:	48 63 2d be bc 00 00 	movslq 0xbcbe(%rip),%rbp        # d2dc <ThreadDataSize>
    161e:	48 63 05 bb bc 00 00 	movslq 0xbcbb(%rip),%rax        # d2e0 <ClockResultsOS>
    1625:	4c 63 2d bc bc 00 00 	movslq 0xbcbc(%rip),%r13        # d2e8 <PMCResultsOS>
    162c:	48 c1 ed 02          	shr    $0x2,%rbp
    1630:	89 74 24 38          	mov    %esi,0x38(%rsp)
    1634:	8b 35 aa bc 00 00    	mov    0xbcaa(%rip),%esi        # d2e4 <CustomClockResultsOS>
    163a:	0f af eb             	imul   %ebx,%ebp
    163d:	48 c1 e8 02          	shr    $0x2,%rax
    1641:	49 c1 ed 02          	shr    $0x2,%r13
    1645:	83 3d 0c ca 81 00 00 	cmpl   $0x0,0x81ca0c(%rip)        # 81e058 <repetitions>
    164c:	89 74 24 3c          	mov    %esi,0x3c(%rsp)
    1650:	0f 8e f9 01 00 00    	jle    184f <main+0x6cf>
    1656:	48 98                	cltq   
    1658:	48 63 d5             	movslq %ebp,%rdx
    165b:	45 31 ff             	xor    %r15d,%r15d
    165e:	48 01 c2             	add    %rax,%rdx
    1661:	48 6b c0 fc          	imul   $0xfffffffffffffffc,%rax,%rax
    1665:	48 8d 34 95 00 00 00 	lea    0x0(,%rdx,4),%rsi
    166c:	00 
    166d:	48 89 74 24 08       	mov    %rsi,0x8(%rsp)
    1672:	48 89 44 24 18       	mov    %rax,0x18(%rsp)
    1677:	66 0f 1f 84 00 00 00 	nopw   0x0(%rax,%rax,1)
    167e:	00 00 
    1680:	48 8b 05 39 bc 00 00 	mov    0xbc39(%rip),%rax        # d2c0 <PThreadData>
    1687:	48 8b 74 24 08       	mov    0x8(%rsp),%rsi
    168c:	bf 01 00 00 00       	mov    $0x1,%edi
    1691:	45 89 fc             	mov    %r15d,%r12d
    1694:	8b 1c 30             	mov    (%rax,%rsi,1),%ebx
    1697:	48 8d 35 e9 3c 00 00 	lea    0x3ce9(%rip),%rsi        # 5387 <_IO_stdin_used+0x387>
    169e:	31 c0                	xor    %eax,%eax
    16a0:	89 da                	mov    %ebx,%edx
    16a2:	e8 89 f9 ff ff       	call   1030 <__printf_chk@plt>
    16a7:	8b 15 23 bc 00 00    	mov    0xbc23(%rip),%edx        # d2d0 <UsePMC>
    16ad:	85 d2                	test   %edx,%edx
    16af:	74 56                	je     1707 <main+0x587>
    16b1:	81 3d 7d bd 80 00 00 	cmpl   $0x2000,0x80bd7d(%rip)        # 80d438 <MSRCounters+0x58>
    16b8:	20 00 00 
    16bb:	0f 84 2e 03 00 00    	je     19ef <main+0x86f>
    16c1:	8b 05 01 bc 00 00    	mov    0xbc01(%rip),%eax        # d2c8 <NumCounters>
    16c7:	85 c0                	test   %eax,%eax
    16c9:	7e 3c                	jle    1707 <main+0x587>
    16cb:	31 db                	xor    %ebx,%ebx
    16cd:	0f 1f 00             	nopl   (%rax)
    16d0:	8b 05 82 c9 81 00    	mov    0x81c982(%rip),%eax        # 81e058 <repetitions>
    16d6:	48 8b 15 e3 bb 00 00 	mov    0xbbe3(%rip),%rdx        # d2c0 <PThreadData>
    16dd:	4c 89 f6             	mov    %r14,%rsi
    16e0:	bf 01 00 00 00       	mov    $0x1,%edi
    16e5:	0f af c3             	imul   %ebx,%eax
    16e8:	44 01 e0             	add    %r12d,%eax
    16eb:	01 e8                	add    %ebp,%eax
    16ed:	44 01 e8             	add    %r13d,%eax
    16f0:	48 98                	cltq   
    16f2:	8b 14 82             	mov    (%rdx,%rax,4),%edx
    16f5:	31 c0                	xor    %eax,%eax
    16f7:	e8 34 f9 ff ff       	call   1030 <__printf_chk@plt>
    16fc:	83 c3 01             	add    $0x1,%ebx
    16ff:	39 1d c3 bb 00 00    	cmp    %ebx,0xbbc3(%rip)        # d2c8 <NumCounters>
    1705:	7f c9                	jg     16d0 <main+0x550>
    1707:	8b 35 23 bc 00 00    	mov    0xbc23(%rip),%esi        # d330 <RatioOut>
    170d:	85 f6                	test   %esi,%esi
    170f:	0f 84 b5 00 00 00    	je     17ca <main+0x64a>
    1715:	8b 15 19 bc 00 00    	mov    0xbc19(%rip),%edx        # d334 <RatioOut+0x4>
    171b:	8b 0d 17 bc 00 00    	mov    0xbc17(%rip),%ecx        # d338 <RatioOut+0x8>
    1721:	85 d2                	test   %edx,%edx
    1723:	0f 85 05 02 00 00    	jne    192e <main+0x7ae>
    1729:	48 8b 05 90 bb 00 00 	mov    0xbb90(%rip),%rax        # d2c0 <PThreadData>
    1730:	48 8b 7c 24 08       	mov    0x8(%rsp),%rdi
    1735:	81 3d f9 bc 80 00 00 	cmpl   $0x2000,0x80bcf9(%rip)        # 80d438 <MSRCounters+0x58>
    173c:	20 00 00 
    173f:	8b 3c 38             	mov    (%rax,%rdi,1),%edi
    1742:	0f 84 d8 02 00 00    	je     1a20 <main+0x8a0>
    1748:	89 f8                	mov    %edi,%eax
    174a:	85 c9                	test   %ecx,%ecx
    174c:	74 2b                	je     1779 <main+0x5f9>
    174e:	3b 0d 74 bb 00 00    	cmp    0xbb74(%rip),%ecx        # d2c8 <NumCounters>
    1754:	0f 87 8b 02 00 00    	ja     19e5 <main+0x865>
    175a:	8d 51 ff             	lea    -0x1(%rcx),%edx
    175d:	48 8b 0d 5c bb 00 00 	mov    0xbb5c(%rip),%rcx        # d2c0 <PThreadData>
    1764:	0f af 15 ed c8 81 00 	imul   0x81c8ed(%rip),%edx        # 81e058 <repetitions>
    176b:	44 01 e2             	add    %r12d,%edx
    176e:	01 ea                	add    %ebp,%edx
    1770:	44 01 ea             	add    %r13d,%edx
    1773:	48 63 d2             	movslq %edx,%rdx
    1776:	8b 3c 91             	mov    (%rcx,%rdx,4),%edi
    1779:	85 ff                	test   %edi,%edi
    177b:	0f 84 45 02 00 00    	je     19c6 <main+0x846>
    1781:	83 ee 01             	sub    $0x1,%esi
    1784:	8b 15 b2 bb 00 00    	mov    0xbbb2(%rip),%edx        # d33c <RatioOut+0xc>
    178a:	0f 84 1a 02 00 00    	je     19aa <main+0x82a>
    1790:	66 0f ef c9          	pxor   %xmm1,%xmm1
    1794:	66 0f 6e da          	movd   %edx,%xmm3
    1798:	66 0f ef c0          	pxor   %xmm0,%xmm0
    179c:	f2 0f 2a c8          	cvtsi2sd %eax,%xmm1
    17a0:	f3 0f 5a c3          	cvtss2sd %xmm3,%xmm0
    17a4:	48 8d 35 ec 3b 00 00 	lea    0x3bec(%rip),%rsi        # 5397 <_IO_stdin_used+0x397>
    17ab:	b8 01 00 00 00       	mov    $0x1,%eax
    17b0:	f2 0f 59 c1          	mulsd  %xmm1,%xmm0
    17b4:	66 0f ef c9          	pxor   %xmm1,%xmm1
    17b8:	f2 0f 2a cf          	cvtsi2sd %edi,%xmm1
    17bc:	bf 01 00 00 00       	mov    $0x1,%edi
    17c1:	f2 0f 5e c1          	divsd  %xmm1,%xmm0
    17c5:	e8 66 f8 ff ff       	call   1030 <__printf_chk@plt>
    17ca:	8b 15 70 bb 00 00    	mov    0xbb70(%rip),%edx        # d340 <TempOut>
    17d0:	85 d2                	test   %edx,%edx
    17d2:	74 64                	je     1838 <main+0x6b8>
    17d4:	48 8b 44 24 08       	mov    0x8(%rsp),%rax
    17d9:	48 03 44 24 18       	add    0x18(%rsp),%rax
    17de:	48 03 05 db ba 00 00 	add    0xbadb(%rip),%rax        # d2c0 <PThreadData>
    17e5:	f6 c2 01             	test   $0x1,%dl
    17e8:	4a 8d 0c b8          	lea    (%rax,%r15,4),%rcx
    17ec:	48 0f 45 c1          	cmovne %rcx,%rax
    17f0:	83 fa 08             	cmp    $0x8,%edx
    17f3:	0f 87 5d 02 00 00    	ja     1a56 <main+0x8d6>
    17f9:	48 8d 3d ec 3e 00 00 	lea    0x3eec(%rip),%rdi        # 56ec <_IO_stdin_used+0x6ec>
    1800:	89 d6                	mov    %edx,%esi
    1802:	48 63 0c b7          	movslq (%rdi,%rsi,4),%rcx
    1806:	48 01 f9             	add    %rdi,%rcx
    1809:	3e ff e1             	notrack jmp *%rcx
    180c:	66 0f ef c0          	pxor   %xmm0,%xmm0
    1810:	48 8d 35 a6 3b 00 00 	lea    0x3ba6(%rip),%rsi        # 53bd <_IO_stdin_used+0x3bd>
    1817:	bf 01 00 00 00       	mov    $0x1,%edi
    181c:	f3 0f 5a 00          	cvtss2sd (%rax),%xmm0
    1820:	48 8b 44 24 20       	mov    0x20(%rsp),%rax
    1825:	f2 0f 5e 00          	divsd  (%rax),%xmm0
    1829:	b8 01 00 00 00       	mov    $0x1,%eax
    182e:	e8 fd f7 ff ff       	call   1030 <__printf_chk@plt>
    1833:	0f 1f 44 00 00       	nopl   0x0(%rax,%rax,1)
    1838:	48 83 44 24 08 04    	addq   $0x4,0x8(%rsp)
    183e:	49 83 c7 01          	add    $0x1,%r15
    1842:	44 39 3d 0f c8 81 00 	cmp    %r15d,0x81c80f(%rip)        # 81e058 <repetitions>
    1849:	0f 8f 31 fe ff ff    	jg     1680 <main+0x500>
    184f:	81 3d df bb 80 00 00 	cmpl   $0x2000,0x80bbdf(%rip)        # 80d438 <MSRCounters+0x58>
    1856:	20 00 00 
    1859:	0f 84 cd 02 00 00    	je     1b2c <main+0x9ac>
    185f:	83 3d 6e ba 00 00 00 	cmpl   $0x0,0xba6e(%rip)        # d2d4 <PrintCustomPMC>
    1866:	0f 85 02 02 00 00    	jne    1a6e <main+0x8ee>
    186c:	bf 0a 00 00 00       	mov    $0xa,%edi
    1871:	e8 5a f8 ff ff       	call   10d0 <putchar@plt>
    1876:	83 44 24 2c 01       	addl   $0x1,0x2c(%rsp)
    187b:	48 83 44 24 20 08    	addq   $0x8,0x20(%rsp)
    1881:	e9 66 fd ff ff       	jmp    15ec <main+0x46c>
    1886:	48 8b 10             	mov    (%rax),%rdx
    1889:	48 8d 35 14 3b 00 00 	lea    0x3b14(%rip),%rsi        # 53a4 <_IO_stdin_used+0x3a4>
    1890:	bf 01 00 00 00       	mov    $0x1,%edi
    1895:	31 c0                	xor    %eax,%eax
    1897:	e8 94 f7 ff ff       	call   1030 <__printf_chk@plt>
    189c:	eb 9a                	jmp    1838 <main+0x6b8>
    189e:	8b 10                	mov    (%rax),%edx
    18a0:	48 8d 35 f8 3a 00 00 	lea    0x3af8(%rip),%rsi        # 539f <_IO_stdin_used+0x39f>
    18a7:	bf 01 00 00 00       	mov    $0x1,%edi
    18ac:	31 c0                	xor    %eax,%eax
    18ae:	e8 7d f7 ff ff       	call   1030 <__printf_chk@plt>
    18b3:	eb 83                	jmp    1838 <main+0x6b8>
    18b5:	f2 0f 10 00          	movsd  (%rax),%xmm0
    18b9:	48 8d 35 fd 3a 00 00 	lea    0x3afd(%rip),%rsi        # 53bd <_IO_stdin_used+0x3bd>
    18c0:	bf 01 00 00 00       	mov    $0x1,%edi
    18c5:	b8 01 00 00 00       	mov    $0x1,%eax
    18ca:	e8 61 f7 ff ff       	call   1030 <__printf_chk@plt>
    18cf:	e9 64 ff ff ff       	jmp    1838 <main+0x6b8>
    18d4:	66 0f ef c0          	pxor   %xmm0,%xmm0
    18d8:	48 8d 35 de 3a 00 00 	lea    0x3ade(%rip),%rsi        # 53bd <_IO_stdin_used+0x3bd>
    18df:	bf 01 00 00 00       	mov    $0x1,%edi
    18e4:	f3 0f 5a 00          	cvtss2sd (%rax),%xmm0
    18e8:	b8 01 00 00 00       	mov    $0x1,%eax
    18ed:	e8 3e f7 ff ff       	call   1030 <__printf_chk@plt>
    18f2:	e9 41 ff ff ff       	jmp    1838 <main+0x6b8>
    18f7:	8b 50 04             	mov    0x4(%rax),%edx
    18fa:	8b 08                	mov    (%rax),%ecx
    18fc:	bf 01 00 00 00       	mov    $0x1,%edi
    1901:	31 c0                	xor    %eax,%eax
    1903:	48 8d 35 a8 3a 00 00 	lea    0x3aa8(%rip),%rsi        # 53b2 <_IO_stdin_used+0x3b2>
    190a:	e8 21 f7 ff ff       	call   1030 <__printf_chk@plt>
    190f:	e9 24 ff ff ff       	jmp    1838 <main+0x6b8>
    1914:	8b 10                	mov    (%rax),%edx
    1916:	48 8d 35 8e 3a 00 00 	lea    0x3a8e(%rip),%rsi        # 53ab <_IO_stdin_used+0x3ab>
    191d:	bf 01 00 00 00       	mov    $0x1,%edi
    1922:	31 c0                	xor    %eax,%eax
    1924:	e8 07 f7 ff ff       	call   1030 <__printf_chk@plt>
    1929:	e9 0a ff ff ff       	jmp    1838 <main+0x6b8>
    192e:	3b 15 94 b9 00 00    	cmp    0xb994(%rip),%edx        # d2c8 <NumCounters>
    1934:	b8 01 00 00 00       	mov    $0x1,%eax
    1939:	77 1e                	ja     1959 <main+0x7d9>
    193b:	8d 42 ff             	lea    -0x1(%rdx),%eax
    193e:	48 8b 15 7b b9 00 00 	mov    0xb97b(%rip),%rdx        # d2c0 <PThreadData>
    1945:	0f af 05 0c c7 81 00 	imul   0x81c70c(%rip),%eax        # 81e058 <repetitions>
    194c:	44 01 e0             	add    %r12d,%eax
    194f:	01 e8                	add    %ebp,%eax
    1951:	44 01 e8             	add    %r13d,%eax
    1954:	48 98                	cltq   
    1956:	8b 04 82             	mov    (%rdx,%rax,4),%eax
    1959:	85 c9                	test   %ecx,%ecx
    195b:	0f 85 ed fd ff ff    	jne    174e <main+0x5ce>
    1961:	48 8b 15 58 b9 00 00 	mov    0xb958(%rip),%rdx        # d2c0 <PThreadData>
    1968:	48 8b 7c 24 08       	mov    0x8(%rsp),%rdi
    196d:	81 3d c1 ba 80 00 00 	cmpl   $0x2000,0x80bac1(%rip)        # 80d438 <MSRCounters+0x58>
    1974:	20 00 00 
    1977:	8b 3c 3a             	mov    (%rdx,%rdi,1),%edi
    197a:	0f 85 f9 fd ff ff    	jne    1779 <main+0x5f9>
    1980:	66 0f ef c0          	pxor   %xmm0,%xmm0
    1984:	48 8b 1d 1d 3e 00 00 	mov    0x3e1d(%rip),%rbx        # 57a8 <_ZZN9CCounters26GetP4EventSelectRegAddressEiiE17TranslationTables+0x88>
    198b:	f2 0f 2a c7          	cvtsi2sd %edi,%xmm0
    198f:	66 48 0f 6e d3       	movq   %rbx,%xmm2
    1994:	48 8b 7c 24 20       	mov    0x20(%rsp),%rdi
    1999:	f2 0f 59 07          	mulsd  (%rdi),%xmm0
    199d:	f2 0f 58 c2          	addsd  %xmm2,%xmm0
    19a1:	f2 0f 2c f8          	cvttsd2si %xmm0,%edi
    19a5:	e9 cf fd ff ff       	jmp    1779 <main+0x5f9>
    19aa:	0f af c2             	imul   %edx,%eax
    19ad:	4c 89 f6             	mov    %r14,%rsi
    19b0:	99                   	cltd   
    19b1:	f7 ff                	idiv   %edi
    19b3:	bf 01 00 00 00       	mov    $0x1,%edi
    19b8:	89 c2                	mov    %eax,%edx
    19ba:	31 c0                	xor    %eax,%eax
    19bc:	e8 6f f6 ff ff       	call   1030 <__printf_chk@plt>
    19c1:	e9 04 fe ff ff       	jmp    17ca <main+0x64a>
    19c6:	48 8d 15 c1 39 00 00 	lea    0x39c1(%rip),%rdx        # 538e <_IO_stdin_used+0x38e>
    19cd:	48 8d 35 be 39 00 00 	lea    0x39be(%rip),%rsi        # 5392 <_IO_stdin_used+0x392>
    19d4:	bf 01 00 00 00       	mov    $0x1,%edi
    19d9:	31 c0                	xor    %eax,%eax
    19db:	e8 50 f6 ff ff       	call   1030 <__printf_chk@plt>
    19e0:	e9 e5 fd ff ff       	jmp    17ca <main+0x64a>
    19e5:	bf 01 00 00 00       	mov    $0x1,%edi
    19ea:	e9 92 fd ff ff       	jmp    1781 <main+0x601>
    19ef:	48 8b 44 24 20       	mov    0x20(%rsp),%rax
    19f4:	66 0f ef c0          	pxor   %xmm0,%xmm0
    19f8:	4c 89 f6             	mov    %r14,%rsi
    19fb:	bf 01 00 00 00       	mov    $0x1,%edi
    1a00:	f2 0f 2a c3          	cvtsi2sd %ebx,%xmm0
    1a04:	f2 0f 59 00          	mulsd  (%rax),%xmm0
    1a08:	31 c0                	xor    %eax,%eax
    1a0a:	f2 0f 58 05 96 3d 00 	addsd  0x3d96(%rip),%xmm0        # 57a8 <_ZZN9CCounters26GetP4EventSelectRegAddressEiiE17TranslationTables+0x88>
    1a11:	00 
    1a12:	f2 0f 2c d0          	cvttsd2si %xmm0,%edx
    1a16:	e8 15 f6 ff ff       	call   1030 <__printf_chk@plt>
    1a1b:	e9 a1 fc ff ff       	jmp    16c1 <main+0x541>
    1a20:	66 0f ef c0          	pxor   %xmm0,%xmm0
    1a24:	48 8b 44 24 20       	mov    0x20(%rsp),%rax
    1a29:	f2 0f 2a c7          	cvtsi2sd %edi,%xmm0
    1a2d:	f2 0f 10 08          	movsd  (%rax),%xmm1
    1a31:	48 8b 05 70 3d 00 00 	mov    0x3d70(%rip),%rax        # 57a8 <_ZZN9CCounters26GetP4EventSelectRegAddressEiiE17TranslationTables+0x88>
    1a38:	66 48 0f 6e d0       	movq   %rax,%xmm2
    1a3d:	f2 0f 59 c8          	mulsd  %xmm0,%xmm1
    1a41:	f2 0f 58 ca          	addsd  %xmm2,%xmm1
    1a45:	f2 0f 2c c1          	cvttsd2si %xmm1,%eax
    1a49:	85 c9                	test   %ecx,%ecx
    1a4b:	0f 85 fd fc ff ff    	jne    174e <main+0x5ce>
    1a51:	e9 3e ff ff ff       	jmp    1994 <main+0x814>
    1a56:	48 8d 35 67 39 00 00 	lea    0x3967(%rip),%rsi        # 53c4 <_IO_stdin_used+0x3c4>
    1a5d:	bf 01 00 00 00       	mov    $0x1,%edi
    1a62:	31 c0                	xor    %eax,%eax
    1a64:	e8 c7 f5 ff ff       	call   1030 <__printf_chk@plt>
    1a69:	e9 ca fd ff ff       	jmp    1838 <main+0x6b8>
    1a6e:	48 8d 35 76 39 00 00 	lea    0x3976(%rip),%rsi        # 53eb <_IO_stdin_used+0x3eb>
    1a75:	bf 01 00 00 00       	mov    $0x1,%edi
    1a7a:	31 c0                	xor    %eax,%eax
    1a7c:	e8 af f5 ff ff       	call   1030 <__printf_chk@plt>
    1a81:	4c 63 6c 24 3c       	movslq 0x3c(%rsp),%r13
    1a86:	4c 63 7c 24 38       	movslq 0x38(%rsp),%r15
    1a8b:	48 63 c5             	movslq %ebp,%rax
    1a8e:	45 31 e4             	xor    %r12d,%r12d
    1a91:	49 c1 fd 02          	sar    $0x2,%r13
    1a95:	49 c1 ef 02          	shr    $0x2,%r15
    1a99:	49 01 c5             	add    %rax,%r13
    1a9c:	49 c1 e5 02          	shl    $0x2,%r13
    1aa0:	eb 08                	jmp    1aaa <main+0x92a>
    1aa2:	41 83 c4 01          	add    $0x1,%r12d
    1aa6:	49 83 c5 04          	add    $0x4,%r13
    1aaa:	44 39 25 a7 c5 81 00 	cmp    %r12d,0x81c5a7(%rip)        # 81e058 <repetitions>
    1ab1:	0f 8e b5 fd ff ff    	jle    186c <main+0x6ec>
    1ab7:	48 8b 05 02 b8 00 00 	mov    0xb802(%rip),%rax        # d2c0 <PThreadData>
    1abe:	48 8d 35 c2 38 00 00 	lea    0x38c2(%rip),%rsi        # 5387 <_IO_stdin_used+0x387>
    1ac5:	bf 01 00 00 00       	mov    $0x1,%edi
    1aca:	42 8b 14 28          	mov    (%rax,%r13,1),%edx
    1ace:	31 c0                	xor    %eax,%eax
    1ad0:	e8 5b f5 ff ff       	call   1030 <__printf_chk@plt>
    1ad5:	83 3d f4 b7 00 00 00 	cmpl   $0x0,0xb7f4(%rip)        # d2d0 <UsePMC>
    1adc:	74 c4                	je     1aa2 <main+0x922>
    1ade:	83 3d e3 b7 00 00 00 	cmpl   $0x0,0xb7e3(%rip)        # d2c8 <NumCounters>
    1ae5:	7e bb                	jle    1aa2 <main+0x922>
    1ae7:	31 db                	xor    %ebx,%ebx
    1ae9:	0f 1f 80 00 00 00 00 	nopl   0x0(%rax)
    1af0:	8b 05 62 c5 81 00    	mov    0x81c562(%rip),%eax        # 81e058 <repetitions>
    1af6:	48 8b 15 c3 b7 00 00 	mov    0xb7c3(%rip),%rdx        # d2c0 <PThreadData>
    1afd:	4c 89 f6             	mov    %r14,%rsi
    1b00:	bf 01 00 00 00       	mov    $0x1,%edi
    1b05:	0f af c3             	imul   %ebx,%eax
    1b08:	44 01 e0             	add    %r12d,%eax
    1b0b:	01 e8                	add    %ebp,%eax
    1b0d:	44 01 f8             	add    %r15d,%eax
    1b10:	48 98                	cltq   
    1b12:	8b 14 82             	mov    (%rdx,%rax,4),%edx
    1b15:	31 c0                	xor    %eax,%eax
    1b17:	e8 14 f5 ff ff       	call   1030 <__printf_chk@plt>
    1b1c:	83 c3 01             	add    $0x1,%ebx
    1b1f:	39 1d a3 b7 00 00    	cmp    %ebx,0xb7a3(%rip)        # d2c8 <NumCounters>
    1b25:	7f c9                	jg     1af0 <main+0x970>
    1b27:	e9 76 ff ff ff       	jmp    1aa2 <main+0x922>
    1b2c:	48 8b 44 24 20       	mov    0x20(%rsp),%rax
    1b31:	48 8d 35 9f 38 00 00 	lea    0x389f(%rip),%rsi        # 53d7 <_IO_stdin_used+0x3d7>
    1b38:	bf 01 00 00 00       	mov    $0x1,%edi
    1b3d:	f2 0f 10 00          	movsd  (%rax),%xmm0
    1b41:	b8 01 00 00 00       	mov    $0x1,%eax
    1b46:	e8 e5 f4 ff ff       	call   1030 <__printf_chk@plt>
    1b4b:	e9 0f fd ff ff       	jmp    185f <main+0x6df>
    1b50:	bf 0a 00 00 00       	mov    $0xa,%edi
    1b55:	e8 76 f5 ff ff       	call   10d0 <putchar@plt>
    1b5a:	83 7c 24 40 00       	cmpl   $0x0,0x40(%rsp)
    1b5f:	74 0f                	je     1b70 <main+0x9f0>
    1b61:	48 8b 7c 24 30       	mov    0x30(%rsp),%rdi
    1b66:	e8 65 01 00 00       	call   1cd0 <_ZN13ThreadHandler4StopEv.part.0>
    1b6b:	e9 09 f8 ff ff       	jmp    1379 <main+0x1f9>
    1b70:	c7 44 24 10 00 00 00 	movl   $0x0,0x10(%rsp)
    1b77:	00 
    1b78:	e9 fc f7 ff ff       	jmp    1379 <main+0x1f9>
    1b7d:	48 8d 3d 5c b8 80 00 	lea    0x80b85c(%rip),%rdi        # 80d3e0 <MSRCounters>
    1b84:	e8 b7 01 00 00       	call   1d40 <_ZN9CCounters11StartDriverEv.part.0>
    1b89:	e9 bd f8 ff ff       	jmp    144b <main+0x2cb>
    1b8e:	e8 2d f5 ff ff       	call   10c0 <__stack_chk_fail@plt>
    1b93:	f3 0f 1e fa          	endbr64 
    1b97:	48 89 c5             	mov    %rax,%rbp
    1b9a:	e9 c1 f5 ff ff       	jmp    1160 <main.cold>
    1b9f:	90                   	nop

0000000000001ba0 <_GLOBAL__sub_I_diagnostics>:
    1ba0:	f3 0f 1e fa          	endbr64 
    1ba4:	48 83 ec 08          	sub    $0x8,%rsp
    1ba8:	48 8d 3d 31 b8 80 00 	lea    0x80b831(%rip),%rdi        # 80d3e0 <MSRCounters>
    1baf:	e8 ac 06 00 00       	call   2260 <_ZN9CCountersC1Ev>
    1bb4:	48 8d 15 4d 64 00 00 	lea    0x644d(%rip),%rdx        # 8008 <__dso_handle>
    1bbb:	48 8d 35 1e b8 80 00 	lea    0x80b81e(%rip),%rsi        # 80d3e0 <MSRCounters>
    1bc2:	48 83 c4 08          	add    $0x8,%rsp
    1bc6:	48 8d 3d 73 26 00 00 	lea    0x2673(%rip),%rdi        # 4240 <_ZN9CCountersD1Ev>
    1bcd:	e9 ce f4 ff ff       	jmp    10a0 <__cxa_atexit@plt>
    1bd2:	66 2e 0f 1f 84 00 00 	cs nopw 0x0(%rax,%rax,1)
    1bd9:	00 00 00 
    1bdc:	0f 1f 40 00          	nopl   0x0(%rax)

0000000000001be0 <_start>:
    1be0:	f3 0f 1e fa          	endbr64 
    1be4:	31 ed                	xor    %ebp,%ebp
    1be6:	49 89 d1             	mov    %rdx,%r9
    1be9:	5e                   	pop    %rsi
    1bea:	48 89 e2             	mov    %rsp,%rdx
    1bed:	48 83 e4 f0          	and    $0xfffffffffffffff0,%rsp
    1bf1:	50                   	push   %rax
    1bf2:	54                   	push   %rsp
    1bf3:	4c 8d 05 c6 2d 00 00 	lea    0x2dc6(%rip),%r8        # 49c0 <__libc_csu_fini>
    1bfa:	48 8d 0d 4f 2d 00 00 	lea    0x2d4f(%rip),%rcx        # 4950 <__libc_csu_init>
    1c01:	48 8d 3d 78 f5 ff ff 	lea    -0xa88(%rip),%rdi        # 1180 <main>
    1c08:	ff 15 da 63 00 00    	call   *0x63da(%rip)        # 7fe8 <__libc_start_main@GLIBC_2.2.5>
    1c0e:	f4                   	hlt    
    1c0f:	90                   	nop

0000000000001c10 <deregister_tm_clones>:
    1c10:	48 8d 3d a9 b7 80 00 	lea    0x80b7a9(%rip),%rdi        # 80d3c0 <__TMC_END__>
    1c17:	48 8d 05 a2 b7 80 00 	lea    0x80b7a2(%rip),%rax        # 80d3c0 <__TMC_END__>
    1c1e:	48 39 f8             	cmp    %rdi,%rax
    1c21:	74 15                	je     1c38 <deregister_tm_clones+0x28>
    1c23:	48 8b 05 b6 63 00 00 	mov    0x63b6(%rip),%rax        # 7fe0 <_ITM_deregisterTMCloneTable>
    1c2a:	48 85 c0             	test   %rax,%rax
    1c2d:	74 09                	je     1c38 <deregister_tm_clones+0x28>
    1c2f:	ff e0                	jmp    *%rax
    1c31:	0f 1f 80 00 00 00 00 	nopl   0x0(%rax)
    1c38:	c3                   	ret    
    1c39:	0f 1f 80 00 00 00 00 	nopl   0x0(%rax)

0000000000001c40 <register_tm_clones>:
    1c40:	48 8d 3d 79 b7 80 00 	lea    0x80b779(%rip),%rdi        # 80d3c0 <__TMC_END__>
    1c47:	48 8d 35 72 b7 80 00 	lea    0x80b772(%rip),%rsi        # 80d3c0 <__TMC_END__>
    1c4e:	48 29 fe             	sub    %rdi,%rsi
    1c51:	48 89 f0             	mov    %rsi,%rax
    1c54:	48 c1 ee 3f          	shr    $0x3f,%rsi
    1c58:	48 c1 f8 03          	sar    $0x3,%rax
    1c5c:	48 01 c6             	add    %rax,%rsi
    1c5f:	48 d1 fe             	sar    %rsi
    1c62:	74 14                	je     1c78 <register_tm_clones+0x38>
    1c64:	48 8b 05 8d 63 00 00 	mov    0x638d(%rip),%rax        # 7ff8 <_ITM_registerTMCloneTable>
    1c6b:	48 85 c0             	test   %rax,%rax
    1c6e:	74 08                	je     1c78 <register_tm_clones+0x38>
    1c70:	ff e0                	jmp    *%rax
    1c72:	66 0f 1f 44 00 00    	nopw   0x0(%rax,%rax,1)
    1c78:	c3                   	ret    
    1c79:	0f 1f 80 00 00 00 00 	nopl   0x0(%rax)

0000000000001c80 <__do_global_dtors_aux>:
    1c80:	f3 0f 1e fa          	endbr64 
    1c84:	80 3d 35 b7 80 00 00 	cmpb   $0x0,0x80b735(%rip)        # 80d3c0 <__TMC_END__>
    1c8b:	75 2b                	jne    1cb8 <__do_global_dtors_aux+0x38>
    1c8d:	55                   	push   %rbp
    1c8e:	48 83 3d 42 63 00 00 	cmpq   $0x0,0x6342(%rip)        # 7fd8 <__cxa_finalize@GLIBC_2.2.5>
    1c95:	00 
    1c96:	48 89 e5             	mov    %rsp,%rbp
    1c99:	74 0c                	je     1ca7 <__do_global_dtors_aux+0x27>
    1c9b:	48 8b 3d 66 63 00 00 	mov    0x6366(%rip),%rdi        # 8008 <__dso_handle>
    1ca2:	e8 99 f4 ff ff       	call   1140 <__cxa_finalize@plt>
    1ca7:	e8 64 ff ff ff       	call   1c10 <deregister_tm_clones>
    1cac:	c6 05 0d b7 80 00 01 	movb   $0x1,0x80b70d(%rip)        # 80d3c0 <__TMC_END__>
    1cb3:	5d                   	pop    %rbp
    1cb4:	c3                   	ret    
    1cb5:	0f 1f 00             	nopl   (%rax)
    1cb8:	c3                   	ret    
    1cb9:	0f 1f 80 00 00 00 00 	nopl   0x0(%rax)

0000000000001cc0 <frame_dummy>:
    1cc0:	f3 0f 1e fa          	endbr64 
    1cc4:	e9 77 ff ff ff       	jmp    1c40 <register_tm_clones>
    1cc9:	0f 1f 80 00 00 00 00 	nopl   0x0(%rax)

0000000000001cd0 <_ZN13ThreadHandler4StopEv.part.0>:
    1cd0:	41 54                	push   %r12
    1cd2:	55                   	push   %rbp
    1cd3:	48 89 fd             	mov    %rdi,%rbp
    1cd6:	53                   	push   %rbx
    1cd7:	83 3f 01             	cmpl   $0x1,(%rdi)
    1cda:	7e 51                	jle    1d2d <_ZN13ThreadHandler4StopEv.part.0+0x5d>
    1cdc:	31 db                	xor    %ebx,%ebx
    1cde:	4c 8d 25 23 33 00 00 	lea    0x3323(%rip),%r12        # 5008 <_IO_stdin_used+0x8>
    1ce5:	eb 17                	jmp    1cfe <_ZN13ThreadHandler4StopEv.part.0+0x2e>
    1ce7:	66 0f 1f 84 00 00 00 	nopw   0x0(%rax,%rax,1)
    1cee:	00 00 
    1cf0:	8b 45 00             	mov    0x0(%rbp),%eax
    1cf3:	48 83 c3 01          	add    $0x1,%rbx
    1cf7:	83 e8 01             	sub    $0x1,%eax
    1cfa:	39 d8                	cmp    %ebx,%eax
    1cfc:	7e 2f                	jle    1d2d <_ZN13ThreadHandler4StopEv.part.0+0x5d>
    1cfe:	48 8b 7c dd 08       	mov    0x8(%rbp,%rbx,8),%rdi
    1d03:	31 f6                	xor    %esi,%esi
    1d05:	e8 56 f3 ff ff       	call   1060 <pthread_join@plt>
    1d0a:	85 c0                	test   %eax,%eax
    1d0c:	74 e2                	je     1cf0 <_ZN13ThreadHandler4StopEv.part.0+0x20>
    1d0e:	89 da                	mov    %ebx,%edx
    1d10:	4c 89 e6             	mov    %r12,%rsi
    1d13:	bf 01 00 00 00       	mov    $0x1,%edi
    1d18:	31 c0                	xor    %eax,%eax
    1d1a:	e8 11 f3 ff ff       	call   1030 <__printf_chk@plt>
    1d1f:	8b 45 00             	mov    0x0(%rbp),%eax
    1d22:	48 83 c3 01          	add    $0x1,%rbx
    1d26:	83 e8 01             	sub    $0x1,%eax
    1d29:	39 d8                	cmp    %ebx,%eax
    1d2b:	7f d1                	jg     1cfe <_ZN13ThreadHandler4StopEv.part.0+0x2e>
    1d2d:	5b                   	pop    %rbx
    1d2e:	c7 45 00 00 00 00 00 	movl   $0x0,0x0(%rbp)
    1d35:	5d                   	pop    %rbp
    1d36:	41 5c                	pop    %r12
    1d38:	c3                   	ret    
    1d39:	90                   	nop
    1d3a:	66 0f 1f 44 00 00    	nopw   0x0(%rax,%rax,1)

0000000000001d40 <_ZN9CCounters11StartDriverEv.part.0>:
    1d40:	53                   	push   %rbx
    1d41:	48 89 fb             	mov    %rdi,%rbx
    1d44:	48 8b 3f             	mov    (%rdi),%rdi
    1d47:	31 f6                	xor    %esi,%esi
    1d49:	31 c0                	xor    %eax,%eax
    1d4b:	e8 30 f3 ff ff       	call   1080 <open@plt>
    1d50:	45 31 c0             	xor    %r8d,%r8d
    1d53:	89 43 08             	mov    %eax,0x8(%rbx)
    1d56:	83 f8 ff             	cmp    $0xffffffff,%eax
    1d59:	74 05                	je     1d60 <_ZN9CCounters11StartDriverEv.part.0+0x20>
    1d5b:	44 89 c0             	mov    %r8d,%eax
    1d5e:	5b                   	pop    %rbx
    1d5f:	c3                   	ret    
    1d60:	48 8b 13             	mov    (%rbx),%rdx
    1d63:	48 8d 35 d2 34 00 00 	lea    0x34d2(%rip),%rsi        # 523c <_IO_stdin_used+0x23c>
    1d6a:	bf 01 00 00 00       	mov    $0x1,%edi
    1d6f:	31 c0                	xor    %eax,%eax
    1d71:	e8 ba f2 ff ff       	call   1030 <__printf_chk@plt>
    1d76:	41 b8 01 00 00 00    	mov    $0x1,%r8d
    1d7c:	c7 43 08 00 00 00 00 	movl   $0x0,0x8(%rbx)
    1d83:	5b                   	pop    %rbx
    1d84:	44 89 c0             	mov    %r8d,%eax
    1d87:	c3                   	ret    
    1d88:	0f 1f 84 00 00 00 00 	nopl   0x0(%rax,%rax,1)
    1d8f:	00 

0000000000001d90 <_ZN9CCounters12StopCountersEi.part.0>:
    1d90:	48 63 f6             	movslq %esi,%rsi
    1d93:	48 69 f6 18 02 00 00 	imul   $0x218,%rsi,%rsi
    1d9a:	48 8d 94 37 60 86 00 	lea    0x8660(%rdi,%rsi,1),%rdx
    1da1:	00 
    1da2:	8b 82 10 02 00 00    	mov    0x210(%rdx),%eax
    1da8:	c1 e0 04             	shl    $0x4,%eax
    1dab:	85 c0                	test   %eax,%eax
    1dad:	7e 19                	jle    1dc8 <_ZN9CCounters12StopCountersEi.part.0+0x38>
    1daf:	8b 7f 08             	mov    0x8(%rdi),%edi
    1db2:	85 ff                	test   %edi,%edi
    1db4:	74 12                	je     1dc8 <_ZN9CCounters12StopCountersEi.part.0+0x38>
    1db6:	be 01 f9 00 00       	mov    $0xf901,%esi
    1dbb:	31 c0                	xor    %eax,%eax
    1dbd:	e9 2e f3 ff ff       	jmp    10f0 <ioctl@plt>
    1dc2:	66 0f 1f 44 00 00    	nopw   0x0(%rax,%rax,1)
    1dc8:	c3                   	ret    
    1dc9:	90                   	nop
    1dca:	66 0f 1f 44 00 00    	nopw   0x0(%rax,%rax,1)

0000000000001dd0 <_ZN9CCounters18GetProcessorFamilyEv.part.0>:
    1dd0:	53                   	push   %rbx
    1dd1:	b8 01 00 00 00       	mov    $0x1,%eax
    1dd6:	31 c9                	xor    %ecx,%ecx
    1dd8:	0f a2                	cpuid  
    1dda:	89 c2                	mov    %eax,%edx
    1ddc:	89 c1                	mov    %eax,%ecx
    1dde:	c1 fa 08             	sar    $0x8,%edx
    1de1:	c1 f9 14             	sar    $0x14,%ecx
    1de4:	0f b6 c9             	movzbl %cl,%ecx
    1de7:	83 e2 0f             	and    $0xf,%edx
    1dea:	01 ca                	add    %ecx,%edx
    1dec:	89 c1                	mov    %eax,%ecx
    1dee:	c1 f8 0c             	sar    $0xc,%eax
    1df1:	c1 f9 04             	sar    $0x4,%ecx
    1df4:	25 f0 00 00 00       	and    $0xf0,%eax
    1df9:	83 e1 0f             	and    $0xf,%ecx
    1dfc:	09 c8                	or     %ecx,%eax
    1dfe:	8b 4f 50             	mov    0x50(%rdi),%ecx
    1e01:	83 f9 01             	cmp    $0x1,%ecx
    1e04:	0f 84 86 00 00 00    	je     1e90 <_ZN9CCounters18GetProcessorFamilyEv.part.0+0xc0>
    1e0a:	83 f9 02             	cmp    $0x2,%ecx
    1e0d:	75 41                	jne    1e50 <_ZN9CCounters18GetProcessorFamilyEv.part.0+0x80>
    1e0f:	83 fa 06             	cmp    $0x6,%edx
    1e12:	0f 84 d8 00 00 00    	je     1ef0 <_ZN9CCounters18GetProcessorFamilyEv.part.0+0x120>
    1e18:	8d 4a f1             	lea    -0xf(%rdx),%ecx
    1e1b:	83 f9 05             	cmp    $0x5,%ecx
    1e1e:	0f 86 84 00 00 00    	jbe    1ea8 <_ZN9CCounters18GetProcessorFamilyEv.part.0+0xd8>
    1e24:	83 fa 14             	cmp    $0x14,%edx
    1e27:	0f 8e 99 01 00 00    	jle    1fc6 <_ZN9CCounters18GetProcessorFamilyEv.part.0+0x1f6>
    1e2d:	83 fa 16             	cmp    $0x16,%edx
    1e30:	0f 8e 84 01 00 00    	jle    1fba <_ZN9CCounters18GetProcessorFamilyEv.part.0+0x1ea>
    1e36:	c7 47 54 00 00 08 00 	movl   $0x80000,0x54(%rdi)
    1e3d:	0f 1f 00             	nopl   (%rax)
    1e40:	8b 0d 82 c3 81 00    	mov    0x81c382(%rip),%ecx        # 81e1c8 <diagnostics>
    1e46:	85 c9                	test   %ecx,%ecx
    1e48:	75 26                	jne    1e70 <_ZN9CCounters18GetProcessorFamilyEv.part.0+0xa0>
    1e4a:	5b                   	pop    %rbx
    1e4b:	c3                   	ret    
    1e4c:	0f 1f 40 00          	nopl   0x0(%rax)
    1e50:	83 f9 03             	cmp    $0x3,%ecx
    1e53:	75 eb                	jne    1e40 <_ZN9CCounters18GetProcessorFamilyEv.part.0+0x70>
    1e55:	83 fa 06             	cmp    $0x6,%edx
    1e58:	75 e6                	jne    1e40 <_ZN9CCounters18GetProcessorFamilyEv.part.0+0x70>
    1e5a:	83 f8 0e             	cmp    $0xe,%eax
    1e5d:	7e e1                	jle    1e40 <_ZN9CCounters18GetProcessorFamilyEv.part.0+0x70>
    1e5f:	8b 0d 63 c3 81 00    	mov    0x81c363(%rip),%ecx        # 81e1c8 <diagnostics>
    1e65:	c7 47 54 00 00 10 00 	movl   $0x100000,0x54(%rdi)
    1e6c:	85 c9                	test   %ecx,%ecx
    1e6e:	74 da                	je     1e4a <_ZN9CCounters18GetProcessorFamilyEv.part.0+0x7a>
    1e70:	44 8b 47 54          	mov    0x54(%rdi),%r8d
    1e74:	89 c1                	mov    %eax,%ecx
    1e76:	48 8d 35 ab 31 00 00 	lea    0x31ab(%rip),%rsi        # 5028 <_IO_stdin_used+0x28>
    1e7d:	31 c0                	xor    %eax,%eax
    1e7f:	bf 01 00 00 00       	mov    $0x1,%edi
    1e84:	5b                   	pop    %rbx
    1e85:	e9 a6 f1 ff ff       	jmp    1030 <__printf_chk@plt>
    1e8a:	66 0f 1f 44 00 00    	nopw   0x0(%rax,%rax,1)
    1e90:	83 fa 05             	cmp    $0x5,%edx
    1e93:	74 4b                	je     1ee0 <_ZN9CCounters18GetProcessorFamilyEv.part.0+0x110>
    1e95:	83 fa 0f             	cmp    $0xf,%edx
    1e98:	75 1e                	jne    1eb8 <_ZN9CCounters18GetProcessorFamilyEv.part.0+0xe8>
    1e9a:	c7 47 54 08 00 00 00 	movl   $0x8,0x54(%rdi)
    1ea1:	eb 9d                	jmp    1e40 <_ZN9CCounters18GetProcessorFamilyEv.part.0+0x70>
    1ea3:	0f 1f 44 00 00       	nopl   0x0(%rax,%rax,1)
    1ea8:	c7 47 54 00 00 02 00 	movl   $0x20000,0x54(%rdi)
    1eaf:	eb 8f                	jmp    1e40 <_ZN9CCounters18GetProcessorFamilyEv.part.0+0x70>
    1eb1:	0f 1f 80 00 00 00 00 	nopl   0x0(%rax)
    1eb8:	83 fa 06             	cmp    $0x6,%edx
    1ebb:	75 83                	jne    1e40 <_ZN9CCounters18GetProcessorFamilyEv.part.0+0x70>
    1ebd:	8d 48 f7             	lea    -0x9(%rax),%ecx
    1ec0:	81 f9 91 00 00 00    	cmp    $0x91,%ecx
    1ec6:	0f 87 7d 00 00 00    	ja     1f49 <_ZN9CCounters18GetProcessorFamilyEv.part.0+0x179>
    1ecc:	48 8d 35 4d 35 00 00 	lea    0x354d(%rip),%rsi        # 5420 <_IO_stdin_used+0x420>
    1ed3:	48 63 0c 8e          	movslq (%rsi,%rcx,4),%rcx
    1ed7:	48 01 f1             	add    %rsi,%rcx
    1eda:	3e ff e1             	notrack jmp *%rcx
    1edd:	0f 1f 00             	nopl   (%rax)
    1ee0:	c7 47 54 01 00 00 00 	movl   $0x1,0x54(%rdi)
    1ee7:	e9 54 ff ff ff       	jmp    1e40 <_ZN9CCounters18GetProcessorFamilyEv.part.0+0x70>
    1eec:	0f 1f 40 00          	nopl   0x0(%rax)
    1ef0:	c7 47 54 00 00 01 00 	movl   $0x10000,0x54(%rdi)
    1ef7:	e9 44 ff ff ff       	jmp    1e40 <_ZN9CCounters18GetProcessorFamilyEv.part.0+0x70>
    1efc:	c7 47 54 00 01 00 00 	movl   $0x100,0x54(%rdi)
    1f03:	e9 38 ff ff ff       	jmp    1e40 <_ZN9CCounters18GetProcessorFamilyEv.part.0+0x70>
    1f08:	c7 47 54 80 00 00 00 	movl   $0x80,0x54(%rdi)
    1f0f:	e9 2c ff ff ff       	jmp    1e40 <_ZN9CCounters18GetProcessorFamilyEv.part.0+0x70>
    1f14:	c7 47 54 40 00 00 00 	movl   $0x40,0x54(%rdi)
    1f1b:	e9 20 ff ff ff       	jmp    1e40 <_ZN9CCounters18GetProcessorFamilyEv.part.0+0x70>
    1f20:	c7 47 54 20 00 00 00 	movl   $0x20,0x54(%rdi)
    1f27:	e9 14 ff ff ff       	jmp    1e40 <_ZN9CCounters18GetProcessorFamilyEv.part.0+0x70>
    1f2c:	83 f8 5d             	cmp    $0x5d,%eax
    1f2f:	7e cb                	jle    1efc <_ZN9CCounters18GetProcessorFamilyEv.part.0+0x12c>
    1f31:	83 f8 7d             	cmp    $0x7d,%eax
    1f34:	7e 54                	jle    1f8a <_ZN9CCounters18GetProcessorFamilyEv.part.0+0x1ba>
    1f36:	3d 96 00 00 00       	cmp    $0x96,%eax
    1f3b:	7e 29                	jle    1f66 <_ZN9CCounters18GetProcessorFamilyEv.part.0+0x196>
    1f3d:	c7 47 54 00 08 00 00 	movl   $0x800,0x54(%rdi)
    1f44:	e9 f7 fe ff ff       	jmp    1e40 <_ZN9CCounters18GetProcessorFamilyEv.part.0+0x70>
    1f49:	83 f8 3b             	cmp    $0x3b,%eax
    1f4c:	7f de                	jg     1f2c <_ZN9CCounters18GetProcessorFamilyEv.part.0+0x15c>
    1f4e:	c7 47 54 02 00 00 00 	movl   $0x2,0x54(%rdi)
    1f55:	e9 e6 fe ff ff       	jmp    1e40 <_ZN9CCounters18GetProcessorFamilyEv.part.0+0x70>
    1f5a:	c7 47 54 00 20 00 00 	movl   $0x2000,0x54(%rdi)
    1f61:	e9 da fe ff ff       	jmp    1e40 <_ZN9CCounters18GetProcessorFamilyEv.part.0+0x70>
    1f66:	c7 47 54 00 04 00 00 	movl   $0x400,0x54(%rdi)
    1f6d:	e9 ce fe ff ff       	jmp    1e40 <_ZN9CCounters18GetProcessorFamilyEv.part.0+0x70>
    1f72:	c7 47 54 00 40 00 00 	movl   $0x4000,0x54(%rdi)
    1f79:	e9 c2 fe ff ff       	jmp    1e40 <_ZN9CCounters18GetProcessorFamilyEv.part.0+0x70>
    1f7e:	c7 47 54 00 80 00 00 	movl   $0x8000,0x54(%rdi)
    1f85:	e9 b6 fe ff ff       	jmp    1e40 <_ZN9CCounters18GetProcessorFamilyEv.part.0+0x70>
    1f8a:	c7 47 54 00 02 00 00 	movl   $0x200,0x54(%rdi)
    1f91:	e9 aa fe ff ff       	jmp    1e40 <_ZN9CCounters18GetProcessorFamilyEv.part.0+0x70>
    1f96:	c7 47 54 10 00 00 00 	movl   $0x10,0x54(%rdi)
    1f9d:	e9 9e fe ff ff       	jmp    1e40 <_ZN9CCounters18GetProcessorFamilyEv.part.0+0x70>
    1fa2:	c7 47 54 04 00 00 00 	movl   $0x4,0x54(%rdi)
    1fa9:	e9 92 fe ff ff       	jmp    1e40 <_ZN9CCounters18GetProcessorFamilyEv.part.0+0x70>
    1fae:	c7 47 54 00 10 00 00 	movl   $0x1000,0x54(%rdi)
    1fb5:	e9 86 fe ff ff       	jmp    1e40 <_ZN9CCounters18GetProcessorFamilyEv.part.0+0x70>
    1fba:	c7 47 54 00 00 04 00 	movl   $0x40000,0x54(%rdi)
    1fc1:	e9 7a fe ff ff       	jmp    1e40 <_ZN9CCounters18GetProcessorFamilyEv.part.0+0x70>
    1fc6:	c7 47 54 00 00 00 00 	movl   $0x0,0x54(%rdi)
    1fcd:	e9 6e fe ff ff       	jmp    1e40 <_ZN9CCounters18GetProcessorFamilyEv.part.0+0x70>
    1fd2:	66 66 2e 0f 1f 84 00 	data16 cs nopw 0x0(%rax,%rax,1)
    1fd9:	00 00 00 00 
    1fdd:	0f 1f 00             	nopl   (%rax)

0000000000001fe0 <_ZN9CCounters13StartCountersEi.part.0>:
    1fe0:	48 63 f6             	movslq %esi,%rsi
    1fe3:	48 69 f6 18 02 00 00 	imul   $0x218,%rsi,%rsi
    1fea:	48 8d 54 37 60       	lea    0x60(%rdi,%rsi,1),%rdx
    1fef:	8b 82 10 02 00 00    	mov    0x210(%rdx),%eax
    1ff5:	c1 e0 04             	shl    $0x4,%eax
    1ff8:	85 c0                	test   %eax,%eax
    1ffa:	7e 14                	jle    2010 <_ZN9CCounters13StartCountersEi.part.0+0x30>
    1ffc:	8b 7f 08             	mov    0x8(%rdi),%edi
    1fff:	85 ff                	test   %edi,%edi
    2001:	74 0d                	je     2010 <_ZN9CCounters13StartCountersEi.part.0+0x30>
    2003:	be 01 f9 00 00       	mov    $0xf901,%esi
    2008:	31 c0                	xor    %eax,%eax
    200a:	e9 e1 f0 ff ff       	jmp    10f0 <ioctl@plt>
    200f:	90                   	nop
    2010:	c3                   	ret    
    2011:	66 66 2e 0f 1f 84 00 	data16 cs nopw 0x0(%rax,%rax,1)
    2018:	00 00 00 00 
    201c:	0f 1f 40 00          	nopl   0x0(%rax)

0000000000002020 <_Z11ThreadProc1Pv>:
    2020:	f3 0f 1e fa          	endbr64 
    2024:	41 55                	push   %r13
    2026:	41 54                	push   %r12
    2028:	55                   	push   %rbp
    2029:	53                   	push   %rbx
    202a:	48 81 ec 98 00 00 00 	sub    $0x98,%rsp
    2031:	44 8b 27             	mov    (%rdi),%r12d
    2034:	64 48 8b 04 25 28 00 	mov    %fs:0x28,%rax
    203b:	00 00 
    203d:	48 89 84 24 88 00 00 	mov    %rax,0x88(%rsp)
    2044:	00 
    2045:	31 c0                	xor    %eax,%eax
    2047:	44 39 25 8a b2 00 00 	cmp    %r12d,0xb28a(%rip)        # d2d8 <NumThreads>
    204e:	0f 86 6c 01 00 00    	jbe    21c0 <_Z11ThreadProc1Pv+0x1a0>
    2054:	48 8d 05 45 c0 81 00 	lea    0x81c045(%rip),%rax        # 81e0a0 <ProcNum>
    205b:	44 89 e3             	mov    %r12d,%ebx
    205e:	48 89 e5             	mov    %rsp,%rbp
    2061:	b9 10 00 00 00       	mov    $0x10,%ecx
    2066:	44 8b 2c 98          	mov    (%rax,%rbx,4),%r13d
    206a:	48 89 ef             	mov    %rbp,%rdi
    206d:	31 c0                	xor    %eax,%eax
    206f:	f3 48 ab             	rep stos %rax,%es:(%rdi)
    2072:	49 63 c5             	movslq %r13d,%rax
    2075:	48 3d ff 03 00 00    	cmp    $0x3ff,%rax
    207b:	77 14                	ja     2091 <_Z11ThreadProc1Pv+0x71>
    207d:	48 c1 e8 06          	shr    $0x6,%rax
    2081:	ba 01 00 00 00       	mov    $0x1,%edx
    2086:	44 89 e9             	mov    %r13d,%ecx
    2089:	48 d3 e2             	shl    %cl,%rdx
    208c:	48 09 54 c5 00       	or     %rdx,0x0(%rbp,%rax,8)
    2091:	e8 1a f0 ff ff       	call   10b0 <gettid@plt>
    2096:	48 89 ea             	mov    %rbp,%rdx
    2099:	be 80 00 00 00       	mov    $0x80,%esi
    209e:	89 c7                	mov    %eax,%edi
    20a0:	e8 eb ef ff ff       	call   1090 <sched_setaffinity@plt>
    20a5:	85 c0                	test   %eax,%eax
    20a7:	0f 85 e3 00 00 00    	jne    2190 <_Z11ThreadProc1Pv+0x170>
    20ad:	8b 15 1d b2 00 00    	mov    0xb21d(%rip),%edx        # d2d0 <UsePMC>
    20b3:	85 d2                	test   %edx,%edx
    20b5:	0f 85 bd 00 00 00    	jne    2178 <_Z11ThreadProc1Pv+0x158>
    20bb:	e8 40 f0 ff ff       	call   1100 <sched_yield@plt>
    20c0:	8b 05 12 b2 00 00    	mov    0xb212(%rip),%eax        # d2d8 <NumThreads>
    20c6:	48 c7 04 24 00 00 00 	movq   $0x0,(%rsp)
    20cd:	00 
    20ce:	85 c0                	test   %eax,%eax
    20d0:	0f 8e 0a 01 00 00    	jle    21e0 <_Z11ThreadProc1Pv+0x1c0>
    20d6:	83 e8 01             	sub    $0x1,%eax
    20d9:	48 89 ef             	mov    %rbp,%rdi
    20dc:	48 8d 44 04 01       	lea    0x1(%rsp,%rax,1),%rax
    20e1:	0f 1f 80 00 00 00 00 	nopl   0x0(%rax)
    20e8:	c6 07 01             	movb   $0x1,(%rdi)
    20eb:	48 83 c7 01          	add    $0x1,%rdi
    20ef:	48 39 c7             	cmp    %rax,%rdi
    20f2:	75 f4                	jne    20e8 <_Z11ThreadProc1Pv+0xc8>
    20f4:	48 8b 14 24          	mov    (%rsp),%rdx
    20f8:	48 8d 05 c1 c0 81 00 	lea    0x81c0c1(%rip),%rax        # 81e1c0 <TSync>
    20ff:	c6 04 18 01          	movb   $0x1,(%rax,%rbx,1)
    2103:	0f 1f 44 00 00       	nopl   0x0(%rax,%rax,1)
    2108:	48 8b 05 b1 c0 81 00 	mov    0x81c0b1(%rip),%rax        # 81e1c0 <TSync>
    210f:	48 39 d0             	cmp    %rdx,%rax
    2112:	75 f4                	jne    2108 <_Z11ThreadProc1Pv+0xe8>
    2114:	44 89 e7             	mov    %r12d,%edi
    2117:	e8 44 21 00 00       	call   4260 <TestLoop>
    211c:	89 05 36 bf 81 00    	mov    %eax,0x81bf36(%rip)        # 81e058 <repetitions>
    2122:	e8 d9 ef ff ff       	call   1100 <sched_yield@plt>
    2127:	8b 05 a3 b1 00 00    	mov    0xb1a3(%rip),%eax        # d2d0 <UsePMC>
    212d:	85 c0                	test   %eax,%eax
    212f:	75 2f                	jne    2160 <_Z11ThreadProc1Pv+0x140>
    2131:	48 8b 84 24 88 00 00 	mov    0x88(%rsp),%rax
    2138:	00 
    2139:	64 48 33 04 25 28 00 	xor    %fs:0x28,%rax
    2140:	00 00 
    2142:	0f 85 9f 00 00 00    	jne    21e7 <_Z11ThreadProc1Pv+0x1c7>
    2148:	48 81 c4 98 00 00 00 	add    $0x98,%rsp
    214f:	31 c0                	xor    %eax,%eax
    2151:	5b                   	pop    %rbx
    2152:	5d                   	pop    %rbp
    2153:	41 5c                	pop    %r12
    2155:	41 5d                	pop    %r13
    2157:	c3                   	ret    
    2158:	0f 1f 84 00 00 00 00 	nopl   0x0(%rax,%rax,1)
    215f:	00 
    2160:	44 89 e6             	mov    %r12d,%esi
    2163:	48 8d 3d 76 b2 80 00 	lea    0x80b276(%rip),%rdi        # 80d3e0 <MSRCounters>
    216a:	e8 21 fc ff ff       	call   1d90 <_ZN9CCounters12StopCountersEi.part.0>
    216f:	eb c0                	jmp    2131 <_Z11ThreadProc1Pv+0x111>
    2171:	0f 1f 80 00 00 00 00 	nopl   0x0(%rax)
    2178:	44 89 e6             	mov    %r12d,%esi
    217b:	48 8d 3d 5e b2 80 00 	lea    0x80b25e(%rip),%rdi        # 80d3e0 <MSRCounters>
    2182:	e8 59 fe ff ff       	call   1fe0 <_ZN9CCounters13StartCountersEi.part.0>
    2187:	e9 2f ff ff ff       	jmp    20bb <_Z11ThreadProc1Pv+0x9b>
    218c:	0f 1f 40 00          	nopl   0x0(%rax)
    2190:	44 89 ea             	mov    %r13d,%edx
    2193:	48 8d 35 d6 2e 00 00 	lea    0x2ed6(%rip),%rsi        # 5070 <_IO_stdin_used+0x70>
    219a:	bf 01 00 00 00       	mov    $0x1,%edi
    219f:	31 c0                	xor    %eax,%eax
    21a1:	e8 8a ee ff ff       	call   1030 <__printf_chk@plt>
    21a6:	8b 15 24 b1 00 00    	mov    0xb124(%rip),%edx        # d2d0 <UsePMC>
    21ac:	85 d2                	test   %edx,%edx
    21ae:	0f 84 07 ff ff ff    	je     20bb <_Z11ThreadProc1Pv+0x9b>
    21b4:	eb c2                	jmp    2178 <_Z11ThreadProc1Pv+0x158>
    21b6:	66 2e 0f 1f 84 00 00 	cs nopw 0x0(%rax,%rax,1)
    21bd:	00 00 00 
    21c0:	44 89 e2             	mov    %r12d,%edx
    21c3:	48 8d 35 86 2e 00 00 	lea    0x2e86(%rip),%rsi        # 5050 <_IO_stdin_used+0x50>
    21ca:	bf 01 00 00 00       	mov    $0x1,%edi
    21cf:	e8 5c ee ff ff       	call   1030 <__printf_chk@plt>
    21d4:	e9 58 ff ff ff       	jmp    2131 <_Z11ThreadProc1Pv+0x111>
    21d9:	0f 1f 80 00 00 00 00 	nopl   0x0(%rax)
    21e0:	31 d2                	xor    %edx,%edx
    21e2:	e9 11 ff ff ff       	jmp    20f8 <_Z11ThreadProc1Pv+0xd8>
    21e7:	e8 d4 ee ff ff       	call   10c0 <__stack_chk_fail@plt>
    21ec:	0f 1f 40 00          	nopl   0x0(%rax)

00000000000021f0 <_ZN12CMSRInOutQueC1Ev>:
    21f0:	f3 0f 1e fa          	endbr64 
    21f4:	c7 87 10 02 00 00 00 	movl   $0x0,0x210(%rdi)
    21fb:	00 00 00 
    21fe:	48 8d 87 10 02 00 00 	lea    0x210(%rdi),%rax
    2205:	0f 1f 00             	nopl   (%rax)
    2208:	c7 07 01 00 00 00    	movl   $0x1,(%rdi)
    220e:	48 83 c7 10          	add    $0x10,%rdi
    2212:	48 39 c7             	cmp    %rax,%rdi
    2215:	75 f1                	jne    2208 <_ZN12CMSRInOutQueC1Ev+0x18>
    2217:	c3                   	ret    
    2218:	0f 1f 84 00 00 00 00 	nopl   0x0(%rax,%rax,1)
    221f:	00 

0000000000002220 <_ZN12CMSRInOutQue3putE12EMSR_COMMANDjjj>:
    2220:	f3 0f 1e fa          	endbr64 
    2224:	44 8b 8f 10 02 00 00 	mov    0x210(%rdi),%r9d
    222b:	41 83 f9 1f          	cmp    $0x1f,%r9d
    222f:	7f 27                	jg     2258 <_ZN12CMSRInOutQue3putE12EMSR_COMMANDjjj+0x38>
    2231:	49 63 c1             	movslq %r9d,%rax
    2234:	41 83 c1 01          	add    $0x1,%r9d
    2238:	48 c1 e0 04          	shl    $0x4,%rax
    223c:	48 01 f8             	add    %rdi,%rax
    223f:	89 30                	mov    %esi,(%rax)
    2241:	89 50 04             	mov    %edx,0x4(%rax)
    2244:	89 48 08             	mov    %ecx,0x8(%rax)
    2247:	44 89 40 0c          	mov    %r8d,0xc(%rax)
    224b:	31 c0                	xor    %eax,%eax
    224d:	44 89 8f 10 02 00 00 	mov    %r9d,0x210(%rdi)
    2254:	c3                   	ret    
    2255:	0f 1f 00             	nopl   (%rax)
    2258:	b8 f6 ff ff ff       	mov    $0xfffffff6,%eax
    225d:	c3                   	ret    
    225e:	66 90                	xchg   %ax,%ax

0000000000002260 <_ZN9CCountersC1Ev>:
    2260:	f3 0f 1e fa          	endbr64 
    2264:	48 8d 05 e9 2f 00 00 	lea    0x2fe9(%rip),%rax        # 5254 <_IO_stdin_used+0x254>
    226b:	c7 47 08 00 00 00 00 	movl   $0x0,0x8(%rdi)
    2272:	48 8d 4f 60          	lea    0x60(%rdi),%rcx
    2276:	48 89 07             	mov    %rax,(%rdi)
    2279:	48 8d 97 70 02 00 00 	lea    0x270(%rdi),%rdx
    2280:	48 8d b7 60 86 00 00 	lea    0x8660(%rdi),%rsi
    2287:	66 0f 1f 84 00 00 00 	nopw   0x0(%rax,%rax,1)
    228e:	00 00 
    2290:	c7 02 00 00 00 00    	movl   $0x0,(%rdx)
    2296:	48 89 c8             	mov    %rcx,%rax
    2299:	0f 1f 80 00 00 00 00 	nopl   0x0(%rax)
    22a0:	c7 00 01 00 00 00    	movl   $0x1,(%rax)
    22a6:	48 83 c0 10          	add    $0x10,%rax
    22aa:	48 39 d0             	cmp    %rdx,%rax
    22ad:	75 f1                	jne    22a0 <_ZN9CCountersC1Ev+0x40>
    22af:	48 81 c1 18 02 00 00 	add    $0x218,%rcx
    22b6:	48 8d 90 18 02 00 00 	lea    0x218(%rax),%rdx
    22bd:	48 39 f1             	cmp    %rsi,%rcx
    22c0:	75 ce                	jne    2290 <_ZN9CCountersC1Ev+0x30>
    22c2:	48 8d 97 70 88 00 00 	lea    0x8870(%rdi),%rdx
    22c9:	48 8d b7 60 0c 01 00 	lea    0x10c60(%rdi),%rsi
    22d0:	c7 02 00 00 00 00    	movl   $0x0,(%rdx)
    22d6:	48 89 c8             	mov    %rcx,%rax
    22d9:	0f 1f 80 00 00 00 00 	nopl   0x0(%rax)
    22e0:	c7 00 01 00 00 00    	movl   $0x1,(%rax)
    22e6:	48 83 c0 10          	add    $0x10,%rax
    22ea:	48 39 d0             	cmp    %rdx,%rax
    22ed:	75 f1                	jne    22e0 <_ZN9CCountersC1Ev+0x80>
    22ef:	48 81 c1 18 02 00 00 	add    $0x218,%rcx
    22f6:	48 8d 90 18 02 00 00 	lea    0x218(%rax),%rdx
    22fd:	48 39 ce             	cmp    %rcx,%rsi
    2300:	75 ce                	jne    22d0 <_ZN9CCountersC1Ev+0x70>
    2302:	c7 87 64 0c 01 00 00 	movl   $0x0,0x10c64(%rdi)
    2309:	00 00 00 
    230c:	48 c7 87 68 0c 01 00 	movq   $0x0,0x10c68(%rdi)
    2313:	00 00 00 00 
    2317:	48 c7 47 10 00 00 00 	movq   $0x0,0x10(%rdi)
    231e:	00 
    231f:	48 c7 47 18 00 00 00 	movq   $0x0,0x18(%rdi)
    2326:	00 
    2327:	48 c7 47 20 00 00 00 	movq   $0x0,0x20(%rdi)
    232e:	00 
    232f:	48 c7 47 28 00 00 00 	movq   $0x0,0x28(%rdi)
    2336:	00 
    2337:	48 c7 47 30 00 00 00 	movq   $0x0,0x30(%rdi)
    233e:	00 
    233f:	48 c7 47 38 00 00 00 	movq   $0x0,0x38(%rdi)
    2346:	00 
    2347:	48 c7 47 40 00 00 00 	movq   $0x0,0x40(%rdi)
    234e:	00 
    234f:	48 c7 47 48 00 00 00 	movq   $0x0,0x48(%rdi)
    2356:	00 
    2357:	48 c7 47 50 00 00 00 	movq   $0x0,0x50(%rdi)
    235e:	00 
    235f:	c7 47 58 00 00 00 00 	movl   $0x0,0x58(%rdi)
    2366:	c3                   	ret    
    2367:	90                   	nop
    2368:	0f 1f 84 00 00 00 00 	nopl   0x0(%rax,%rax,1)
    236f:	00 

0000000000002370 <_ZN9CCounters13LockProcessorEv>:
    2370:	f3 0f 1e fa          	endbr64 
    2374:	8b 05 5e af 00 00    	mov    0xaf5e(%rip),%eax        # d2d8 <NumThreads>
    237a:	85 c0                	test   %eax,%eax
    237c:	0f 8e 46 01 00 00    	jle    24c8 <_ZN9CCounters13LockProcessorEv+0x158>
    2382:	53                   	push   %rbx
    2383:	48 8d b7 70 02 00 00 	lea    0x270(%rdi),%rsi
    238a:	44 8d 58 ff          	lea    -0x1(%rax),%r11d
    238e:	45 31 c0             	xor    %r8d,%r8d
    2391:	4c 8d 15 08 bd 81 00 	lea    0x81bd08(%rip),%r10        # 81e0a0 <ProcNum>
    2398:	eb 09                	jmp    23a3 <_ZN9CCounters13LockProcessorEv+0x33>
    239a:	66 0f 1f 44 00 00    	nopw   0x0(%rax,%rax,1)
    23a0:	49 89 c0             	mov    %rax,%r8
    23a3:	43 8b 1c 82          	mov    (%r10,%r8,4),%ebx
    23a7:	49 63 c0             	movslq %r8d,%rax
    23aa:	85 db                	test   %ebx,%ebx
    23ac:	0f 88 f9 00 00 00    	js     24ab <_ZN9CCounters13LockProcessorEv+0x13b>
    23b2:	8b 16                	mov    (%rsi),%edx
    23b4:	83 fa 1f             	cmp    $0x1f,%edx
    23b7:	0f 8f 0c 01 00 00    	jg     24c9 <_ZN9CCounters13LockProcessorEv+0x159>
    23bd:	4c 69 c8 18 02 00 00 	imul   $0x218,%rax,%r9
    23c4:	48 63 ca             	movslq %edx,%rcx
    23c7:	83 c2 01             	add    $0x1,%edx
    23ca:	48 c1 e1 04          	shl    $0x4,%rcx
    23ce:	4c 01 c9             	add    %r9,%rcx
    23d1:	48 01 f9             	add    %rdi,%rcx
    23d4:	48 c7 41 60 09 00 00 	movq   $0x9,0x60(%rcx)
    23db:	00 
    23dc:	89 59 68             	mov    %ebx,0x68(%rcx)
    23df:	c7 41 6c 00 00 00 00 	movl   $0x0,0x6c(%rcx)
    23e6:	8b 8e 00 86 00 00    	mov    0x8600(%rsi),%ecx
    23ec:	89 16                	mov    %edx,(%rsi)
    23ee:	83 f9 1f             	cmp    $0x1f,%ecx
    23f1:	0f 8f e9 00 00 00    	jg     24e0 <_ZN9CCounters13LockProcessorEv+0x170>
    23f7:	4c 69 c8 18 02 00 00 	imul   $0x218,%rax,%r9
    23fe:	48 63 d1             	movslq %ecx,%rdx
    2401:	83 c1 01             	add    $0x1,%ecx
    2404:	48 c1 e2 04          	shl    $0x4,%rdx
    2408:	4c 01 ca             	add    %r9,%rdx
    240b:	48 01 fa             	add    %rdi,%rdx
    240e:	48 c7 82 60 86 00 00 	movq   $0x9,0x8660(%rdx)
    2415:	09 00 00 00 
    2419:	89 9a 68 86 00 00    	mov    %ebx,0x8668(%rdx)
    241f:	c7 82 6c 86 00 00 00 	movl   $0x0,0x866c(%rdx)
    2426:	00 00 00 
    2429:	8b 16                	mov    (%rsi),%edx
    242b:	89 8e 00 86 00 00    	mov    %ecx,0x8600(%rsi)
    2431:	83 fa 1f             	cmp    $0x1f,%edx
    2434:	7f 31                	jg     2467 <_ZN9CCounters13LockProcessorEv+0xf7>
    2436:	48 69 d8 18 02 00 00 	imul   $0x218,%rax,%rbx
    243d:	4c 63 ca             	movslq %edx,%r9
    2440:	83 c2 01             	add    $0x1,%edx
    2443:	49 c1 e1 04          	shl    $0x4,%r9
    2447:	49 01 d9             	add    %rbx,%r9
    244a:	49 01 f9             	add    %rdi,%r9
    244d:	49 c7 41 60 06 00 00 	movq   $0x6,0x60(%r9)
    2454:	00 
    2455:	41 c7 41 68 00 00 00 	movl   $0x0,0x68(%r9)
    245c:	00 
    245d:	41 c7 41 6c 00 00 00 	movl   $0x0,0x6c(%r9)
    2464:	00 
    2465:	89 16                	mov    %edx,(%rsi)
    2467:	83 f9 1f             	cmp    $0x1f,%ecx
    246a:	7f 3f                	jg     24ab <_ZN9CCounters13LockProcessorEv+0x13b>
    246c:	48 69 d0 18 02 00 00 	imul   $0x218,%rax,%rdx
    2473:	4c 63 c9             	movslq %ecx,%r9
    2476:	83 c1 01             	add    $0x1,%ecx
    2479:	4c 89 c8             	mov    %r9,%rax
    247c:	48 c1 e0 04          	shl    $0x4,%rax
    2480:	48 01 d0             	add    %rdx,%rax
    2483:	48 01 f8             	add    %rdi,%rax
    2486:	48 c7 80 60 86 00 00 	movq   $0x7,0x8660(%rax)
    248d:	07 00 00 00 
    2491:	c7 80 68 86 00 00 00 	movl   $0x0,0x8668(%rax)
    2498:	00 00 00 
    249b:	c7 80 6c 86 00 00 00 	movl   $0x0,0x866c(%rax)
    24a2:	00 00 00 
    24a5:	89 8e 00 86 00 00    	mov    %ecx,0x8600(%rsi)
    24ab:	49 8d 40 01          	lea    0x1(%r8),%rax
    24af:	48 81 c6 18 02 00 00 	add    $0x218,%rsi
    24b6:	4d 39 d8             	cmp    %r11,%r8
    24b9:	0f 85 e1 fe ff ff    	jne    23a0 <_ZN9CCounters13LockProcessorEv+0x30>
    24bf:	5b                   	pop    %rbx
    24c0:	c3                   	ret    
    24c1:	0f 1f 80 00 00 00 00 	nopl   0x0(%rax)
    24c8:	c3                   	ret    
    24c9:	8b 8e 00 86 00 00    	mov    0x8600(%rsi),%ecx
    24cf:	83 f9 1f             	cmp    $0x1f,%ecx
    24d2:	0f 8e 1f ff ff ff    	jle    23f7 <_ZN9CCounters13LockProcessorEv+0x87>
    24d8:	eb d1                	jmp    24ab <_ZN9CCounters13LockProcessorEv+0x13b>
    24da:	66 0f 1f 44 00 00    	nopw   0x0(%rax,%rax,1)
    24e0:	83 fa 1f             	cmp    $0x1f,%edx
    24e3:	0f 8e 4d ff ff ff    	jle    2436 <_ZN9CCounters13LockProcessorEv+0xc6>
    24e9:	eb c0                	jmp    24ab <_ZN9CCounters13LockProcessorEv+0x13b>
    24eb:	90                   	nop
    24ec:	0f 1f 40 00          	nopl   0x0(%rax)

00000000000024f0 <_ZN9CCounters11StartDriverEv>:
    24f0:	f3 0f 1e fa          	endbr64 
    24f4:	8b 05 d6 ad 00 00    	mov    0xadd6(%rip),%eax        # d2d0 <UsePMC>
    24fa:	85 c0                	test   %eax,%eax
    24fc:	75 0a                	jne    2508 <_ZN9CCounters11StartDriverEv+0x18>
    24fe:	31 c0                	xor    %eax,%eax
    2500:	c3                   	ret    
    2501:	0f 1f 80 00 00 00 00 	nopl   0x0(%rax)
    2508:	e9 33 f8 ff ff       	jmp    1d40 <_ZN9CCounters11StartDriverEv.part.0>
    250d:	90                   	nop
    250e:	66 90                	xchg   %ax,%ax

0000000000002510 <_ZN9CCounters7CleanUpEv>:
    2510:	f3 0f 1e fa          	endbr64 
    2514:	41 57                	push   %r15
    2516:	41 56                	push   %r14
    2518:	41 55                	push   %r13
    251a:	41 54                	push   %r12
    251c:	55                   	push   %rbp
    251d:	8b 2d b5 ad 00 00    	mov    0xadb5(%rip),%ebp        # d2d8 <NumThreads>
    2523:	53                   	push   %rbx
    2524:	85 ed                	test   %ebp,%ebp
    2526:	0f 8e b4 00 00 00    	jle    25e0 <_ZN9CCounters7CleanUpEv+0xd0>
    252c:	44 8b 67 58          	mov    0x58(%rdi),%r12d
    2530:	49 89 fe             	mov    %rdi,%r14
    2533:	4c 8d 15 16 b1 80 00 	lea    0x80b116(%rip),%r10        # 80d650 <MSRCounters+0x270>
    253a:	31 f6                	xor    %esi,%esi
    253c:	f2 0f 10 0d 5c 32 00 	movsd  0x325c(%rip),%xmm1        # 57a0 <_ZZN9CCounters26GetP4EventSelectRegAddressEiiE17TranslationTables+0x80>
    2543:	00 
    2544:	4c 8d 2d 15 bb 81 00 	lea    0x81bb15(%rip),%r13        # 81e060 <clockFactor>
    254b:	eb 19                	jmp    2566 <_ZN9CCounters7CleanUpEv+0x56>
    254d:	0f 1f 00             	nopl   (%rax)
    2550:	f2 41 0f 11 4c f5 00 	movsd  %xmm1,0x0(%r13,%rsi,8)
    2557:	48 83 c6 01          	add    $0x1,%rsi
    255b:	49 81 c2 18 02 00 00 	add    $0x218,%r10
    2562:	39 f5                	cmp    %esi,%ebp
    2564:	7e 7a                	jle    25e0 <_ZN9CCounters7CleanUpEv+0xd0>
    2566:	41 89 f0             	mov    %esi,%r8d
    2569:	41 81 fc 00 20 00 00 	cmp    $0x2000,%r12d
    2570:	75 de                	jne    2550 <_ZN9CCounters7CleanUpEv+0x40>
    2572:	45 8b 9a 00 86 00 00 	mov    0x8600(%r10),%r11d
    2579:	41 8b 9e 70 0c 01 00 	mov    0x10c70(%r14),%ebx
    2580:	45 85 db             	test   %r11d,%r11d
    2583:	0f 8e a9 01 00 00    	jle    2732 <_ZN9CCounters7CleanUpEv+0x222>
    2589:	49 8d 82 f4 fd ff ff 	lea    -0x20c(%r10),%rax
    2590:	31 c9                	xor    %ecx,%ecx
    2592:	48 89 c2             	mov    %rax,%rdx
    2595:	eb 15                	jmp    25ac <_ZN9CCounters7CleanUpEv+0x9c>
    2597:	66 0f 1f 84 00 00 00 	nopw   0x0(%rax,%rax,1)
    259e:	00 00 
    25a0:	83 c1 01             	add    $0x1,%ecx
    25a3:	48 83 c2 10          	add    $0x10,%rdx
    25a7:	44 39 d9             	cmp    %r11d,%ecx
    25aa:	74 44                	je     25f0 <_ZN9CCounters7CleanUpEv+0xe0>
    25ac:	83 ba fc 85 00 00 02 	cmpl   $0x2,0x85fc(%rdx)
    25b3:	75 eb                	jne    25a0 <_ZN9CCounters7CleanUpEv+0x90>
    25b5:	3b 1a                	cmp    (%rdx),%ebx
    25b7:	75 e7                	jne    25a0 <_ZN9CCounters7CleanUpEv+0x90>
    25b9:	49 63 d0             	movslq %r8d,%rdx
    25bc:	48 63 c9             	movslq %ecx,%rcx
    25bf:	48 8d 3d 1a ae 80 00 	lea    0x80ae1a(%rip),%rdi        # 80d3e0 <MSRCounters>
    25c6:	48 69 d2 18 02 00 00 	imul   $0x218,%rdx,%rdx
    25cd:	48 c1 e1 04          	shl    $0x4,%rcx
    25d1:	48 01 ca             	add    %rcx,%rdx
    25d4:	4c 8b 8c 17 68 86 00 	mov    0x8668(%rdi,%rdx,1),%r9
    25db:	00 
    25dc:	eb 15                	jmp    25f3 <_ZN9CCounters7CleanUpEv+0xe3>
    25de:	66 90                	xchg   %ax,%ax
    25e0:	5b                   	pop    %rbx
    25e1:	5d                   	pop    %rbp
    25e2:	41 5c                	pop    %r12
    25e4:	41 5d                	pop    %r13
    25e6:	41 5e                	pop    %r14
    25e8:	41 5f                	pop    %r15
    25ea:	c3                   	ret    
    25eb:	0f 1f 44 00 00       	nopl   0x0(%rax,%rax,1)
    25f0:	45 31 c9             	xor    %r9d,%r9d
    25f3:	41 8b 0a             	mov    (%r10),%ecx
    25f6:	41 8b be 74 0c 01 00 	mov    0x10c74(%r14),%edi
    25fd:	85 c9                	test   %ecx,%ecx
    25ff:	7e 56                	jle    2657 <_ZN9CCounters7CleanUpEv+0x147>
    2601:	49 8d 92 f0 fd ff ff 	lea    -0x210(%r10),%rdx
    2608:	45 31 ff             	xor    %r15d,%r15d
    260b:	48 89 d0             	mov    %rdx,%rax
    260e:	eb 11                	jmp    2621 <_ZN9CCounters7CleanUpEv+0x111>
    2610:	41 83 c7 01          	add    $0x1,%r15d
    2614:	48 83 c0 10          	add    $0x10,%rax
    2618:	41 39 cf             	cmp    %ecx,%r15d
    261b:	0f 84 7f 00 00 00    	je     26a0 <_ZN9CCounters7CleanUpEv+0x190>
    2621:	83 38 02             	cmpl   $0x2,(%rax)
    2624:	75 ea                	jne    2610 <_ZN9CCounters7CleanUpEv+0x100>
    2626:	3b 58 04             	cmp    0x4(%rax),%ebx
    2629:	75 e5                	jne    2610 <_ZN9CCounters7CleanUpEv+0x100>
    262b:	49 63 c0             	movslq %r8d,%rax
    262e:	4d 63 ff             	movslq %r15d,%r15
    2631:	48 69 c0 18 02 00 00 	imul   $0x218,%rax,%rax
    2638:	49 c1 e7 04          	shl    $0x4,%r15
    263c:	49 01 c7             	add    %rax,%r15
    263f:	48 8d 05 9a ad 80 00 	lea    0x80ad9a(%rip),%rax        # 80d3e0 <MSRCounters>
    2646:	4e 2b 4c 38 68       	sub    0x68(%rax,%r15,1),%r9
    264b:	49 8d 82 f4 fd ff ff 	lea    -0x20c(%r10),%rax
    2652:	45 85 db             	test   %r11d,%r11d
    2655:	7e 55                	jle    26ac <_ZN9CCounters7CleanUpEv+0x19c>
    2657:	31 d2                	xor    %edx,%edx
    2659:	eb 11                	jmp    266c <_ZN9CCounters7CleanUpEv+0x15c>
    265b:	0f 1f 44 00 00       	nopl   0x0(%rax,%rax,1)
    2660:	83 c2 01             	add    $0x1,%edx
    2663:	48 83 c0 10          	add    $0x10,%rax
    2667:	44 39 da             	cmp    %r11d,%edx
    266a:	7d 4c                	jge    26b8 <_ZN9CCounters7CleanUpEv+0x1a8>
    266c:	83 b8 fc 85 00 00 02 	cmpl   $0x2,0x85fc(%rax)
    2673:	75 eb                	jne    2660 <_ZN9CCounters7CleanUpEv+0x150>
    2675:	3b 38                	cmp    (%rax),%edi
    2677:	75 e7                	jne    2660 <_ZN9CCounters7CleanUpEv+0x150>
    2679:	49 63 c0             	movslq %r8d,%rax
    267c:	48 63 d2             	movslq %edx,%rdx
    267f:	48 8d 1d 5a ad 80 00 	lea    0x80ad5a(%rip),%rbx        # 80d3e0 <MSRCounters>
    2686:	48 69 c0 18 02 00 00 	imul   $0x218,%rax,%rax
    268d:	48 c1 e2 04          	shl    $0x4,%rdx
    2691:	48 01 d0             	add    %rdx,%rax
    2694:	4c 8b 9c 03 68 86 00 	mov    0x8668(%rbx,%rax,1),%r11
    269b:	00 
    269c:	eb 1d                	jmp    26bb <_ZN9CCounters7CleanUpEv+0x1ab>
    269e:	66 90                	xchg   %ax,%ax
    26a0:	49 8d 82 f4 fd ff ff 	lea    -0x20c(%r10),%rax
    26a7:	45 85 db             	test   %r11d,%r11d
    26aa:	7f ab                	jg     2657 <_ZN9CCounters7CleanUpEv+0x147>
    26ac:	45 31 db             	xor    %r11d,%r11d
    26af:	eb 15                	jmp    26c6 <_ZN9CCounters7CleanUpEv+0x1b6>
    26b1:	0f 1f 80 00 00 00 00 	nopl   0x0(%rax)
    26b8:	45 31 db             	xor    %r11d,%r11d
    26bb:	85 c9                	test   %ecx,%ecx
    26bd:	7e 51                	jle    2710 <_ZN9CCounters7CleanUpEv+0x200>
    26bf:	49 8d 92 f0 fd ff ff 	lea    -0x210(%r10),%rdx
    26c6:	48 89 d0             	mov    %rdx,%rax
    26c9:	31 d2                	xor    %edx,%edx
    26cb:	eb 0e                	jmp    26db <_ZN9CCounters7CleanUpEv+0x1cb>
    26cd:	0f 1f 00             	nopl   (%rax)
    26d0:	83 c2 01             	add    $0x1,%edx
    26d3:	48 83 c0 10          	add    $0x10,%rax
    26d7:	39 ca                	cmp    %ecx,%edx
    26d9:	7d 35                	jge    2710 <_ZN9CCounters7CleanUpEv+0x200>
    26db:	83 38 02             	cmpl   $0x2,(%rax)
    26de:	75 f0                	jne    26d0 <_ZN9CCounters7CleanUpEv+0x1c0>
    26e0:	3b 78 04             	cmp    0x4(%rax),%edi
    26e3:	75 eb                	jne    26d0 <_ZN9CCounters7CleanUpEv+0x1c0>
    26e5:	49 63 c0             	movslq %r8d,%rax
    26e8:	48 63 d2             	movslq %edx,%rdx
    26eb:	48 8d 1d ee ac 80 00 	lea    0x80acee(%rip),%rbx        # 80d3e0 <MSRCounters>
    26f2:	48 69 c0 18 02 00 00 	imul   $0x218,%rax,%rax
    26f9:	48 c1 e2 04          	shl    $0x4,%rdx
    26fd:	66 0f ef c0          	pxor   %xmm0,%xmm0
    2701:	48 01 d0             	add    %rdx,%rax
    2704:	4c 2b 5c 03 68       	sub    0x68(%rbx,%rax,1),%r11
    2709:	f2 49 0f 2a c3       	cvtsi2sd %r11,%xmm0
    270e:	eb 09                	jmp    2719 <_ZN9CCounters7CleanUpEv+0x209>
    2710:	66 0f ef c0          	pxor   %xmm0,%xmm0
    2714:	f2 49 0f 2a c3       	cvtsi2sd %r11,%xmm0
    2719:	66 0f ef d2          	pxor   %xmm2,%xmm2
    271d:	f2 49 0f 2a d1       	cvtsi2sd %r9,%xmm2
    2722:	f2 0f 5e c2          	divsd  %xmm2,%xmm0
    2726:	f2 41 0f 11 44 f5 00 	movsd  %xmm0,0x0(%r13,%rsi,8)
    272d:	e9 25 fe ff ff       	jmp    2557 <_ZN9CCounters7CleanUpEv+0x47>
    2732:	41 8b 0a             	mov    (%r10),%ecx
    2735:	41 8b be 74 0c 01 00 	mov    0x10c74(%r14),%edi
    273c:	45 31 c9             	xor    %r9d,%r9d
    273f:	66 0f ef c0          	pxor   %xmm0,%xmm0
    2743:	85 c9                	test   %ecx,%ecx
    2745:	0f 8f b6 fe ff ff    	jg     2601 <_ZN9CCounters7CleanUpEv+0xf1>
    274b:	eb cc                	jmp    2719 <_ZN9CCounters7CleanUpEv+0x209>
    274d:	90                   	nop
    274e:	66 90                	xchg   %ax,%ax

0000000000002750 <_ZN9CCounters4Put1Ei12EMSR_COMMANDjjj>:
    2750:	f3 0f 1e fa          	endbr64 
    2754:	85 f6                	test   %esi,%esi
    2756:	7e 58                	jle    27b0 <_ZN9CCounters4Put1Ei12EMSR_COMMANDjjj+0x60>
    2758:	55                   	push   %rbp
    2759:	48 8d af 70 02 00 00 	lea    0x270(%rdi),%rbp
    2760:	53                   	push   %rbx
    2761:	31 db                	xor    %ebx,%ebx
    2763:	0f 1f 44 00 00       	nopl   0x0(%rax,%rax,1)
    2768:	44 8b 55 00          	mov    0x0(%rbp),%r10d
    276c:	41 83 fa 1f          	cmp    $0x1f,%r10d
    2770:	7f 2d                	jg     279f <_ZN9CCounters4Put1Ei12EMSR_COMMANDjjj+0x4f>
    2772:	4c 63 db             	movslq %ebx,%r11
    2775:	49 63 c2             	movslq %r10d,%rax
    2778:	41 83 c2 01          	add    $0x1,%r10d
    277c:	4d 69 db 18 02 00 00 	imul   $0x218,%r11,%r11
    2783:	48 c1 e0 04          	shl    $0x4,%rax
    2787:	4c 01 d8             	add    %r11,%rax
    278a:	48 01 f8             	add    %rdi,%rax
    278d:	89 50 60             	mov    %edx,0x60(%rax)
    2790:	89 48 64             	mov    %ecx,0x64(%rax)
    2793:	44 89 40 68          	mov    %r8d,0x68(%rax)
    2797:	44 89 48 6c          	mov    %r9d,0x6c(%rax)
    279b:	44 89 55 00          	mov    %r10d,0x0(%rbp)
    279f:	83 c3 01             	add    $0x1,%ebx
    27a2:	48 81 c5 18 02 00 00 	add    $0x218,%rbp
    27a9:	39 de                	cmp    %ebx,%esi
    27ab:	75 bb                	jne    2768 <_ZN9CCounters4Put1Ei12EMSR_COMMANDjjj+0x18>
    27ad:	5b                   	pop    %rbx
    27ae:	5d                   	pop    %rbp
    27af:	c3                   	ret    
    27b0:	c3                   	ret    
    27b1:	90                   	nop
    27b2:	66 66 2e 0f 1f 84 00 	data16 cs nopw 0x0(%rax,%rax,1)
    27b9:	00 00 00 00 
    27bd:	0f 1f 00             	nopl   (%rax)

00000000000027c0 <_ZN9CCounters4Put2Ei12EMSR_COMMANDjjj>:
    27c0:	f3 0f 1e fa          	endbr64 
    27c4:	85 f6                	test   %esi,%esi
    27c6:	7e 68                	jle    2830 <_ZN9CCounters4Put2Ei12EMSR_COMMANDjjj+0x70>
    27c8:	55                   	push   %rbp
    27c9:	48 8d af 70 88 00 00 	lea    0x8870(%rdi),%rbp
    27d0:	53                   	push   %rbx
    27d1:	31 db                	xor    %ebx,%ebx
    27d3:	0f 1f 44 00 00       	nopl   0x0(%rax,%rax,1)
    27d8:	44 8b 55 00          	mov    0x0(%rbp),%r10d
    27dc:	41 83 fa 1f          	cmp    $0x1f,%r10d
    27e0:	7f 39                	jg     281b <_ZN9CCounters4Put2Ei12EMSR_COMMANDjjj+0x5b>
    27e2:	4c 63 db             	movslq %ebx,%r11
    27e5:	49 63 c2             	movslq %r10d,%rax
    27e8:	41 83 c2 01          	add    $0x1,%r10d
    27ec:	4d 69 db 18 02 00 00 	imul   $0x218,%r11,%r11
    27f3:	48 c1 e0 04          	shl    $0x4,%rax
    27f7:	4c 01 d8             	add    %r11,%rax
    27fa:	48 01 f8             	add    %rdi,%rax
    27fd:	89 90 60 86 00 00    	mov    %edx,0x8660(%rax)
    2803:	89 88 64 86 00 00    	mov    %ecx,0x8664(%rax)
    2809:	44 89 80 68 86 00 00 	mov    %r8d,0x8668(%rax)
    2810:	44 89 88 6c 86 00 00 	mov    %r9d,0x866c(%rax)
    2817:	44 89 55 00          	mov    %r10d,0x0(%rbp)
    281b:	83 c3 01             	add    $0x1,%ebx
    281e:	48 81 c5 18 02 00 00 	add    $0x218,%rbp
    2825:	39 de                	cmp    %ebx,%esi
    2827:	75 af                	jne    27d8 <_ZN9CCounters4Put2Ei12EMSR_COMMANDjjj+0x18>
    2829:	5b                   	pop    %rbx
    282a:	5d                   	pop    %rbp
    282b:	c3                   	ret    
    282c:	0f 1f 40 00          	nopl   0x0(%rax)
    2830:	c3                   	ret    
    2831:	90                   	nop
    2832:	66 66 2e 0f 1f 84 00 	data16 cs nopw 0x0(%rax,%rax,1)
    2839:	00 00 00 00 
    283d:	0f 1f 00             	nopl   (%rax)

0000000000002840 <_ZN9CCounters5read1Eji>:
    2840:	f3 0f 1e fa          	endbr64 
    2844:	48 63 d2             	movslq %edx,%rdx
    2847:	48 69 c2 18 02 00 00 	imul   $0x218,%rdx,%rax
    284e:	48 8d 44 07 60       	lea    0x60(%rdi,%rax,1),%rax
    2853:	44 8b 80 10 02 00 00 	mov    0x210(%rax),%r8d
    285a:	45 85 c0             	test   %r8d,%r8d
    285d:	7e 39                	jle    2898 <_ZN9CCounters5read1Eji+0x58>
    285f:	31 c9                	xor    %ecx,%ecx
    2861:	eb 11                	jmp    2874 <_ZN9CCounters5read1Eji+0x34>
    2863:	0f 1f 44 00 00       	nopl   0x0(%rax,%rax,1)
    2868:	83 c1 01             	add    $0x1,%ecx
    286b:	48 83 c0 10          	add    $0x10,%rax
    286f:	44 39 c1             	cmp    %r8d,%ecx
    2872:	74 24                	je     2898 <_ZN9CCounters5read1Eji+0x58>
    2874:	83 38 02             	cmpl   $0x2,(%rax)
    2877:	75 ef                	jne    2868 <_ZN9CCounters5read1Eji+0x28>
    2879:	39 70 04             	cmp    %esi,0x4(%rax)
    287c:	75 ea                	jne    2868 <_ZN9CCounters5read1Eji+0x28>
    287e:	48 69 c2 18 02 00 00 	imul   $0x218,%rdx,%rax
    2885:	48 63 c9             	movslq %ecx,%rcx
    2888:	48 c1 e1 04          	shl    $0x4,%rcx
    288c:	48 01 c8             	add    %rcx,%rax
    288f:	48 8b 44 07 68       	mov    0x68(%rdi,%rax,1),%rax
    2894:	c3                   	ret    
    2895:	0f 1f 00             	nopl   (%rax)
    2898:	31 c0                	xor    %eax,%eax
    289a:	c3                   	ret    
    289b:	90                   	nop
    289c:	0f 1f 40 00          	nopl   0x0(%rax)

00000000000028a0 <_ZN9CCounters5read2Eji>:
    28a0:	f3 0f 1e fa          	endbr64 
    28a4:	48 63 d2             	movslq %edx,%rdx
    28a7:	48 69 c2 18 02 00 00 	imul   $0x218,%rdx,%rax
    28ae:	44 8b 84 07 70 88 00 	mov    0x8870(%rdi,%rax,1),%r8d
    28b5:	00 
    28b6:	45 85 c0             	test   %r8d,%r8d
    28b9:	7e 45                	jle    2900 <_ZN9CCounters5read2Eji+0x60>
    28bb:	48 8d 44 07 64       	lea    0x64(%rdi,%rax,1),%rax
    28c0:	31 c9                	xor    %ecx,%ecx
    28c2:	eb 10                	jmp    28d4 <_ZN9CCounters5read2Eji+0x34>
    28c4:	0f 1f 40 00          	nopl   0x0(%rax)
    28c8:	83 c1 01             	add    $0x1,%ecx
    28cb:	48 83 c0 10          	add    $0x10,%rax
    28cf:	44 39 c1             	cmp    %r8d,%ecx
    28d2:	74 2c                	je     2900 <_ZN9CCounters5read2Eji+0x60>
    28d4:	83 b8 fc 85 00 00 02 	cmpl   $0x2,0x85fc(%rax)
    28db:	75 eb                	jne    28c8 <_ZN9CCounters5read2Eji+0x28>
    28dd:	39 30                	cmp    %esi,(%rax)
    28df:	75 e7                	jne    28c8 <_ZN9CCounters5read2Eji+0x28>
    28e1:	48 69 c2 18 02 00 00 	imul   $0x218,%rdx,%rax
    28e8:	48 63 c9             	movslq %ecx,%rcx
    28eb:	48 c1 e1 04          	shl    $0x4,%rcx
    28ef:	48 01 c8             	add    %rcx,%rax
    28f2:	48 8b 84 07 68 86 00 	mov    0x8668(%rdi,%rax,1),%rax
    28f9:	00 
    28fa:	c3                   	ret    
    28fb:	0f 1f 44 00 00       	nopl   0x0(%rax,%rax,1)
    2900:	31 c0                	xor    %eax,%eax
    2902:	c3                   	ret    
    2903:	90                   	nop
    2904:	66 66 2e 0f 1f 84 00 	data16 cs nopw 0x0(%rax,%rax,1)
    290b:	00 00 00 00 
    290f:	90                   	nop

0000000000002910 <_ZN9CCounters13StartCountersEi>:
    2910:	f3 0f 1e fa          	endbr64 
    2914:	8b 05 b6 a9 00 00    	mov    0xa9b6(%rip),%eax        # d2d0 <UsePMC>
    291a:	85 c0                	test   %eax,%eax
    291c:	74 0a                	je     2928 <_ZN9CCounters13StartCountersEi+0x18>
    291e:	e9 bd f6 ff ff       	jmp    1fe0 <_ZN9CCounters13StartCountersEi.part.0>
    2923:	0f 1f 44 00 00       	nopl   0x0(%rax,%rax,1)
    2928:	c3                   	ret    
    2929:	90                   	nop
    292a:	66 0f 1f 44 00 00    	nopw   0x0(%rax,%rax,1)

0000000000002930 <_ZN9CCounters12StopCountersEi>:
    2930:	f3 0f 1e fa          	endbr64 
    2934:	8b 05 96 a9 00 00    	mov    0xa996(%rip),%eax        # d2d0 <UsePMC>
    293a:	85 c0                	test   %eax,%eax
    293c:	74 0a                	je     2948 <_ZN9CCounters12StopCountersEi+0x18>
    293e:	e9 4d f4 ff ff       	jmp    1d90 <_ZN9CCounters12StopCountersEi.part.0>
    2943:	0f 1f 44 00 00       	nopl   0x0(%rax,%rax,1)
    2948:	c3                   	ret    
    2949:	90                   	nop
    294a:	66 0f 1f 44 00 00    	nopw   0x0(%rax,%rax,1)

0000000000002950 <_ZN9CCounters18GetProcessorVendorEv>:
    2950:	f3 0f 1e fa          	endbr64 
    2954:	31 c0                	xor    %eax,%eax
    2956:	53                   	push   %rbx
    2957:	89 c1                	mov    %eax,%ecx
    2959:	0f a2                	cpuid  
    295b:	81 f9 6e 74 65 6c    	cmp    $0x6c65746e,%ecx
    2961:	74 2d                	je     2990 <_ZN9CCounters18GetProcessorVendorEv+0x40>
    2963:	31 c0                	xor    %eax,%eax
    2965:	81 f9 63 41 4d 44    	cmp    $0x444d4163,%ecx
    296b:	0f 94 c0             	sete   %al
    296e:	01 c0                	add    %eax,%eax
    2970:	89 47 50             	mov    %eax,0x50(%rdi)
    2973:	81 fb 43 65 6e 74    	cmp    $0x746e6543,%ebx
    2979:	75 07                	jne    2982 <_ZN9CCounters18GetProcessorVendorEv+0x32>
    297b:	c7 47 50 03 00 00 00 	movl   $0x3,0x50(%rdi)
    2982:	8b 05 40 b8 81 00    	mov    0x81b840(%rip),%eax        # 81e1c8 <diagnostics>
    2988:	85 c0                	test   %eax,%eax
    298a:	75 14                	jne    29a0 <_ZN9CCounters18GetProcessorVendorEv+0x50>
    298c:	5b                   	pop    %rbx
    298d:	c3                   	ret    
    298e:	66 90                	xchg   %ax,%ax
    2990:	c7 47 50 01 00 00 00 	movl   $0x1,0x50(%rdi)
    2997:	eb da                	jmp    2973 <_ZN9CCounters18GetProcessorVendorEv+0x23>
    2999:	0f 1f 80 00 00 00 00 	nopl   0x0(%rax)
    29a0:	8b 57 50             	mov    0x50(%rdi),%edx
    29a3:	48 8d 35 b6 28 00 00 	lea    0x28b6(%rip),%rsi        # 5260 <_IO_stdin_used+0x260>
    29aa:	bf 01 00 00 00       	mov    $0x1,%edi
    29af:	5b                   	pop    %rbx
    29b0:	31 c0                	xor    %eax,%eax
    29b2:	e9 79 e6 ff ff       	jmp    1030 <__printf_chk@plt>
    29b7:	90                   	nop
    29b8:	0f 1f 84 00 00 00 00 	nopl   0x0(%rax,%rax,1)
    29bf:	00 

00000000000029c0 <_ZN9CCounters18GetProcessorFamilyEv>:
    29c0:	f3 0f 1e fa          	endbr64 
    29c4:	31 c9                	xor    %ecx,%ecx
    29c6:	53                   	push   %rbx
    29c7:	89 c8                	mov    %ecx,%eax
    29c9:	c7 47 54 00 00 00 00 	movl   $0x0,0x54(%rdi)
    29d0:	0f a2                	cpuid  
    29d2:	85 c0                	test   %eax,%eax
    29d4:	74 0a                	je     29e0 <_ZN9CCounters18GetProcessorFamilyEv+0x20>
    29d6:	5b                   	pop    %rbx
    29d7:	e9 f4 f3 ff ff       	jmp    1dd0 <_ZN9CCounters18GetProcessorFamilyEv.part.0>
    29dc:	0f 1f 40 00          	nopl   0x0(%rax)
    29e0:	5b                   	pop    %rbx
    29e1:	c3                   	ret    
    29e2:	66 66 2e 0f 1f 84 00 	data16 cs nopw 0x0(%rax,%rax,1)
    29e9:	00 00 00 00 
    29ed:	0f 1f 00             	nopl   (%rax)

00000000000029f0 <_ZN9CCounters12GetPMCSchemeEv>:
    29f0:	f3 0f 1e fa          	endbr64 
    29f4:	55                   	push   %rbp
    29f5:	48 89 fd             	mov    %rdi,%rbp
    29f8:	53                   	push   %rbx
    29f9:	48 83 ec 08          	sub    $0x8,%rsp
    29fd:	8b 47 50             	mov    0x50(%rdi),%eax
    2a00:	c7 47 58 00 00 00 00 	movl   $0x0,0x58(%rdi)
    2a07:	48 c7 87 64 0c 01 00 	movq   $0x2,0x10c64(%rdi)
    2a0e:	02 00 00 00 
    2a12:	83 f8 02             	cmp    $0x2,%eax
    2a15:	0f 84 f5 00 00 00    	je     2b10 <_ZN9CCounters12GetPMCSchemeEv+0x120>
    2a1b:	83 f8 03             	cmp    $0x3,%eax
    2a1e:	75 38                	jne    2a58 <_ZN9CCounters12GetPMCSchemeEv+0x68>
    2a20:	c7 47 58 00 00 10 00 	movl   $0x100000,0x58(%rdi)
    2a27:	8b 05 9b b7 81 00    	mov    0x81b79b(%rip),%eax        # 81e1c8 <diagnostics>
    2a2d:	85 c0                	test   %eax,%eax
    2a2f:	0f 84 cb 00 00 00    	je     2b00 <_ZN9CCounters12GetPMCSchemeEv+0x110>
    2a35:	8b 55 58             	mov    0x58(%rbp),%edx
    2a38:	48 83 c4 08          	add    $0x8,%rsp
    2a3c:	48 8d 35 48 28 00 00 	lea    0x2848(%rip),%rsi        # 528b <_IO_stdin_used+0x28b>
    2a43:	31 c0                	xor    %eax,%eax
    2a45:	5b                   	pop    %rbx
    2a46:	bf 01 00 00 00       	mov    $0x1,%edi
    2a4b:	5d                   	pop    %rbp
    2a4c:	e9 df e5 ff ff       	jmp    1030 <__printf_chk@plt>
    2a51:	0f 1f 80 00 00 00 00 	nopl   0x0(%rax)
    2a58:	83 f8 01             	cmp    $0x1,%eax
    2a5b:	75 ca                	jne    2a27 <_ZN9CCounters12GetPMCSchemeEv+0x37>
    2a5d:	31 f6                	xor    %esi,%esi
    2a5f:	89 f0                	mov    %esi,%eax
    2a61:	89 f1                	mov    %esi,%ecx
    2a63:	0f a2                	cpuid  
    2a65:	83 f8 09             	cmp    $0x9,%eax
    2a68:	7e 66                	jle    2ad0 <_ZN9CCounters12GetPMCSchemeEv+0xe0>
    2a6a:	b8 0a 00 00 00       	mov    $0xa,%eax
    2a6f:	89 f1                	mov    %esi,%ecx
    2a71:	0f a2                	cpuid  
    2a73:	89 c1                	mov    %eax,%ecx
    2a75:	81 e1 ff 00 00 00    	and    $0xff,%ecx
    2a7b:	74 53                	je     2ad0 <_ZN9CCounters12GetPMCSchemeEv+0xe0>
    2a7d:	0f b6 c4             	movzbl %ah,%eax
    2a80:	83 e9 01             	sub    $0x1,%ecx
    2a83:	bf 20 00 00 00       	mov    $0x20,%edi
    2a88:	89 85 64 0c 01 00    	mov    %eax,0x10c64(%rbp)
    2a8e:	89 d0                	mov    %edx,%eax
    2a90:	d3 e7                	shl    %cl,%edi
    2a92:	8b 0d 30 b7 81 00    	mov    0x81b730(%rip),%ecx        # 81e1c8 <diagnostics>
    2a98:	83 e0 1f             	and    $0x1f,%eax
    2a9b:	89 7d 58             	mov    %edi,0x58(%rbp)
    2a9e:	89 85 68 0c 01 00    	mov    %eax,0x10c68(%rbp)
    2aa4:	85 ff                	test   %edi,%edi
    2aa6:	74 2e                	je     2ad6 <_ZN9CCounters12GetPMCSchemeEv+0xe6>
    2aa8:	85 c9                	test   %ecx,%ecx
    2aaa:	74 54                	je     2b00 <_ZN9CCounters12GetPMCSchemeEv+0x110>
    2aac:	8b 8d 68 0c 01 00    	mov    0x10c68(%rbp),%ecx
    2ab2:	8b 95 64 0c 01 00    	mov    0x10c64(%rbp),%edx
    2ab8:	48 8d 35 ae 27 00 00 	lea    0x27ae(%rip),%rsi        # 526d <_IO_stdin_used+0x26d>
    2abf:	31 c0                	xor    %eax,%eax
    2ac1:	bf 01 00 00 00       	mov    $0x1,%edi
    2ac6:	e8 65 e5 ff ff       	call   1030 <__printf_chk@plt>
    2acb:	e9 65 ff ff ff       	jmp    2a35 <_ZN9CCounters12GetPMCSchemeEv+0x45>
    2ad0:	8b 0d f2 b6 81 00    	mov    0x81b6f2(%rip),%ecx        # 81e1c8 <diagnostics>
    2ad6:	8b 45 54             	mov    0x54(%rbp),%eax
    2ad9:	83 f8 20             	cmp    $0x20,%eax
    2adc:	0f 87 96 00 00 00    	ja     2b78 <_ZN9CCounters12GetPMCSchemeEv+0x188>
    2ae2:	85 c0                	test   %eax,%eax
    2ae4:	74 16                	je     2afc <_ZN9CCounters12GetPMCSchemeEv+0x10c>
    2ae6:	83 f8 20             	cmp    $0x20,%eax
    2ae9:	77 11                	ja     2afc <_ZN9CCounters12GetPMCSchemeEv+0x10c>
    2aeb:	48 8d 15 76 2b 00 00 	lea    0x2b76(%rip),%rdx        # 5668 <_IO_stdin_used+0x668>
    2af2:	48 63 04 82          	movslq (%rdx,%rax,4),%rax
    2af6:	48 01 d0             	add    %rdx,%rax
    2af9:	3e ff e0             	notrack jmp *%rax
    2afc:	85 c9                	test   %ecx,%ecx
    2afe:	75 ac                	jne    2aac <_ZN9CCounters12GetPMCSchemeEv+0xbc>
    2b00:	48 83 c4 08          	add    $0x8,%rsp
    2b04:	5b                   	pop    %rbx
    2b05:	5d                   	pop    %rbp
    2b06:	c3                   	ret    
    2b07:	66 0f 1f 84 00 00 00 	nopw   0x0(%rax,%rax,1)
    2b0e:	00 00 
    2b10:	31 f6                	xor    %esi,%esi
    2b12:	b8 06 00 00 00       	mov    $0x6,%eax
    2b17:	c7 47 58 00 10 00 00 	movl   $0x1000,0x58(%rdi)
    2b1e:	c7 87 64 0c 01 00 04 	movl   $0x4,0x10c64(%rdi)
    2b25:	00 00 00 
    2b28:	89 f1                	mov    %esi,%ecx
    2b2a:	0f a2                	cpuid  
    2b2c:	83 e1 01             	and    $0x1,%ecx
    2b2f:	0f 84 f2 fe ff ff    	je     2a27 <_ZN9CCounters12GetPMCSchemeEv+0x37>
    2b35:	b8 01 00 00 80       	mov    $0x80000001,%eax
    2b3a:	89 f1                	mov    %esi,%ecx
    2b3c:	0f a2                	cpuid  
    2b3e:	81 e1 00 00 00 10    	and    $0x10000000,%ecx
    2b44:	0f 84 dd fe ff ff    	je     2a27 <_ZN9CCounters12GetPMCSchemeEv+0x37>
    2b4a:	48 b8 10 00 00 00 e8 	movabs $0xc00000e800000010,%rax
    2b51:	00 00 c0 
    2b54:	c7 47 58 00 20 00 00 	movl   $0x2000,0x58(%rdi)
    2b5b:	c7 87 64 0c 01 00 06 	movl   $0x6,0x10c64(%rdi)
    2b62:	00 00 00 
    2b65:	48 89 87 70 0c 01 00 	mov    %rax,0x10c70(%rdi)
    2b6c:	e9 b6 fe ff ff       	jmp    2a27 <_ZN9CCounters12GetPMCSchemeEv+0x37>
    2b71:	0f 1f 80 00 00 00 00 	nopl   0x0(%rax)
    2b78:	8d 90 00 f0 ff ff    	lea    -0x1000(%rax),%edx
    2b7e:	81 e2 ff ef ff ff    	and    $0xffffefff,%edx
    2b84:	74 09                	je     2b8f <_ZN9CCounters12GetPMCSchemeEv+0x19f>
    2b86:	83 f8 40             	cmp    $0x40,%eax
    2b89:	0f 85 6d ff ff ff    	jne    2afc <_ZN9CCounters12GetPMCSchemeEv+0x10c>
    2b8f:	c7 45 58 80 00 00 00 	movl   $0x80,0x58(%rbp)
    2b96:	e9 0d ff ff ff       	jmp    2aa8 <_ZN9CCounters12GetPMCSchemeEv+0xb8>
    2b9b:	c7 45 58 40 00 00 00 	movl   $0x40,0x58(%rbp)
    2ba2:	e9 01 ff ff ff       	jmp    2aa8 <_ZN9CCounters12GetPMCSchemeEv+0xb8>
    2ba7:	c7 45 58 20 00 00 00 	movl   $0x20,0x58(%rbp)
    2bae:	e9 f5 fe ff ff       	jmp    2aa8 <_ZN9CCounters12GetPMCSchemeEv+0xb8>
    2bb3:	c7 45 58 02 00 00 00 	movl   $0x2,0x58(%rbp)
    2bba:	e9 e9 fe ff ff       	jmp    2aa8 <_ZN9CCounters12GetPMCSchemeEv+0xb8>
    2bbf:	c7 45 58 10 00 00 00 	movl   $0x10,0x58(%rbp)
    2bc6:	e9 dd fe ff ff       	jmp    2aa8 <_ZN9CCounters12GetPMCSchemeEv+0xb8>
    2bcb:	c7 45 58 01 00 00 00 	movl   $0x1,0x58(%rbp)
    2bd2:	e9 d1 fe ff ff       	jmp    2aa8 <_ZN9CCounters12GetPMCSchemeEv+0xb8>
    2bd7:	90                   	nop
    2bd8:	0f 1f 84 00 00 00 00 	nopl   0x0(%rax,%rax,1)
    2bdf:	00 

0000000000002be0 <_ZN9CCounters13DefineCounterER18SCounterDefinition>:
    2be0:	f3 0f 1e fa          	endbr64 
    2be4:	41 57                	push   %r15
    2be6:	48 8d 05 ab 24 00 00 	lea    0x24ab(%rip),%rax        # 5098 <_IO_stdin_used+0x98>
    2bed:	41 56                	push   %r14
    2bef:	41 55                	push   %r13
    2bf1:	41 54                	push   %r12
    2bf3:	55                   	push   %rbp
    2bf4:	53                   	push   %rbx
    2bf5:	8b 5f 54             	mov    0x54(%rdi),%ebx
    2bf8:	85 5e 08             	test   %ebx,0x8(%rsi)
    2bfb:	0f 84 8a 00 00 00    	je     2c8b <_ZN9CCounters13DefineCounterER18SCounterDefinition+0xab>
    2c01:	8b 15 c1 a6 00 00    	mov    0xa6c1(%rip),%edx        # d2c8 <NumCounters>
    2c07:	3b 15 bf a6 00 00    	cmp    0xa6bf(%rip),%edx        # d2cc <MaxNumCounters>
    2c0d:	48 8d 05 85 26 00 00 	lea    0x2685(%rip),%rax        # 5299 <_IO_stdin_used+0x299>
    2c14:	7d 75                	jge    2c8b <_ZN9CCounters13DefineCounterER18SCounterDefinition+0xab>
    2c16:	8b 46 0c             	mov    0xc(%rsi),%eax
    2c19:	a9 00 00 00 40       	test   $0x40000000,%eax
    2c1e:	0f 85 ec 00 00 00    	jne    2d10 <_ZN9CCounters13DefineCounterER18SCounterDefinition+0x130>
    2c24:	8b 6e 10             	mov    0x10(%rsi),%ebp
    2c27:	39 e8                	cmp    %ebp,%eax
    2c29:	0f 8f 01 0a 00 00    	jg     3630 <_ZN9CCounters13DefineCounterER18SCounterDefinition+0xa50>
    2c2f:	44 8d 5a ff          	lea    -0x1(%rdx),%r11d
    2c33:	4c 8d 0d b6 a6 00 00 	lea    0xa6b6(%rip),%r9        # d2f0 <Counters>
    2c3a:	4c 8d 2d cf a6 00 00 	lea    0xa6cf(%rip),%r13        # d310 <EventRegistersUsed>
    2c41:	4a 8d 0c 9d 00 00 00 	lea    0x0(,%r11,4),%rcx
    2c48:	00 
    2c49:	4d 8d 41 04          	lea    0x4(%r9),%r8
    2c4d:	4d 8d 5d 04          	lea    0x4(%r13),%r11
    2c51:	49 01 c8             	add    %rcx,%r8
    2c54:	49 01 cb             	add    %rcx,%r11
    2c57:	4c 8d 25 c2 2a 00 00 	lea    0x2ac2(%rip),%r12        # 5720 <_ZZN9CCounters26GetP4EventSelectRegAddressEiiE17TranslationTables>
    2c5e:	85 d2                	test   %edx,%edx
    2c60:	7e 3e                	jle    2ca0 <_ZN9CCounters13DefineCounterER18SCounterDefinition+0xc0>
    2c62:	4c 89 c9             	mov    %r9,%rcx
    2c65:	eb 12                	jmp    2c79 <_ZN9CCounters13DefineCounterER18SCounterDefinition+0x99>
    2c67:	66 0f 1f 84 00 00 00 	nopw   0x0(%rax,%rax,1)
    2c6e:	00 00 
    2c70:	48 83 c1 04          	add    $0x4,%rcx
    2c74:	4c 39 c1             	cmp    %r8,%rcx
    2c77:	74 27                	je     2ca0 <_ZN9CCounters13DefineCounterER18SCounterDefinition+0xc0>
    2c79:	39 01                	cmp    %eax,(%rcx)
    2c7b:	75 f3                	jne    2c70 <_ZN9CCounters13DefineCounterER18SCounterDefinition+0x90>
    2c7d:	83 c0 01             	add    $0x1,%eax
    2c80:	39 e8                	cmp    %ebp,%eax
    2c82:	7e da                	jle    2c5e <_ZN9CCounters13DefineCounterER18SCounterDefinition+0x7e>
    2c84:	48 8d 05 7d 24 00 00 	lea    0x247d(%rip),%rax        # 5108 <_IO_stdin_used+0x108>
    2c8b:	5b                   	pop    %rbx
    2c8c:	5d                   	pop    %rbp
    2c8d:	41 5c                	pop    %r12
    2c8f:	41 5d                	pop    %r13
    2c91:	41 5e                	pop    %r14
    2c93:	41 5f                	pop    %r15
    2c95:	c3                   	ret    
    2c96:	66 2e 0f 1f 84 00 00 	cs nopw 0x0(%rax,%rax,1)
    2c9d:	00 00 00 
    2ca0:	83 fb 08             	cmp    $0x8,%ebx
    2ca3:	0f 85 97 09 00 00    	jne    3640 <_ZN9CCounters13DefineCounterER18SCounterDefinition+0xa60>
    2ca9:	4c 63 56 14          	movslq 0x14(%rsi),%r10
    2cad:	83 f8 11             	cmp    $0x11,%eax
    2cb0:	0f 87 cb 0e 00 00    	ja     3b81 <_ZN9CCounters13DefineCounterER18SCounterDefinition+0xfa1>
    2cb6:	8d 48 fd             	lea    -0x3(%rax),%ecx
    2cb9:	83 f8 0f             	cmp    $0xf,%eax
    2cbc:	0f 46 c8             	cmovbe %eax,%ecx
    2cbf:	41 83 fa 07          	cmp    $0x7,%r10d
    2cc3:	0f 87 b8 0e 00 00    	ja     3b81 <_ZN9CCounters13DefineCounterER18SCounterDefinition+0xfa1>
    2cc9:	41 89 ce             	mov    %ecx,%r14d
    2ccc:	41 c1 ee 02          	shr    $0x2,%r14d
    2cd0:	4f 8d 14 f2          	lea    (%r10,%r14,8),%r10
    2cd4:	47 8b 14 94          	mov    (%r12,%r10,4),%r10d
    2cd8:	45 85 d2             	test   %r10d,%r10d
    2cdb:	78 0a                	js     2ce7 <_ZN9CCounters13DefineCounterER18SCounterDefinition+0x107>
    2cdd:	83 e1 02             	and    $0x2,%ecx
    2ce0:	83 f9 01             	cmp    $0x1,%ecx
    2ce3:	41 83 da ff          	sbb    $0xffffffff,%r10d
    2ce7:	85 d2                	test   %edx,%edx
    2ce9:	0f 8e 51 09 00 00    	jle    3640 <_ZN9CCounters13DefineCounterER18SCounterDefinition+0xa60>
    2cef:	4c 89 e9             	mov    %r13,%rcx
    2cf2:	eb 11                	jmp    2d05 <_ZN9CCounters13DefineCounterER18SCounterDefinition+0x125>
    2cf4:	0f 1f 40 00          	nopl   0x0(%rax)
    2cf8:	48 83 c1 04          	add    $0x4,%rcx
    2cfc:	4c 39 d9             	cmp    %r11,%rcx
    2cff:	0f 84 3b 09 00 00    	je     3640 <_ZN9CCounters13DefineCounterER18SCounterDefinition+0xa60>
    2d05:	44 39 11             	cmp    %r10d,(%rcx)
    2d08:	75 ee                	jne    2cf8 <_ZN9CCounters13DefineCounterER18SCounterDefinition+0x118>
    2d0a:	e9 6e ff ff ff       	jmp    2c7d <_ZN9CCounters13DefineCounterER18SCounterDefinition+0x9d>
    2d0f:	90                   	nop
    2d10:	48 8d 4e 20          	lea    0x20(%rsi),%rcx
    2d14:	4c 63 d2             	movslq %edx,%r10
    2d17:	4c 8d 0d d2 a5 00 00 	lea    0xa5d2(%rip),%r9        # d2f0 <Counters>
    2d1e:	4a 89 4c d7 10       	mov    %rcx,0x10(%rdi,%r10,8)
    2d23:	8b 4f 58             	mov    0x58(%rdi),%ecx
    2d26:	81 f9 00 01 00 00    	cmp    $0x100,%ecx
    2d2c:	0f 84 2e 09 00 00    	je     3660 <_ZN9CCounters13DefineCounterER18SCounterDefinition+0xa80>
    2d32:	81 f9 00 01 00 00    	cmp    $0x100,%ecx
    2d38:	77 46                	ja     2d80 <_ZN9CCounters13DefineCounterER18SCounterDefinition+0x1a0>
    2d3a:	83 f9 02             	cmp    $0x2,%ecx
    2d3d:	0f 84 5d 0a 00 00    	je     37a0 <_ZN9CCounters13DefineCounterER18SCounterDefinition+0xbc0>
    2d43:	0f 86 c3 05 00 00    	jbe    330c <_ZN9CCounters13DefineCounterER18SCounterDefinition+0x72c>
    2d49:	83 f9 20             	cmp    $0x20,%ecx
    2d4c:	0f 84 f6 03 00 00    	je     3148 <_ZN9CCounters13DefineCounterER18SCounterDefinition+0x568>
    2d52:	0f 86 e7 03 00 00    	jbe    313f <_ZN9CCounters13DefineCounterER18SCounterDefinition+0x55f>
    2d58:	83 e9 40             	sub    $0x40,%ecx
    2d5b:	83 e1 bf             	and    $0xffffffbf,%ecx
    2d5e:	0f 84 7c 07 00 00    	je     34e0 <_ZN9CCounters13DefineCounterER18SCounterDefinition+0x900>
    2d64:	5b                   	pop    %rbx
    2d65:	48 8d 05 64 23 00 00 	lea    0x2364(%rip),%rax        # 50d0 <_IO_stdin_used+0xd0>
    2d6c:	5d                   	pop    %rbp
    2d6d:	41 5c                	pop    %r12
    2d6f:	41 5d                	pop    %r13
    2d71:	41 5e                	pop    %r14
    2d73:	41 5f                	pop    %r15
    2d75:	c3                   	ret    
    2d76:	66 2e 0f 1f 84 00 00 	cs nopw 0x0(%rax,%rax,1)
    2d7d:	00 00 00 
    2d80:	81 f9 00 20 00 00    	cmp    $0x2000,%ecx
    2d86:	0f 84 f4 0c 00 00    	je     3a80 <_ZN9CCounters13DefineCounterER18SCounterDefinition+0xea0>
    2d8c:	0f 86 de 01 00 00    	jbe    2f70 <_ZN9CCounters13DefineCounterER18SCounterDefinition+0x390>
    2d92:	81 f9 00 00 10 00    	cmp    $0x100000,%ecx
    2d98:	75 ca                	jne    2d64 <_ZN9CCounters13DefineCounterER18SCounterDefinition+0x184>
    2d9a:	44 8b 66 18          	mov    0x18(%rsi),%r12d
    2d9e:	8b 35 34 a5 00 00    	mov    0xa534(%rip),%esi        # d2d8 <NumThreads>
    2da4:	44 8d 80 c1 00 00 00 	lea    0xc1(%rax),%r8d
    2dab:	8d 98 86 01 00 00    	lea    0x186(%rax),%ebx
    2db1:	4c 8d 0d 38 a5 00 00 	lea    0xa538(%rip),%r9        # d2f0 <Counters>
    2db8:	41 81 cc 00 00 41 00 	or     $0x410000,%r12d
    2dbf:	85 f6                	test   %esi,%esi
    2dc1:	0f 8e 8a 01 00 00    	jle    2f51 <_ZN9CCounters13DefineCounterER18SCounterDefinition+0x371>
    2dc7:	4c 8d 9f 70 02 00 00 	lea    0x270(%rdi),%r11
    2dce:	31 ed                	xor    %ebp,%ebp
    2dd0:	4d 89 dd             	mov    %r11,%r13
    2dd3:	0f 1f 44 00 00       	nopl   0x0(%rax,%rax,1)
    2dd8:	45 8b 4d 00          	mov    0x0(%r13),%r9d
    2ddc:	41 83 f9 1f          	cmp    $0x1f,%r9d
    2de0:	7f 34                	jg     2e16 <_ZN9CCounters13DefineCounterER18SCounterDefinition+0x236>
    2de2:	4c 63 f5             	movslq %ebp,%r14
    2de5:	49 63 c9             	movslq %r9d,%rcx
    2de8:	41 83 c1 01          	add    $0x1,%r9d
    2dec:	4d 69 f6 18 02 00 00 	imul   $0x218,%r14,%r14
    2df3:	48 c1 e1 04          	shl    $0x4,%rcx
    2df7:	4c 01 f1             	add    %r14,%rcx
    2dfa:	48 01 f9             	add    %rdi,%rcx
    2dfd:	c7 41 60 03 00 00 00 	movl   $0x3,0x60(%rcx)
    2e04:	89 59 64             	mov    %ebx,0x64(%rcx)
    2e07:	44 89 61 68          	mov    %r12d,0x68(%rcx)
    2e0b:	c7 41 6c 00 00 00 00 	movl   $0x0,0x6c(%rcx)
    2e12:	45 89 4d 00          	mov    %r9d,0x0(%r13)
    2e16:	83 c5 01             	add    $0x1,%ebp
    2e19:	49 81 c5 18 02 00 00 	add    $0x218,%r13
    2e20:	39 ee                	cmp    %ebp,%esi
    2e22:	75 b4                	jne    2dd8 <_ZN9CCounters13DefineCounterER18SCounterDefinition+0x1f8>
    2e24:	4c 8d 8f 70 88 00 00 	lea    0x8870(%rdi),%r9
    2e2b:	45 31 e4             	xor    %r12d,%r12d
    2e2e:	4d 89 cd             	mov    %r9,%r13
    2e31:	0f 1f 80 00 00 00 00 	nopl   0x0(%rax)
    2e38:	41 8b 6d 00          	mov    0x0(%r13),%ebp
    2e3c:	83 fd 1f             	cmp    $0x1f,%ebp
    2e3f:	7f 42                	jg     2e83 <_ZN9CCounters13DefineCounterER18SCounterDefinition+0x2a3>
    2e41:	4d 63 f4             	movslq %r12d,%r14
    2e44:	48 63 cd             	movslq %ebp,%rcx
    2e47:	83 c5 01             	add    $0x1,%ebp
    2e4a:	4d 69 f6 18 02 00 00 	imul   $0x218,%r14,%r14
    2e51:	48 c1 e1 04          	shl    $0x4,%rcx
    2e55:	4c 01 f1             	add    %r14,%rcx
    2e58:	48 01 f9             	add    %rdi,%rcx
    2e5b:	c7 81 60 86 00 00 03 	movl   $0x3,0x8660(%rcx)
    2e62:	00 00 00 
    2e65:	89 99 64 86 00 00    	mov    %ebx,0x8664(%rcx)
    2e6b:	c7 81 68 86 00 00 00 	movl   $0x0,0x8668(%rcx)
    2e72:	00 00 00 
    2e75:	c7 81 6c 86 00 00 00 	movl   $0x0,0x866c(%rcx)
    2e7c:	00 00 00 
    2e7f:	41 89 6d 00          	mov    %ebp,0x0(%r13)
    2e83:	41 83 c4 01          	add    $0x1,%r12d
    2e87:	49 81 c5 18 02 00 00 	add    $0x218,%r13
    2e8e:	44 39 e6             	cmp    %r12d,%esi
    2e91:	75 a5                	jne    2e38 <_ZN9CCounters13DefineCounterER18SCounterDefinition+0x258>
    2e93:	31 ed                	xor    %ebp,%ebp
    2e95:	0f 1f 00             	nopl   (%rax)
    2e98:	41 8b 1b             	mov    (%r11),%ebx
    2e9b:	83 fb 1f             	cmp    $0x1f,%ebx
    2e9e:	7f 36                	jg     2ed6 <_ZN9CCounters13DefineCounterER18SCounterDefinition+0x2f6>
    2ea0:	4c 63 e5             	movslq %ebp,%r12
    2ea3:	48 63 cb             	movslq %ebx,%rcx
    2ea6:	83 c3 01             	add    $0x1,%ebx
    2ea9:	4d 69 e4 18 02 00 00 	imul   $0x218,%r12,%r12
    2eb0:	48 c1 e1 04          	shl    $0x4,%rcx
    2eb4:	4c 01 e1             	add    %r12,%rcx
    2eb7:	48 01 f9             	add    %rdi,%rcx
    2eba:	c7 41 60 03 00 00 00 	movl   $0x3,0x60(%rcx)
    2ec1:	44 89 41 64          	mov    %r8d,0x64(%rcx)
    2ec5:	c7 41 68 00 00 00 00 	movl   $0x0,0x68(%rcx)
    2ecc:	c7 41 6c 00 00 00 00 	movl   $0x0,0x6c(%rcx)
    2ed3:	41 89 1b             	mov    %ebx,(%r11)
    2ed6:	83 c5 01             	add    $0x1,%ebp
    2ed9:	49 81 c3 18 02 00 00 	add    $0x218,%r11
    2ee0:	39 ee                	cmp    %ebp,%esi
    2ee2:	75 b4                	jne    2e98 <_ZN9CCounters13DefineCounterER18SCounterDefinition+0x2b8>
    2ee4:	31 ed                	xor    %ebp,%ebp
    2ee6:	66 2e 0f 1f 84 00 00 	cs nopw 0x0(%rax,%rax,1)
    2eed:	00 00 00 
    2ef0:	45 8b 19             	mov    (%r9),%r11d
    2ef3:	41 83 fb 1f          	cmp    $0x1f,%r11d
    2ef7:	7f 43                	jg     2f3c <_ZN9CCounters13DefineCounterER18SCounterDefinition+0x35c>
    2ef9:	48 63 dd             	movslq %ebp,%rbx
    2efc:	49 63 cb             	movslq %r11d,%rcx
    2eff:	41 83 c3 01          	add    $0x1,%r11d
    2f03:	48 69 db 18 02 00 00 	imul   $0x218,%rbx,%rbx
    2f0a:	48 c1 e1 04          	shl    $0x4,%rcx
    2f0e:	48 01 d9             	add    %rbx,%rcx
    2f11:	48 01 f9             	add    %rdi,%rcx
    2f14:	c7 81 60 86 00 00 03 	movl   $0x3,0x8660(%rcx)
    2f1b:	00 00 00 
    2f1e:	44 89 81 64 86 00 00 	mov    %r8d,0x8664(%rcx)
    2f25:	c7 81 68 86 00 00 00 	movl   $0x0,0x8668(%rcx)
    2f2c:	00 00 00 
    2f2f:	c7 81 6c 86 00 00 00 	movl   $0x0,0x866c(%rcx)
    2f36:	00 00 00 
    2f39:	45 89 19             	mov    %r11d,(%r9)
    2f3c:	83 c5 01             	add    $0x1,%ebp
    2f3f:	49 81 c1 18 02 00 00 	add    $0x218,%r9
    2f46:	39 ee                	cmp    %ebp,%esi
    2f48:	75 a6                	jne    2ef0 <_ZN9CCounters13DefineCounterER18SCounterDefinition+0x310>
    2f4a:	4c 8d 0d 9f a3 00 00 	lea    0xa39f(%rip),%r9        # d2f0 <Counters>
    2f51:	83 c2 01             	add    $0x1,%edx
    2f54:	43 89 04 91          	mov    %eax,(%r9,%r10,4)
    2f58:	31 c0                	xor    %eax,%eax
    2f5a:	5b                   	pop    %rbx
    2f5b:	89 15 67 a3 00 00    	mov    %edx,0xa367(%rip)        # d2c8 <NumCounters>
    2f61:	5d                   	pop    %rbp
    2f62:	41 5c                	pop    %r12
    2f64:	41 5d                	pop    %r13
    2f66:	41 5e                	pop    %r14
    2f68:	41 5f                	pop    %r15
    2f6a:	c3                   	ret    
    2f6b:	0f 1f 44 00 00       	nopl   0x0(%rax,%rax,1)
    2f70:	81 f9 00 02 00 00    	cmp    $0x200,%ecx
    2f76:	0f 84 64 05 00 00    	je     34e0 <_ZN9CCounters13DefineCounterER18SCounterDefinition+0x900>
    2f7c:	81 f9 00 10 00 00    	cmp    $0x1000,%ecx
    2f82:	0f 85 dc fd ff ff    	jne    2d64 <_ZN9CCounters13DefineCounterER18SCounterDefinition+0x184>
    2f88:	44 8b 66 1c          	mov    0x1c(%rsi),%r12d
    2f8c:	8d 98 00 00 01 c0    	lea    -0x3fff0000(%rax),%ebx
    2f92:	44 8d 80 04 00 01 c0 	lea    -0x3ffefffc(%rax),%r8d
    2f99:	4c 8d 0d 50 a3 00 00 	lea    0xa350(%rip),%r9        # d2f0 <Counters>
    2fa0:	41 c1 e4 08          	shl    $0x8,%r12d
    2fa4:	44 0b 66 18          	or     0x18(%rsi),%r12d
    2fa8:	8b 35 2a a3 00 00    	mov    0xa32a(%rip),%esi        # d2d8 <NumThreads>
    2fae:	41 81 cc 00 00 41 00 	or     $0x410000,%r12d
    2fb5:	85 f6                	test   %esi,%esi
    2fb7:	7e 98                	jle    2f51 <_ZN9CCounters13DefineCounterER18SCounterDefinition+0x371>
    2fb9:	4c 8d 9f 70 02 00 00 	lea    0x270(%rdi),%r11
    2fc0:	31 ed                	xor    %ebp,%ebp
    2fc2:	4d 89 dd             	mov    %r11,%r13
    2fc5:	0f 1f 00             	nopl   (%rax)
    2fc8:	45 8b 4d 00          	mov    0x0(%r13),%r9d
    2fcc:	41 83 f9 1f          	cmp    $0x1f,%r9d
    2fd0:	7f 34                	jg     3006 <_ZN9CCounters13DefineCounterER18SCounterDefinition+0x426>
    2fd2:	4c 63 f5             	movslq %ebp,%r14
    2fd5:	49 63 c9             	movslq %r9d,%rcx
    2fd8:	41 83 c1 01          	add    $0x1,%r9d
    2fdc:	4d 69 f6 18 02 00 00 	imul   $0x218,%r14,%r14
    2fe3:	48 c1 e1 04          	shl    $0x4,%rcx
    2fe7:	4c 01 f1             	add    %r14,%rcx
    2fea:	48 01 f9             	add    %rdi,%rcx
    2fed:	c7 41 60 03 00 00 00 	movl   $0x3,0x60(%rcx)
    2ff4:	89 59 64             	mov    %ebx,0x64(%rcx)
    2ff7:	44 89 61 68          	mov    %r12d,0x68(%rcx)
    2ffb:	c7 41 6c 00 00 00 00 	movl   $0x0,0x6c(%rcx)
    3002:	45 89 4d 00          	mov    %r9d,0x0(%r13)
    3006:	83 c5 01             	add    $0x1,%ebp
    3009:	49 81 c5 18 02 00 00 	add    $0x218,%r13
    3010:	39 ee                	cmp    %ebp,%esi
    3012:	75 b4                	jne    2fc8 <_ZN9CCounters13DefineCounterER18SCounterDefinition+0x3e8>
    3014:	4c 8d 8f 70 88 00 00 	lea    0x8870(%rdi),%r9
    301b:	45 31 e4             	xor    %r12d,%r12d
    301e:	4d 89 cd             	mov    %r9,%r13
    3021:	0f 1f 80 00 00 00 00 	nopl   0x0(%rax)
    3028:	41 8b 6d 00          	mov    0x0(%r13),%ebp
    302c:	83 fd 1f             	cmp    $0x1f,%ebp
    302f:	7f 42                	jg     3073 <_ZN9CCounters13DefineCounterER18SCounterDefinition+0x493>
    3031:	4d 63 f4             	movslq %r12d,%r14
    3034:	48 63 cd             	movslq %ebp,%rcx
    3037:	83 c5 01             	add    $0x1,%ebp
    303a:	4d 69 f6 18 02 00 00 	imul   $0x218,%r14,%r14
    3041:	48 c1 e1 04          	shl    $0x4,%rcx
    3045:	4c 01 f1             	add    %r14,%rcx
    3048:	48 01 f9             	add    %rdi,%rcx
    304b:	c7 81 60 86 00 00 03 	movl   $0x3,0x8660(%rcx)
    3052:	00 00 00 
    3055:	89 99 64 86 00 00    	mov    %ebx,0x8664(%rcx)
    305b:	c7 81 68 86 00 00 00 	movl   $0x0,0x8668(%rcx)
    3062:	00 00 00 
    3065:	c7 81 6c 86 00 00 00 	movl   $0x0,0x866c(%rcx)
    306c:	00 00 00 
    306f:	41 89 6d 00          	mov    %ebp,0x0(%r13)
    3073:	41 83 c4 01          	add    $0x1,%r12d
    3077:	49 81 c5 18 02 00 00 	add    $0x218,%r13
    307e:	44 39 e6             	cmp    %r12d,%esi
    3081:	75 a5                	jne    3028 <_ZN9CCounters13DefineCounterER18SCounterDefinition+0x448>
    3083:	31 ed                	xor    %ebp,%ebp
    3085:	0f 1f 00             	nopl   (%rax)
    3088:	41 8b 1b             	mov    (%r11),%ebx
    308b:	83 fb 1f             	cmp    $0x1f,%ebx
    308e:	7f 36                	jg     30c6 <_ZN9CCounters13DefineCounterER18SCounterDefinition+0x4e6>
    3090:	4c 63 e5             	movslq %ebp,%r12
    3093:	48 63 cb             	movslq %ebx,%rcx
    3096:	83 c3 01             	add    $0x1,%ebx
    3099:	4d 69 e4 18 02 00 00 	imul   $0x218,%r12,%r12
    30a0:	48 c1 e1 04          	shl    $0x4,%rcx
    30a4:	4c 01 e1             	add    %r12,%rcx
    30a7:	48 01 f9             	add    %rdi,%rcx
    30aa:	c7 41 60 03 00 00 00 	movl   $0x3,0x60(%rcx)
    30b1:	44 89 41 64          	mov    %r8d,0x64(%rcx)
    30b5:	c7 41 68 00 00 00 00 	movl   $0x0,0x68(%rcx)
    30bc:	c7 41 6c 00 00 00 00 	movl   $0x0,0x6c(%rcx)
    30c3:	41 89 1b             	mov    %ebx,(%r11)
    30c6:	83 c5 01             	add    $0x1,%ebp
    30c9:	49 81 c3 18 02 00 00 	add    $0x218,%r11
    30d0:	39 ee                	cmp    %ebp,%esi
    30d2:	75 b4                	jne    3088 <_ZN9CCounters13DefineCounterER18SCounterDefinition+0x4a8>
    30d4:	31 ed                	xor    %ebp,%ebp
    30d6:	66 2e 0f 1f 84 00 00 	cs nopw 0x0(%rax,%rax,1)
    30dd:	00 00 00 
    30e0:	45 8b 19             	mov    (%r9),%r11d
    30e3:	41 83 fb 1f          	cmp    $0x1f,%r11d
    30e7:	7f 43                	jg     312c <_ZN9CCounters13DefineCounterER18SCounterDefinition+0x54c>
    30e9:	48 63 dd             	movslq %ebp,%rbx
    30ec:	49 63 cb             	movslq %r11d,%rcx
    30ef:	41 83 c3 01          	add    $0x1,%r11d
    30f3:	48 69 db 18 02 00 00 	imul   $0x218,%rbx,%rbx
    30fa:	48 c1 e1 04          	shl    $0x4,%rcx
    30fe:	48 01 d9             	add    %rbx,%rcx
    3101:	48 01 f9             	add    %rdi,%rcx
    3104:	c7 81 60 86 00 00 03 	movl   $0x3,0x8660(%rcx)
    310b:	00 00 00 
    310e:	44 89 81 64 86 00 00 	mov    %r8d,0x8664(%rcx)
    3115:	c7 81 68 86 00 00 00 	movl   $0x0,0x8668(%rcx)
    311c:	00 00 00 
    311f:	c7 81 6c 86 00 00 00 	movl   $0x0,0x866c(%rcx)
    3126:	00 00 00 
    3129:	45 89 19             	mov    %r11d,(%r9)
    312c:	83 c5 01             	add    $0x1,%ebp
    312f:	49 81 c1 18 02 00 00 	add    $0x218,%r9
    3136:	39 ee                	cmp    %ebp,%esi
    3138:	75 a6                	jne    30e0 <_ZN9CCounters13DefineCounterER18SCounterDefinition+0x500>
    313a:	e9 0b fe ff ff       	jmp    2f4a <_ZN9CCounters13DefineCounterER18SCounterDefinition+0x36a>
    313f:	83 f9 10             	cmp    $0x10,%ecx
    3142:	0f 85 1c fc ff ff    	jne    2d64 <_ZN9CCounters13DefineCounterER18SCounterDefinition+0x184>
    3148:	44 8b 4e 1c          	mov    0x1c(%rsi),%r9d
    314c:	44 8b 05 85 a1 00 00 	mov    0xa185(%rip),%r8d        # d2d8 <NumThreads>
    3153:	41 c1 e1 08          	shl    $0x8,%r9d
    3157:	44 0b 4e 18          	or     0x18(%rsi),%r9d
    315b:	45 89 cc             	mov    %r9d,%r12d
    315e:	44 89 ce             	mov    %r9d,%esi
    3161:	4c 8d 0d 88 a1 00 00 	lea    0xa188(%rip),%r9        # d2f0 <Counters>
    3168:	41 81 cc 00 40 41 00 	or     $0x414000,%r12d
    316f:	83 f9 20             	cmp    $0x20,%ecx
    3172:	0f 85 a3 04 00 00    	jne    361b <_ZN9CCounters13DefineCounterER18SCounterDefinition+0xa3b>
    3178:	44 8d 98 c1 00 00 00 	lea    0xc1(%rax),%r11d
    317f:	44 8d b0 86 01 00 00 	lea    0x186(%rax),%r14d
    3186:	45 85 c0             	test   %r8d,%r8d
    3189:	0f 8e c2 fd ff ff    	jle    2f51 <_ZN9CCounters13DefineCounterER18SCounterDefinition+0x371>
    318f:	48 8d 9f 70 02 00 00 	lea    0x270(%rdi),%rbx
    3196:	31 ed                	xor    %ebp,%ebp
    3198:	49 89 dd             	mov    %rbx,%r13
    319b:	0f 1f 44 00 00       	nopl   0x0(%rax,%rax,1)
    31a0:	41 8b 75 00          	mov    0x0(%r13),%esi
    31a4:	83 fe 1f             	cmp    $0x1f,%esi
    31a7:	7f 34                	jg     31dd <_ZN9CCounters13DefineCounterER18SCounterDefinition+0x5fd>
    31a9:	4c 63 fd             	movslq %ebp,%r15
    31ac:	48 63 ce             	movslq %esi,%rcx
    31af:	83 c6 01             	add    $0x1,%esi
    31b2:	4d 69 ff 18 02 00 00 	imul   $0x218,%r15,%r15
    31b9:	48 c1 e1 04          	shl    $0x4,%rcx
    31bd:	4c 01 f9             	add    %r15,%rcx
    31c0:	48 01 f9             	add    %rdi,%rcx
    31c3:	c7 41 60 03 00 00 00 	movl   $0x3,0x60(%rcx)
    31ca:	44 89 71 64          	mov    %r14d,0x64(%rcx)
    31ce:	44 89 61 68          	mov    %r12d,0x68(%rcx)
    31d2:	c7 41 6c 00 00 00 00 	movl   $0x0,0x6c(%rcx)
    31d9:	41 89 75 00          	mov    %esi,0x0(%r13)
    31dd:	83 c5 01             	add    $0x1,%ebp
    31e0:	49 81 c5 18 02 00 00 	add    $0x218,%r13
    31e7:	44 39 c5             	cmp    %r8d,%ebp
    31ea:	75 b4                	jne    31a0 <_ZN9CCounters13DefineCounterER18SCounterDefinition+0x5c0>
    31ec:	48 8d b7 70 88 00 00 	lea    0x8870(%rdi),%rsi
    31f3:	45 31 e4             	xor    %r12d,%r12d
    31f6:	49 89 f5             	mov    %rsi,%r13
    31f9:	0f 1f 80 00 00 00 00 	nopl   0x0(%rax)
    3200:	41 8b 6d 00          	mov    0x0(%r13),%ebp
    3204:	83 fd 1f             	cmp    $0x1f,%ebp
    3207:	7f 43                	jg     324c <_ZN9CCounters13DefineCounterER18SCounterDefinition+0x66c>
    3209:	4d 63 fc             	movslq %r12d,%r15
    320c:	48 63 cd             	movslq %ebp,%rcx
    320f:	83 c5 01             	add    $0x1,%ebp
    3212:	4d 69 ff 18 02 00 00 	imul   $0x218,%r15,%r15
    3219:	48 c1 e1 04          	shl    $0x4,%rcx
    321d:	4c 01 f9             	add    %r15,%rcx
    3220:	48 01 f9             	add    %rdi,%rcx
    3223:	c7 81 60 86 00 00 03 	movl   $0x3,0x8660(%rcx)
    322a:	00 00 00 
    322d:	44 89 b1 64 86 00 00 	mov    %r14d,0x8664(%rcx)
    3234:	c7 81 68 86 00 00 00 	movl   $0x0,0x8668(%rcx)
    323b:	00 00 00 
    323e:	c7 81 6c 86 00 00 00 	movl   $0x0,0x866c(%rcx)
    3245:	00 00 00 
    3248:	41 89 6d 00          	mov    %ebp,0x0(%r13)
    324c:	41 83 c4 01          	add    $0x1,%r12d
    3250:	49 81 c5 18 02 00 00 	add    $0x218,%r13
    3257:	45 39 c4             	cmp    %r8d,%r12d
    325a:	75 a4                	jne    3200 <_ZN9CCounters13DefineCounterER18SCounterDefinition+0x620>
    325c:	45 31 e4             	xor    %r12d,%r12d
    325f:	90                   	nop
    3260:	8b 2b                	mov    (%rbx),%ebp
    3262:	83 fd 1f             	cmp    $0x1f,%ebp
    3265:	7f 35                	jg     329c <_ZN9CCounters13DefineCounterER18SCounterDefinition+0x6bc>
    3267:	4d 63 ec             	movslq %r12d,%r13
    326a:	48 63 cd             	movslq %ebp,%rcx
    326d:	83 c5 01             	add    $0x1,%ebp
    3270:	4d 69 ed 18 02 00 00 	imul   $0x218,%r13,%r13
    3277:	48 c1 e1 04          	shl    $0x4,%rcx
    327b:	4c 01 e9             	add    %r13,%rcx
    327e:	48 01 f9             	add    %rdi,%rcx
    3281:	c7 41 60 03 00 00 00 	movl   $0x3,0x60(%rcx)
    3288:	44 89 59 64          	mov    %r11d,0x64(%rcx)
    328c:	c7 41 68 00 00 00 00 	movl   $0x0,0x68(%rcx)
    3293:	c7 41 6c 00 00 00 00 	movl   $0x0,0x6c(%rcx)
    329a:	89 2b                	mov    %ebp,(%rbx)
    329c:	41 83 c4 01          	add    $0x1,%r12d
    32a0:	48 81 c3 18 02 00 00 	add    $0x218,%rbx
    32a7:	45 39 c4             	cmp    %r8d,%r12d
    32aa:	75 b4                	jne    3260 <_ZN9CCounters13DefineCounterER18SCounterDefinition+0x680>
    32ac:	31 ed                	xor    %ebp,%ebp
    32ae:	66 90                	xchg   %ax,%ax
    32b0:	8b 1e                	mov    (%rsi),%ebx
    32b2:	83 fb 1f             	cmp    $0x1f,%ebx
    32b5:	7f 41                	jg     32f8 <_ZN9CCounters13DefineCounterER18SCounterDefinition+0x718>
    32b7:	4c 63 e5             	movslq %ebp,%r12
    32ba:	48 63 cb             	movslq %ebx,%rcx
    32bd:	83 c3 01             	add    $0x1,%ebx
    32c0:	4d 69 e4 18 02 00 00 	imul   $0x218,%r12,%r12
    32c7:	48 c1 e1 04          	shl    $0x4,%rcx
    32cb:	4c 01 e1             	add    %r12,%rcx
    32ce:	48 01 f9             	add    %rdi,%rcx
    32d1:	c7 81 60 86 00 00 03 	movl   $0x3,0x8660(%rcx)
    32d8:	00 00 00 
    32db:	44 89 99 64 86 00 00 	mov    %r11d,0x8664(%rcx)
    32e2:	c7 81 68 86 00 00 00 	movl   $0x0,0x8668(%rcx)
    32e9:	00 00 00 
    32ec:	c7 81 6c 86 00 00 00 	movl   $0x0,0x866c(%rcx)
    32f3:	00 00 00 
    32f6:	89 1e                	mov    %ebx,(%rsi)
    32f8:	83 c5 01             	add    $0x1,%ebp
    32fb:	48 81 c6 18 02 00 00 	add    $0x218,%rsi
    3302:	44 39 c5             	cmp    %r8d,%ebp
    3305:	75 a9                	jne    32b0 <_ZN9CCounters13DefineCounterER18SCounterDefinition+0x6d0>
    3307:	e9 45 fc ff ff       	jmp    2f51 <_ZN9CCounters13DefineCounterER18SCounterDefinition+0x371>
    330c:	83 f9 01             	cmp    $0x1,%ecx
    330f:	0f 85 4f fa ff ff    	jne    2d64 <_ZN9CCounters13DefineCounterER18SCounterDefinition+0x184>
    3315:	44 8b 6e 1c          	mov    0x1c(%rsi),%r13d
    3319:	41 c1 e5 06          	shl    $0x6,%r13d
    331d:	44 0b 6e 18          	or     0x18(%rsi),%r13d
    3321:	83 f8 01             	cmp    $0x1,%eax
    3324:	0f 84 5f 04 00 00    	je     3789 <_ZN9CCounters13DefineCounterER18SCounterDefinition+0xba9>
    332a:	44 8b 0d a7 9f 00 00 	mov    0x9fa7(%rip),%r9d        # d2d8 <NumThreads>
    3331:	45 31 db             	xor    %r11d,%r11d
    3334:	48 8d 9f 70 02 00 00 	lea    0x270(%rdi),%rbx
    333b:	49 bc 03 00 00 00 11 	movabs $0x1100000003,%r12
    3342:	00 00 00 
    3345:	48 89 dd             	mov    %rbx,%rbp
    3348:	45 85 c9             	test   %r9d,%r9d
    334b:	0f 8e 79 01 00 00    	jle    34ca <_ZN9CCounters13DefineCounterER18SCounterDefinition+0x8ea>
    3351:	0f 1f 80 00 00 00 00 	nopl   0x0(%rax)
    3358:	44 8b 45 00          	mov    0x0(%rbp),%r8d
    335c:	41 83 f8 1f          	cmp    $0x1f,%r8d
    3360:	7f 2e                	jg     3390 <_ZN9CCounters13DefineCounterER18SCounterDefinition+0x7b0>
    3362:	49 63 f3             	movslq %r11d,%rsi
    3365:	49 63 c8             	movslq %r8d,%rcx
    3368:	41 83 c0 01          	add    $0x1,%r8d
    336c:	48 69 f6 18 02 00 00 	imul   $0x218,%rsi,%rsi
    3373:	48 c1 e1 04          	shl    $0x4,%rcx
    3377:	48 01 f1             	add    %rsi,%rcx
    337a:	48 01 f9             	add    %rdi,%rcx
    337d:	4c 89 61 60          	mov    %r12,0x60(%rcx)
    3381:	44 89 69 68          	mov    %r13d,0x68(%rcx)
    3385:	c7 41 6c 00 00 00 00 	movl   $0x0,0x6c(%rcx)
    338c:	44 89 45 00          	mov    %r8d,0x0(%rbp)
    3390:	41 83 c3 01          	add    $0x1,%r11d
    3394:	48 81 c5 18 02 00 00 	add    $0x218,%rbp
    339b:	45 39 d9             	cmp    %r11d,%r9d
    339e:	75 b8                	jne    3358 <_ZN9CCounters13DefineCounterER18SCounterDefinition+0x778>
    33a0:	4c 8d 9f 70 88 00 00 	lea    0x8870(%rdi),%r11
    33a7:	31 ed                	xor    %ebp,%ebp
    33a9:	49 be 03 00 00 00 11 	movabs $0x1100000003,%r14
    33b0:	00 00 00 
    33b3:	4d 89 dc             	mov    %r11,%r12
    33b6:	66 2e 0f 1f 84 00 00 	cs nopw 0x0(%rax,%rax,1)
    33bd:	00 00 00 
    33c0:	45 8b 04 24          	mov    (%r12),%r8d
    33c4:	41 83 f8 1f          	cmp    $0x1f,%r8d
    33c8:	7f 3b                	jg     3405 <_ZN9CCounters13DefineCounterER18SCounterDefinition+0x825>
    33ca:	48 63 f5             	movslq %ebp,%rsi
    33cd:	4d 63 f8             	movslq %r8d,%r15
    33d0:	41 83 c0 01          	add    $0x1,%r8d
    33d4:	48 69 f6 18 02 00 00 	imul   $0x218,%rsi,%rsi
    33db:	49 c1 e7 04          	shl    $0x4,%r15
    33df:	4a 8d 0c 3e          	lea    (%rsi,%r15,1),%rcx
    33e3:	48 01 f9             	add    %rdi,%rcx
    33e6:	4c 89 b1 60 86 00 00 	mov    %r14,0x8660(%rcx)
    33ed:	c7 81 68 86 00 00 00 	movl   $0x0,0x8668(%rcx)
    33f4:	00 00 00 
    33f7:	c7 81 6c 86 00 00 00 	movl   $0x0,0x866c(%rcx)
    33fe:	00 00 00 
    3401:	45 89 04 24          	mov    %r8d,(%r12)
    3405:	83 c5 01             	add    $0x1,%ebp
    3408:	49 81 c4 18 02 00 00 	add    $0x218,%r12
    340f:	41 39 e9             	cmp    %ebp,%r9d
    3412:	75 ac                	jne    33c0 <_ZN9CCounters13DefineCounterER18SCounterDefinition+0x7e0>
    3414:	8d 70 12             	lea    0x12(%rax),%esi
    3417:	31 ed                	xor    %ebp,%ebp
    3419:	0f 1f 80 00 00 00 00 	nopl   0x0(%rax)
    3420:	44 8b 03             	mov    (%rbx),%r8d
    3423:	41 83 f8 1f          	cmp    $0x1f,%r8d
    3427:	7f 36                	jg     345f <_ZN9CCounters13DefineCounterER18SCounterDefinition+0x87f>
    3429:	4c 63 e5             	movslq %ebp,%r12
    342c:	49 63 c8             	movslq %r8d,%rcx
    342f:	41 83 c0 01          	add    $0x1,%r8d
    3433:	4d 69 e4 18 02 00 00 	imul   $0x218,%r12,%r12
    343a:	48 c1 e1 04          	shl    $0x4,%rcx
    343e:	4c 01 e1             	add    %r12,%rcx
    3441:	48 01 f9             	add    %rdi,%rcx
    3444:	c7 41 60 03 00 00 00 	movl   $0x3,0x60(%rcx)
    344b:	89 71 64             	mov    %esi,0x64(%rcx)
    344e:	c7 41 68 00 00 00 00 	movl   $0x0,0x68(%rcx)
    3455:	c7 41 6c 00 00 00 00 	movl   $0x0,0x6c(%rcx)
    345c:	44 89 03             	mov    %r8d,(%rbx)
    345f:	83 c5 01             	add    $0x1,%ebp
    3462:	48 81 c3 18 02 00 00 	add    $0x218,%rbx
    3469:	41 39 e9             	cmp    %ebp,%r9d
    346c:	75 b2                	jne    3420 <_ZN9CCounters13DefineCounterER18SCounterDefinition+0x840>
    346e:	31 db                	xor    %ebx,%ebx
    3470:	45 8b 03             	mov    (%r11),%r8d
    3473:	41 83 f8 1f          	cmp    $0x1f,%r8d
    3477:	7f 42                	jg     34bb <_ZN9CCounters13DefineCounterER18SCounterDefinition+0x8db>
    3479:	48 63 eb             	movslq %ebx,%rbp
    347c:	49 63 c8             	movslq %r8d,%rcx
    347f:	41 83 c0 01          	add    $0x1,%r8d
    3483:	48 69 ed 18 02 00 00 	imul   $0x218,%rbp,%rbp
    348a:	48 c1 e1 04          	shl    $0x4,%rcx
    348e:	48 01 e9             	add    %rbp,%rcx
    3491:	48 01 f9             	add    %rdi,%rcx
    3494:	c7 81 60 86 00 00 03 	movl   $0x3,0x8660(%rcx)
    349b:	00 00 00 
    349e:	89 b1 64 86 00 00    	mov    %esi,0x8664(%rcx)
    34a4:	c7 81 68 86 00 00 00 	movl   $0x0,0x8668(%rcx)
    34ab:	00 00 00 
    34ae:	c7 81 6c 86 00 00 00 	movl   $0x0,0x866c(%rcx)
    34b5:	00 00 00 
    34b8:	45 89 03             	mov    %r8d,(%r11)
    34bb:	83 c3 01             	add    $0x1,%ebx
    34be:	49 81 c3 18 02 00 00 	add    $0x218,%r11
    34c5:	41 39 d9             	cmp    %ebx,%r9d
    34c8:	75 a6                	jne    3470 <_ZN9CCounters13DefineCounterER18SCounterDefinition+0x890>
    34ca:	44 89 2d 3f 9e 00 00 	mov    %r13d,0x9e3f(%rip)        # d310 <EventRegistersUsed>
    34d1:	4c 8d 0d 18 9e 00 00 	lea    0x9e18(%rip),%r9        # d2f0 <Counters>
    34d8:	e9 74 fa ff ff       	jmp    2f51 <_ZN9CCounters13DefineCounterER18SCounterDefinition+0x371>
    34dd:	0f 1f 00             	nopl   (%rax)
    34e0:	4c 8d 0d 09 9e 00 00 	lea    0x9e09(%rip),%r9        # d2f0 <Counters>
    34e7:	a9 00 00 00 40       	test   $0x40000000,%eax
    34ec:	0f 85 6e 01 00 00    	jne    3660 <_ZN9CCounters13DefineCounterER18SCounterDefinition+0xa80>
    34f2:	4c 63 1d d7 ac 81 00 	movslq 0x81acd7(%rip),%r11        # 81e1d0 <_ZZN9CCounters13DefineCounterER18SCounterDefinitionE15CountersEnabled>
    34f9:	44 8b 05 d8 9d 00 00 	mov    0x9dd8(%rip),%r8d        # d2d8 <NumThreads>
    3500:	45 8d 63 01          	lea    0x1(%r11),%r12d
    3504:	44 89 25 c5 ac 81 00 	mov    %r12d,0x81acc5(%rip)        # 81e1d0 <_ZZN9CCounters13DefineCounterER18SCounterDefinitionE15CountersEnabled>
    350b:	45 85 db             	test   %r11d,%r11d
    350e:	0f 85 fc 00 00 00    	jne    3610 <_ZN9CCounters13DefineCounterER18SCounterDefinition+0xa30>
    3514:	8b 8f 68 0c 01 00    	mov    0x10c68(%rdi),%ecx
    351a:	bb 01 00 00 00       	mov    $0x1,%ebx
    351f:	41 89 df             	mov    %ebx,%r15d
    3522:	41 d3 e7             	shl    %cl,%r15d
    3525:	8b 8f 64 0c 01 00    	mov    0x10c64(%rdi),%ecx
    352b:	41 8d 6f ff          	lea    -0x1(%r15),%ebp
    352f:	d3 e3                	shl    %cl,%ebx
    3531:	8d 4b ff             	lea    -0x1(%rbx),%ecx
    3534:	45 85 c0             	test   %r8d,%r8d
    3537:	0f 8e d3 00 00 00    	jle    3610 <_ZN9CCounters13DefineCounterER18SCounterDefinition+0xa30>
    353d:	89 54 24 f8          	mov    %edx,-0x8(%rsp)
    3541:	89 eb                	mov    %ebp,%ebx
    3543:	4c 8d b7 70 02 00 00 	lea    0x270(%rdi),%r14
    354a:	45 31 ed             	xor    %r13d,%r13d
    354d:	49 bf 03 00 00 00 8f 	movabs $0x38f00000003,%r15
    3554:	03 00 00 
    3557:	89 44 24 fc          	mov    %eax,-0x4(%rsp)
    355b:	89 cd                	mov    %ecx,%ebp
    355d:	0f 1f 00             	nopl   (%rax)
    3560:	41 8b 16             	mov    (%r14),%edx
    3563:	83 fa 1f             	cmp    $0x1f,%edx
    3566:	7f 27                	jg     358f <_ZN9CCounters13DefineCounterER18SCounterDefinition+0x9af>
    3568:	49 63 cd             	movslq %r13d,%rcx
    356b:	48 63 c2             	movslq %edx,%rax
    356e:	83 c2 01             	add    $0x1,%edx
    3571:	48 69 c9 18 02 00 00 	imul   $0x218,%rcx,%rcx
    3578:	48 c1 e0 04          	shl    $0x4,%rax
    357c:	48 01 c8             	add    %rcx,%rax
    357f:	48 01 f8             	add    %rdi,%rax
    3582:	4c 89 78 60          	mov    %r15,0x60(%rax)
    3586:	89 68 68             	mov    %ebp,0x68(%rax)
    3589:	89 58 6c             	mov    %ebx,0x6c(%rax)
    358c:	41 89 16             	mov    %edx,(%r14)
    358f:	41 83 c5 01          	add    $0x1,%r13d
    3593:	49 81 c6 18 02 00 00 	add    $0x218,%r14
    359a:	45 39 c5             	cmp    %r8d,%r13d
    359d:	75 c1                	jne    3560 <_ZN9CCounters13DefineCounterER18SCounterDefinition+0x980>
    359f:	8b 54 24 f8          	mov    -0x8(%rsp),%edx
    35a3:	8b 44 24 fc          	mov    -0x4(%rsp),%eax
    35a7:	48 8d af 70 88 00 00 	lea    0x8870(%rdi),%rbp
    35ae:	49 bd 03 00 00 00 8f 	movabs $0x38f00000003,%r13
    35b5:	03 00 00 
    35b8:	eb 0a                	jmp    35c4 <_ZN9CCounters13DefineCounterER18SCounterDefinition+0x9e4>
    35ba:	66 0f 1f 44 00 00    	nopw   0x0(%rax,%rax,1)
    35c0:	41 83 c4 01          	add    $0x1,%r12d
    35c4:	8b 5d 00             	mov    0x0(%rbp),%ebx
    35c7:	83 fb 1f             	cmp    $0x1f,%ebx
    35ca:	7f 35                	jg     3601 <_ZN9CCounters13DefineCounterER18SCounterDefinition+0xa21>
    35cc:	4d 69 db 18 02 00 00 	imul   $0x218,%r11,%r11
    35d3:	48 63 cb             	movslq %ebx,%rcx
    35d6:	83 c3 01             	add    $0x1,%ebx
    35d9:	48 c1 e1 04          	shl    $0x4,%rcx
    35dd:	4c 01 d9             	add    %r11,%rcx
    35e0:	48 01 f9             	add    %rdi,%rcx
    35e3:	4c 89 a9 60 86 00 00 	mov    %r13,0x8660(%rcx)
    35ea:	c7 81 68 86 00 00 00 	movl   $0x0,0x8668(%rcx)
    35f1:	00 00 00 
    35f4:	c7 81 6c 86 00 00 00 	movl   $0x0,0x866c(%rcx)
    35fb:	00 00 00 
    35fe:	89 5d 00             	mov    %ebx,0x0(%rbp)
    3601:	4d 63 dc             	movslq %r12d,%r11
    3604:	48 81 c5 18 02 00 00 	add    $0x218,%rbp
    360b:	45 39 c4             	cmp    %r8d,%r12d
    360e:	75 b0                	jne    35c0 <_ZN9CCounters13DefineCounterER18SCounterDefinition+0x9e0>
    3610:	8b 4e 1c             	mov    0x1c(%rsi),%ecx
    3613:	c1 e1 08             	shl    $0x8,%ecx
    3616:	0b 4e 18             	or     0x18(%rsi),%ecx
    3619:	89 ce                	mov    %ecx,%esi
    361b:	81 ce 00 00 41 00    	or     $0x410000,%esi
    3621:	41 89 f4             	mov    %esi,%r12d
    3624:	e9 4f fb ff ff       	jmp    3178 <_ZN9CCounters13DefineCounterER18SCounterDefinition+0x598>
    3629:	0f 1f 80 00 00 00 00 	nopl   0x0(%rax)
    3630:	89 46 10             	mov    %eax,0x10(%rsi)
    3633:	89 c5                	mov    %eax,%ebp
    3635:	e9 f5 f5 ff ff       	jmp    2c2f <_ZN9CCounters13DefineCounterER18SCounterDefinition+0x4f>
    363a:	66 0f 1f 44 00 00    	nopw   0x0(%rax,%rax,1)
    3640:	48 8d 4e 20          	lea    0x20(%rsi),%rcx
    3644:	4c 63 d2             	movslq %edx,%r10
    3647:	4a 89 4c d7 10       	mov    %rcx,0x10(%rdi,%r10,8)
    364c:	8b 4f 58             	mov    0x58(%rdi),%ecx
    364f:	81 f9 00 01 00 00    	cmp    $0x100,%ecx
    3655:	0f 85 d7 f6 ff ff    	jne    2d32 <_ZN9CCounters13DefineCounterER18SCounterDefinition+0x152>
    365b:	e9 87 fe ff ff       	jmp    34e7 <_ZN9CCounters13DefineCounterER18SCounterDefinition+0x907>
    3660:	48 63 35 65 ab 81 00 	movslq 0x81ab65(%rip),%rsi        # 81e1cc <_ZZN9CCounters13DefineCounterER18SCounterDefinitionE20FixedCountersEnabled>
    3667:	44 8d 5e 01          	lea    0x1(%rsi),%r11d
    366b:	44 89 1d 5a ab 81 00 	mov    %r11d,0x81ab5a(%rip)        # 81e1cc <_ZZN9CCounters13DefineCounterER18SCounterDefinitionE20FixedCountersEnabled>
    3672:	85 f6                	test   %esi,%esi
    3674:	0f 85 d7 f8 ff ff    	jne    2f51 <_ZN9CCounters13DefineCounterER18SCounterDefinition+0x371>
    367a:	8b 9f 68 0c 01 00    	mov    0x10c68(%rdi),%ebx
    3680:	85 db                	test   %ebx,%ebx
    3682:	0f 8e 14 05 00 00    	jle    3b9c <_ZN9CCounters13DefineCounterER18SCounterDefinition+0xfbc>
    3688:	c1 e3 02             	shl    $0x2,%ebx
    368b:	45 31 ed             	xor    %r13d,%r13d
    368e:	31 c9                	xor    %ecx,%ecx
    3690:	bd 02 00 00 00       	mov    $0x2,%ebp
    3695:	0f 1f 00             	nopl   (%rax)
    3698:	41 89 e8             	mov    %ebp,%r8d
    369b:	41 d3 e0             	shl    %cl,%r8d
    369e:	83 c1 04             	add    $0x4,%ecx
    36a1:	45 09 c5             	or     %r8d,%r13d
    36a4:	39 cb                	cmp    %ecx,%ebx
    36a6:	75 f0                	jne    3698 <_ZN9CCounters13DefineCounterER18SCounterDefinition+0xab8>
    36a8:	8b 1d 2a 9c 00 00    	mov    0x9c2a(%rip),%ebx        # d2d8 <NumThreads>
    36ae:	85 db                	test   %ebx,%ebx
    36b0:	0f 8e 9b f8 ff ff    	jle    2f51 <_ZN9CCounters13DefineCounterER18SCounterDefinition+0x371>
    36b6:	4c 8d a7 70 02 00 00 	lea    0x270(%rdi),%r12
    36bd:	31 ed                	xor    %ebp,%ebp
    36bf:	49 be 03 00 00 00 8d 	movabs $0x38d00000003,%r14
    36c6:	03 00 00 
    36c9:	0f 1f 80 00 00 00 00 	nopl   0x0(%rax)
    36d0:	45 8b 04 24          	mov    (%r12),%r8d
    36d4:	41 83 f8 1f          	cmp    $0x1f,%r8d
    36d8:	7f 2e                	jg     3708 <_ZN9CCounters13DefineCounterER18SCounterDefinition+0xb28>
    36da:	4c 63 fd             	movslq %ebp,%r15
    36dd:	49 63 c8             	movslq %r8d,%rcx
    36e0:	41 83 c0 01          	add    $0x1,%r8d
    36e4:	4d 69 ff 18 02 00 00 	imul   $0x218,%r15,%r15
    36eb:	48 c1 e1 04          	shl    $0x4,%rcx
    36ef:	4c 01 f9             	add    %r15,%rcx
    36f2:	48 01 f9             	add    %rdi,%rcx
    36f5:	4c 89 71 60          	mov    %r14,0x60(%rcx)
    36f9:	44 89 69 68          	mov    %r13d,0x68(%rcx)
    36fd:	c7 41 6c 00 00 00 00 	movl   $0x0,0x6c(%rcx)
    3704:	45 89 04 24          	mov    %r8d,(%r12)
    3708:	83 c5 01             	add    $0x1,%ebp
    370b:	49 81 c4 18 02 00 00 	add    $0x218,%r12
    3712:	39 eb                	cmp    %ebp,%ebx
    3714:	75 ba                	jne    36d0 <_ZN9CCounters13DefineCounterER18SCounterDefinition+0xaf0>
    3716:	48 8d af 70 88 00 00 	lea    0x8870(%rdi),%rbp
    371d:	49 bc 03 00 00 00 8d 	movabs $0x38d00000003,%r12
    3724:	03 00 00 
    3727:	eb 0b                	jmp    3734 <_ZN9CCounters13DefineCounterER18SCounterDefinition+0xb54>
    3729:	0f 1f 80 00 00 00 00 	nopl   0x0(%rax)
    3730:	41 83 c3 01          	add    $0x1,%r11d
    3734:	44 8b 45 00          	mov    0x0(%rbp),%r8d
    3738:	41 83 f8 1f          	cmp    $0x1f,%r8d
    373c:	7f 37                	jg     3775 <_ZN9CCounters13DefineCounterER18SCounterDefinition+0xb95>
    373e:	48 69 f6 18 02 00 00 	imul   $0x218,%rsi,%rsi
    3745:	49 63 c8             	movslq %r8d,%rcx
    3748:	41 83 c0 01          	add    $0x1,%r8d
    374c:	48 c1 e1 04          	shl    $0x4,%rcx
    3750:	48 01 f1             	add    %rsi,%rcx
    3753:	48 01 f9             	add    %rdi,%rcx
    3756:	4c 89 a1 60 86 00 00 	mov    %r12,0x8660(%rcx)
    375d:	c7 81 68 86 00 00 00 	movl   $0x0,0x8668(%rcx)
    3764:	00 00 00 
    3767:	c7 81 6c 86 00 00 00 	movl   $0x0,0x866c(%rcx)
    376e:	00 00 00 
    3771:	44 89 45 00          	mov    %r8d,0x0(%rbp)
    3775:	49 63 f3             	movslq %r11d,%rsi
    3778:	48 81 c5 18 02 00 00 	add    $0x218,%rbp
    377f:	44 39 db             	cmp    %r11d,%ebx
    3782:	75 ac                	jne    3730 <_ZN9CCounters13DefineCounterER18SCounterDefinition+0xb50>
    3784:	e9 c8 f7 ff ff       	jmp    2f51 <_ZN9CCounters13DefineCounterER18SCounterDefinition+0x371>
    3789:	41 c1 e5 10          	shl    $0x10,%r13d
    378d:	44 0b 2d 7c 9b 00 00 	or     0x9b7c(%rip),%r13d        # d310 <EventRegistersUsed>
    3794:	e9 91 fb ff ff       	jmp    332a <_ZN9CCounters13DefineCounterER18SCounterDefinition+0x74a>
    3799:	0f 1f 80 00 00 00 00 	nopl   0x0(%rax)
    37a0:	4c 63 46 14          	movslq 0x14(%rsi),%r8
    37a4:	83 f8 11             	cmp    $0x11,%eax
    37a7:	0f 87 f7 03 00 00    	ja     3ba4 <_ZN9CCounters13DefineCounterER18SCounterDefinition+0xfc4>
    37ad:	8d 48 fd             	lea    -0x3(%rax),%ecx
    37b0:	83 f8 0f             	cmp    $0xf,%eax
    37b3:	0f 46 c8             	cmovbe %eax,%ecx
    37b6:	41 83 f8 07          	cmp    $0x7,%r8d
    37ba:	0f 87 e4 03 00 00    	ja     3ba4 <_ZN9CCounters13DefineCounterER18SCounterDefinition+0xfc4>
    37c0:	41 89 c9             	mov    %ecx,%r9d
    37c3:	41 c1 e9 02          	shr    $0x2,%r9d
    37c7:	4f 8d 0c c8          	lea    (%r8,%r9,8),%r9
    37cb:	4c 8d 05 4e 1f 00 00 	lea    0x1f4e(%rip),%r8        # 5720 <_ZZN9CCounters26GetP4EventSelectRegAddressEiiE17TranslationTables>
    37d2:	43 8b 1c 88          	mov    (%r8,%r9,4),%ebx
    37d6:	85 db                	test   %ebx,%ebx
    37d8:	78 09                	js     37e3 <_ZN9CCounters13DefineCounterER18SCounterDefinition+0xc03>
    37da:	83 e1 02             	and    $0x2,%ecx
    37dd:	83 f9 01             	cmp    $0x1,%ecx
    37e0:	83 db ff             	sbb    $0xffffffff,%ebx
    37e3:	44 8b 6e 1c          	mov    0x1c(%rsi),%r13d
    37e7:	8b 4e 18             	mov    0x18(%rsi),%ecx
    37ea:	44 8b 05 e7 9a 00 00 	mov    0x9ae7(%rip),%r8d        # d2d8 <NumThreads>
    37f1:	41 c1 e5 09          	shl    $0x9,%r13d
    37f5:	c1 e1 19             	shl    $0x19,%ecx
    37f8:	41 09 cd             	or     %ecx,%r13d
    37fb:	41 83 cd 3c          	or     $0x3c,%r13d
    37ff:	45 85 c0             	test   %r8d,%r8d
    3802:	0f 8e 84 03 00 00    	jle    3b8c <_ZN9CCounters13DefineCounterER18SCounterDefinition+0xfac>
    3808:	4c 8d 9f 70 02 00 00 	lea    0x270(%rdi),%r11
    380f:	31 ed                	xor    %ebp,%ebp
    3811:	4d 89 dc             	mov    %r11,%r12
    3814:	0f 1f 40 00          	nopl   0x0(%rax)
    3818:	45 8b 0c 24          	mov    (%r12),%r9d
    381c:	41 83 f9 1f          	cmp    $0x1f,%r9d
    3820:	7f 34                	jg     3856 <_ZN9CCounters13DefineCounterER18SCounterDefinition+0xc76>
    3822:	4c 63 f5             	movslq %ebp,%r14
    3825:	49 63 c9             	movslq %r9d,%rcx
    3828:	41 83 c1 01          	add    $0x1,%r9d
    382c:	4d 69 f6 18 02 00 00 	imul   $0x218,%r14,%r14
    3833:	48 c1 e1 04          	shl    $0x4,%rcx
    3837:	4c 01 f1             	add    %r14,%rcx
    383a:	48 01 f9             	add    %rdi,%rcx
    383d:	c7 41 60 03 00 00 00 	movl   $0x3,0x60(%rcx)
    3844:	89 59 64             	mov    %ebx,0x64(%rcx)
    3847:	44 89 69 68          	mov    %r13d,0x68(%rcx)
    384b:	c7 41 6c 00 00 00 00 	movl   $0x0,0x6c(%rcx)
    3852:	45 89 0c 24          	mov    %r9d,(%r12)
    3856:	83 c5 01             	add    $0x1,%ebp
    3859:	49 81 c4 18 02 00 00 	add    $0x218,%r12
    3860:	41 39 e8             	cmp    %ebp,%r8d
    3863:	75 b3                	jne    3818 <_ZN9CCounters13DefineCounterER18SCounterDefinition+0xc38>
    3865:	4c 8d 8f 70 88 00 00 	lea    0x8870(%rdi),%r9
    386c:	45 31 e4             	xor    %r12d,%r12d
    386f:	4d 89 cd             	mov    %r9,%r13
    3872:	66 0f 1f 44 00 00    	nopw   0x0(%rax,%rax,1)
    3878:	41 8b 6d 00          	mov    0x0(%r13),%ebp
    387c:	83 fd 1f             	cmp    $0x1f,%ebp
    387f:	7f 42                	jg     38c3 <_ZN9CCounters13DefineCounterER18SCounterDefinition+0xce3>
    3881:	4d 63 f4             	movslq %r12d,%r14
    3884:	48 63 cd             	movslq %ebp,%rcx
    3887:	83 c5 01             	add    $0x1,%ebp
    388a:	4d 69 f6 18 02 00 00 	imul   $0x218,%r14,%r14
    3891:	48 c1 e1 04          	shl    $0x4,%rcx
    3895:	4c 01 f1             	add    %r14,%rcx
    3898:	48 01 f9             	add    %rdi,%rcx
    389b:	c7 81 60 86 00 00 03 	movl   $0x3,0x8660(%rcx)
    38a2:	00 00 00 
    38a5:	89 99 64 86 00 00    	mov    %ebx,0x8664(%rcx)
    38ab:	c7 81 68 86 00 00 00 	movl   $0x0,0x8668(%rcx)
    38b2:	00 00 00 
    38b5:	c7 81 6c 86 00 00 00 	movl   $0x0,0x866c(%rcx)
    38bc:	00 00 00 
    38bf:	41 89 6d 00          	mov    %ebp,0x0(%r13)
    38c3:	41 83 c4 01          	add    $0x1,%r12d
    38c7:	49 81 c5 18 02 00 00 	add    $0x218,%r13
    38ce:	45 39 e0             	cmp    %r12d,%r8d
    38d1:	75 a5                	jne    3878 <_ZN9CCounters13DefineCounterER18SCounterDefinition+0xc98>
    38d3:	48 8d 0d 36 9a 00 00 	lea    0x9a36(%rip),%rcx        # d310 <EventRegistersUsed>
    38da:	4d 89 dc             	mov    %r11,%r12
    38dd:	31 ed                	xor    %ebp,%ebp
    38df:	42 89 1c 91          	mov    %ebx,(%rcx,%r10,4)
    38e3:	44 8b 6e 14          	mov    0x14(%rsi),%r13d
    38e7:	8d b0 60 03 00 00    	lea    0x360(%rax),%esi
    38ed:	41 c1 e5 0d          	shl    $0xd,%r13d
    38f1:	41 81 cd 00 10 03 00 	or     $0x31000,%r13d
    38f8:	0f 1f 84 00 00 00 00 	nopl   0x0(%rax,%rax,1)
    38ff:	00 
    3900:	41 8b 1c 24          	mov    (%r12),%ebx
    3904:	83 fb 1f             	cmp    $0x1f,%ebx
    3907:	7f 33                	jg     393c <_ZN9CCounters13DefineCounterER18SCounterDefinition+0xd5c>
    3909:	4c 63 f5             	movslq %ebp,%r14
    390c:	48 63 cb             	movslq %ebx,%rcx
    390f:	83 c3 01             	add    $0x1,%ebx
    3912:	4d 69 f6 18 02 00 00 	imul   $0x218,%r14,%r14
    3919:	48 c1 e1 04          	shl    $0x4,%rcx
    391d:	4c 01 f1             	add    %r14,%rcx
    3920:	48 01 f9             	add    %rdi,%rcx
    3923:	c7 41 60 03 00 00 00 	movl   $0x3,0x60(%rcx)
    392a:	89 71 64             	mov    %esi,0x64(%rcx)
    392d:	44 89 69 68          	mov    %r13d,0x68(%rcx)
    3931:	c7 41 6c 00 00 00 00 	movl   $0x0,0x6c(%rcx)
    3938:	41 89 1c 24          	mov    %ebx,(%r12)
    393c:	83 c5 01             	add    $0x1,%ebp
    393f:	49 81 c4 18 02 00 00 	add    $0x218,%r12
    3946:	41 39 e8             	cmp    %ebp,%r8d
    3949:	75 b5                	jne    3900 <_ZN9CCounters13DefineCounterER18SCounterDefinition+0xd20>
    394b:	4d 89 cc             	mov    %r9,%r12
    394e:	31 ed                	xor    %ebp,%ebp
    3950:	41 8b 1c 24          	mov    (%r12),%ebx
    3954:	83 fb 1f             	cmp    $0x1f,%ebx
    3957:	7f 42                	jg     399b <_ZN9CCounters13DefineCounterER18SCounterDefinition+0xdbb>
    3959:	4c 63 ed             	movslq %ebp,%r13
    395c:	48 63 cb             	movslq %ebx,%rcx
    395f:	83 c3 01             	add    $0x1,%ebx
    3962:	4d 69 ed 18 02 00 00 	imul   $0x218,%r13,%r13
    3969:	48 c1 e1 04          	shl    $0x4,%rcx
    396d:	4c 01 e9             	add    %r13,%rcx
    3970:	48 01 f9             	add    %rdi,%rcx
    3973:	c7 81 60 86 00 00 03 	movl   $0x3,0x8660(%rcx)
    397a:	00 00 00 
    397d:	89 b1 64 86 00 00    	mov    %esi,0x8664(%rcx)
    3983:	c7 81 68 86 00 00 00 	movl   $0x0,0x8668(%rcx)
    398a:	00 00 00 
    398d:	c7 81 6c 86 00 00 00 	movl   $0x0,0x866c(%rcx)
    3994:	00 00 00 
    3997:	41 89 1c 24          	mov    %ebx,(%r12)
    399b:	83 c5 01             	add    $0x1,%ebp
    399e:	49 81 c4 18 02 00 00 	add    $0x218,%r12
    39a5:	41 39 e8             	cmp    %ebp,%r8d
    39a8:	75 a6                	jne    3950 <_ZN9CCounters13DefineCounterER18SCounterDefinition+0xd70>
    39aa:	8d b0 00 03 00 00    	lea    0x300(%rax),%esi
    39b0:	31 ed                	xor    %ebp,%ebp
    39b2:	66 0f 1f 44 00 00    	nopw   0x0(%rax,%rax,1)
    39b8:	41 8b 1b             	mov    (%r11),%ebx
    39bb:	83 fb 1f             	cmp    $0x1f,%ebx
    39be:	7f 35                	jg     39f5 <_ZN9CCounters13DefineCounterER18SCounterDefinition+0xe15>
    39c0:	4c 63 e5             	movslq %ebp,%r12
    39c3:	48 63 cb             	movslq %ebx,%rcx
    39c6:	83 c3 01             	add    $0x1,%ebx
    39c9:	4d 69 e4 18 02 00 00 	imul   $0x218,%r12,%r12
    39d0:	48 c1 e1 04          	shl    $0x4,%rcx
    39d4:	4c 01 e1             	add    %r12,%rcx
    39d7:	48 01 f9             	add    %rdi,%rcx
    39da:	c7 41 60 03 00 00 00 	movl   $0x3,0x60(%rcx)
    39e1:	89 71 64             	mov    %esi,0x64(%rcx)
    39e4:	c7 41 68 00 00 00 00 	movl   $0x0,0x68(%rcx)
    39eb:	c7 41 6c 00 00 00 00 	movl   $0x0,0x6c(%rcx)
    39f2:	41 89 1b             	mov    %ebx,(%r11)
    39f5:	83 c5 01             	add    $0x1,%ebp
    39f8:	49 81 c3 18 02 00 00 	add    $0x218,%r11
    39ff:	41 39 e8             	cmp    %ebp,%r8d
    3a02:	75 b4                	jne    39b8 <_ZN9CCounters13DefineCounterER18SCounterDefinition+0xdd8>
    3a04:	31 ed                	xor    %ebp,%ebp
    3a06:	66 2e 0f 1f 84 00 00 	cs nopw 0x0(%rax,%rax,1)
    3a0d:	00 00 00 
    3a10:	45 8b 19             	mov    (%r9),%r11d
    3a13:	41 83 fb 1f          	cmp    $0x1f,%r11d
    3a17:	7f 42                	jg     3a5b <_ZN9CCounters13DefineCounterER18SCounterDefinition+0xe7b>
    3a19:	48 63 dd             	movslq %ebp,%rbx
    3a1c:	49 63 cb             	movslq %r11d,%rcx
    3a1f:	41 83 c3 01          	add    $0x1,%r11d
    3a23:	48 69 db 18 02 00 00 	imul   $0x218,%rbx,%rbx
    3a2a:	48 c1 e1 04          	shl    $0x4,%rcx
    3a2e:	48 01 d9             	add    %rbx,%rcx
    3a31:	48 01 f9             	add    %rdi,%rcx
    3a34:	c7 81 60 86 00 00 03 	movl   $0x3,0x8660(%rcx)
    3a3b:	00 00 00 
    3a3e:	89 b1 64 86 00 00    	mov    %esi,0x8664(%rcx)
    3a44:	c7 81 68 86 00 00 00 	movl   $0x0,0x8668(%rcx)
    3a4b:	00 00 00 
    3a4e:	c7 81 6c 86 00 00 00 	movl   $0x0,0x866c(%rcx)
    3a55:	00 00 00 
    3a58:	45 89 19             	mov    %r11d,(%r9)
    3a5b:	83 c5 01             	add    $0x1,%ebp
    3a5e:	49 81 c1 18 02 00 00 	add    $0x218,%r9
    3a65:	41 39 e8             	cmp    %ebp,%r8d
    3a68:	75 a6                	jne    3a10 <_ZN9CCounters13DefineCounterER18SCounterDefinition+0xe30>
    3a6a:	0d 00 00 00 80       	or     $0x80000000,%eax
    3a6f:	4c 8d 0d 7a 98 00 00 	lea    0x987a(%rip),%r9        # d2f0 <Counters>
    3a76:	e9 d6 f4 ff ff       	jmp    2f51 <_ZN9CCounters13DefineCounterER18SCounterDefinition+0x371>
    3a7b:	0f 1f 44 00 00       	nopl   0x0(%rax,%rax,1)
    3a80:	8b 5e 1c             	mov    0x1c(%rsi),%ebx
    3a83:	44 8d 84 00 00 02 01 	lea    -0x3ffefe00(%rax,%rax,1),%r8d
    3a8a:	c0 
    3a8b:	4c 8d 0d 5e 98 00 00 	lea    0x985e(%rip),%r9        # d2f0 <Counters>
    3a92:	c1 e3 08             	shl    $0x8,%ebx
    3a95:	0b 5e 18             	or     0x18(%rsi),%ebx
    3a98:	8b 35 3a 98 00 00    	mov    0x983a(%rip),%esi        # d2d8 <NumThreads>
    3a9e:	81 cb 00 00 41 00    	or     $0x410000,%ebx
    3aa4:	85 f6                	test   %esi,%esi
    3aa6:	0f 8e a5 f4 ff ff    	jle    2f51 <_ZN9CCounters13DefineCounterER18SCounterDefinition+0x371>
    3aac:	48 8d af 70 02 00 00 	lea    0x270(%rdi),%rbp
    3ab3:	45 31 db             	xor    %r11d,%r11d
    3ab6:	66 2e 0f 1f 84 00 00 	cs nopw 0x0(%rax,%rax,1)
    3abd:	00 00 00 
    3ac0:	44 8b 4d 00          	mov    0x0(%rbp),%r9d
    3ac4:	41 83 f9 1f          	cmp    $0x1f,%r9d
    3ac8:	7f 34                	jg     3afe <_ZN9CCounters13DefineCounterER18SCounterDefinition+0xf1e>
    3aca:	4d 63 e3             	movslq %r11d,%r12
    3acd:	49 63 c9             	movslq %r9d,%rcx
    3ad0:	41 83 c1 01          	add    $0x1,%r9d
    3ad4:	4d 69 e4 18 02 00 00 	imul   $0x218,%r12,%r12
    3adb:	48 c1 e1 04          	shl    $0x4,%rcx
    3adf:	4c 01 e1             	add    %r12,%rcx
    3ae2:	48 01 f9             	add    %rdi,%rcx
    3ae5:	c7 41 60 03 00 00 00 	movl   $0x3,0x60(%rcx)
    3aec:	44 89 41 64          	mov    %r8d,0x64(%rcx)
    3af0:	89 59 68             	mov    %ebx,0x68(%rcx)
    3af3:	c7 41 6c 00 00 00 00 	movl   $0x0,0x6c(%rcx)
    3afa:	44 89 4d 00          	mov    %r9d,0x0(%rbp)
    3afe:	41 83 c3 01          	add    $0x1,%r11d
    3b02:	48 81 c5 18 02 00 00 	add    $0x218,%rbp
    3b09:	44 39 de             	cmp    %r11d,%esi
    3b0c:	75 b2                	jne    3ac0 <_ZN9CCounters13DefineCounterER18SCounterDefinition+0xee0>
    3b0e:	48 8d af 70 88 00 00 	lea    0x8870(%rdi),%rbp
    3b15:	31 db                	xor    %ebx,%ebx
    3b17:	66 0f 1f 84 00 00 00 	nopw   0x0(%rax,%rax,1)
    3b1e:	00 00 
    3b20:	44 8b 4d 00          	mov    0x0(%rbp),%r9d
    3b24:	41 83 f9 1f          	cmp    $0x1f,%r9d
    3b28:	7f 44                	jg     3b6e <_ZN9CCounters13DefineCounterER18SCounterDefinition+0xf8e>
    3b2a:	4c 63 db             	movslq %ebx,%r11
    3b2d:	49 63 c9             	movslq %r9d,%rcx
    3b30:	41 83 c1 01          	add    $0x1,%r9d
    3b34:	4d 69 db 18 02 00 00 	imul   $0x218,%r11,%r11
    3b3b:	48 c1 e1 04          	shl    $0x4,%rcx
    3b3f:	4c 01 d9             	add    %r11,%rcx
    3b42:	48 01 f9             	add    %rdi,%rcx
    3b45:	c7 81 60 86 00 00 03 	movl   $0x3,0x8660(%rcx)
    3b4c:	00 00 00 
    3b4f:	44 89 81 64 86 00 00 	mov    %r8d,0x8664(%rcx)
    3b56:	c7 81 68 86 00 00 00 	movl   $0x0,0x8668(%rcx)
    3b5d:	00 00 00 
    3b60:	c7 81 6c 86 00 00 00 	movl   $0x0,0x866c(%rcx)
    3b67:	00 00 00 
    3b6a:	44 89 4d 00          	mov    %r9d,0x0(%rbp)
    3b6e:	83 c3 01             	add    $0x1,%ebx
    3b71:	48 81 c5 18 02 00 00 	add    $0x218,%rbp
    3b78:	39 de                	cmp    %ebx,%esi
    3b7a:	75 a4                	jne    3b20 <_ZN9CCounters13DefineCounterER18SCounterDefinition+0xf40>
    3b7c:	e9 c9 f3 ff ff       	jmp    2f4a <_ZN9CCounters13DefineCounterER18SCounterDefinition+0x36a>
    3b81:	41 ba ff ff ff ff    	mov    $0xffffffff,%r10d
    3b87:	e9 5b f1 ff ff       	jmp    2ce7 <_ZN9CCounters13DefineCounterER18SCounterDefinition+0x107>
    3b8c:	48 8d 0d 7d 97 00 00 	lea    0x977d(%rip),%rcx        # d310 <EventRegistersUsed>
    3b93:	42 89 1c 91          	mov    %ebx,(%rcx,%r10,4)
    3b97:	e9 ce fe ff ff       	jmp    3a6a <_ZN9CCounters13DefineCounterER18SCounterDefinition+0xe8a>
    3b9c:	45 31 ed             	xor    %r13d,%r13d
    3b9f:	e9 04 fb ff ff       	jmp    36a8 <_ZN9CCounters13DefineCounterER18SCounterDefinition+0xac8>
    3ba4:	83 cb ff             	or     $0xffffffff,%ebx
    3ba7:	e9 37 fc ff ff       	jmp    37e3 <_ZN9CCounters13DefineCounterER18SCounterDefinition+0xc03>
    3bac:	0f 1f 40 00          	nopl   0x0(%rax)

0000000000003bb0 <_ZN9CCounters13DefineCounterEi.part.0>:
    3bb0:	8b 97 60 0c 01 00    	mov    0x10c60(%rdi),%edx
    3bb6:	89 f0                	mov    %esi,%eax
    3bb8:	85 d2                	test   %edx,%edx
    3bba:	7e 4c                	jle    3c08 <_ZN9CCounters13DefineCounterEi.part.0+0x58>
    3bbc:	83 ea 01             	sub    $0x1,%edx
    3bbf:	48 8d 35 5a 44 00 00 	lea    0x445a(%rip),%rsi        # 8020 <CounterDefinitions>
    3bc6:	48 83 c2 01          	add    $0x1,%rdx
    3bca:	48 8d 0c 92          	lea    (%rdx,%rdx,4),%rcx
    3bce:	48 8d 14 4a          	lea    (%rdx,%rcx,2),%rdx
    3bd2:	48 8d 14 96          	lea    (%rsi,%rdx,4),%rdx
    3bd6:	eb 11                	jmp    3be9 <_ZN9CCounters13DefineCounterEi.part.0+0x39>
    3bd8:	0f 1f 84 00 00 00 00 	nopl   0x0(%rax,%rax,1)
    3bdf:	00 
    3be0:	48 83 c6 2c          	add    $0x2c,%rsi
    3be4:	48 39 d6             	cmp    %rdx,%rsi
    3be7:	74 1f                	je     3c08 <_ZN9CCounters13DefineCounterEi.part.0+0x58>
    3be9:	39 06                	cmp    %eax,(%rsi)
    3beb:	75 f3                	jne    3be0 <_ZN9CCounters13DefineCounterEi.part.0+0x30>
    3bed:	8b 4e 04             	mov    0x4(%rsi),%ecx
    3bf0:	85 4f 58             	test   %ecx,0x58(%rdi)
    3bf3:	74 eb                	je     3be0 <_ZN9CCounters13DefineCounterEi.part.0+0x30>
    3bf5:	8b 4e 08             	mov    0x8(%rsi),%ecx
    3bf8:	85 4f 54             	test   %ecx,0x54(%rdi)
    3bfb:	74 e3                	je     3be0 <_ZN9CCounters13DefineCounterEi.part.0+0x30>
    3bfd:	e9 de ef ff ff       	jmp    2be0 <_ZN9CCounters13DefineCounterER18SCounterDefinition>
    3c02:	66 0f 1f 44 00 00    	nopw   0x0(%rax,%rax,1)
    3c08:	48 8d 05 21 15 00 00 	lea    0x1521(%rip),%rax        # 5130 <_IO_stdin_used+0x130>
    3c0f:	c3                   	ret    

0000000000003c10 <_ZN9CCounters13DefineCounterEi>:
    3c10:	f3 0f 1e fa          	endbr64 
    3c14:	85 f6                	test   %esi,%esi
    3c16:	74 08                	je     3c20 <_ZN9CCounters13DefineCounterEi+0x10>
    3c18:	eb 96                	jmp    3bb0 <_ZN9CCounters13DefineCounterEi.part.0>
    3c1a:	66 0f 1f 44 00 00    	nopw   0x0(%rax,%rax,1)
    3c20:	31 c0                	xor    %eax,%eax
    3c22:	c3                   	ret    
    3c23:	90                   	nop
    3c24:	66 66 2e 0f 1f 84 00 	data16 cs nopw 0x0(%rax,%rax,1)
    3c2b:	00 00 00 00 
    3c2f:	90                   	nop

0000000000003c30 <_ZN9CCounters13QueueCountersEv>:
    3c30:	f3 0f 1e fa          	endbr64 
    3c34:	41 56                	push   %r14
    3c36:	48 8d 05 e3 43 00 00 	lea    0x43e3(%rip),%rax        # 8020 <CounterDefinitions>
    3c3d:	31 d2                	xor    %edx,%edx
    3c3f:	41 55                	push   %r13
    3c41:	41 54                	push   %r12
    3c43:	49 89 fc             	mov    %rdi,%r12
    3c46:	55                   	push   %rbp
    3c47:	53                   	push   %rbx
    3c48:	eb 0d                	jmp    3c57 <_ZN9CCounters13QueueCountersEv+0x27>
    3c4a:	66 0f 1f 44 00 00    	nopw   0x0(%rax,%rax,1)
    3c50:	83 c2 01             	add    $0x1,%edx
    3c53:	48 83 c0 2c          	add    $0x2c,%rax
    3c57:	8b 48 08             	mov    0x8(%rax),%ecx
    3c5a:	85 c9                	test   %ecx,%ecx
    3c5c:	75 f2                	jne    3c50 <_ZN9CCounters13QueueCountersEv+0x20>
    3c5e:	8b 28                	mov    (%rax),%ebp
    3c60:	85 ed                	test   %ebp,%ebp
    3c62:	75 ec                	jne    3c50 <_ZN9CCounters13QueueCountersEv+0x20>
    3c64:	41 89 94 24 60 0c 01 	mov    %edx,0x10c60(%r12)
    3c6b:	00 
    3c6c:	4c 89 e7             	mov    %r12,%rdi
    3c6f:	e8 dc ec ff ff       	call   2950 <_ZN9CCounters18GetProcessorVendorEv>
    3c74:	89 e8                	mov    %ebp,%eax
    3c76:	89 e9                	mov    %ebp,%ecx
    3c78:	41 c7 44 24 54 00 00 	movl   $0x0,0x54(%r12)
    3c7f:	00 00 
    3c81:	0f a2                	cpuid  
    3c83:	85 c0                	test   %eax,%eax
    3c85:	74 08                	je     3c8f <_ZN9CCounters13QueueCountersEv+0x5f>
    3c87:	4c 89 e7             	mov    %r12,%rdi
    3c8a:	e8 41 e1 ff ff       	call   1dd0 <_ZN9CCounters18GetProcessorFamilyEv.part.0>
    3c8f:	4c 89 e7             	mov    %r12,%rdi
    3c92:	e8 59 ed ff ff       	call   29f0 <_ZN9CCounters12GetPMCSchemeEv>
    3c97:	8b 15 33 96 00 00    	mov    0x9633(%rip),%edx        # d2d0 <UsePMC>
    3c9d:	85 d2                	test   %edx,%edx
    3c9f:	74 61                	je     3d02 <_ZN9CCounters13QueueCountersEv+0xd2>
    3ca1:	8b 05 25 96 00 00    	mov    0x9625(%rip),%eax        # d2cc <MaxNumCounters>
    3ca7:	4c 8d 35 92 8f 00 00 	lea    0x8f92(%rip),%r14        # cc40 <CounterTypesDesired>
    3cae:	31 db                	xor    %ebx,%ebx
    3cb0:	4c 8d 2d f4 15 00 00 	lea    0x15f4(%rip),%r13        # 52ab <_IO_stdin_used+0x2ab>
    3cb7:	85 c0                	test   %eax,%eax
    3cb9:	7e 3c                	jle    3cf7 <_ZN9CCounters13QueueCountersEv+0xc7>
    3cbb:	0f 1f 44 00 00       	nopl   0x0(%rax,%rax,1)
    3cc0:	41 8b 36             	mov    (%r14),%esi
    3cc3:	83 c3 01             	add    $0x1,%ebx
    3cc6:	85 f6                	test   %esi,%esi
    3cc8:	74 21                	je     3ceb <_ZN9CCounters13QueueCountersEv+0xbb>
    3cca:	4c 89 e7             	mov    %r12,%rdi
    3ccd:	e8 de fe ff ff       	call   3bb0 <_ZN9CCounters13DefineCounterEi.part.0>
    3cd2:	48 89 c1             	mov    %rax,%rcx
    3cd5:	48 85 c0             	test   %rax,%rax
    3cd8:	74 11                	je     3ceb <_ZN9CCounters13QueueCountersEv+0xbb>
    3cda:	89 da                	mov    %ebx,%edx
    3cdc:	4c 89 ee             	mov    %r13,%rsi
    3cdf:	bf 01 00 00 00       	mov    $0x1,%edi
    3ce4:	31 c0                	xor    %eax,%eax
    3ce6:	e8 45 d3 ff ff       	call   1030 <__printf_chk@plt>
    3ceb:	49 83 c6 04          	add    $0x4,%r14
    3cef:	39 1d d7 95 00 00    	cmp    %ebx,0x95d7(%rip)        # d2cc <MaxNumCounters>
    3cf5:	7f c9                	jg     3cc0 <_ZN9CCounters13QueueCountersEv+0x90>
    3cf7:	41 81 7c 24 58 00 20 	cmpl   $0x2000,0x58(%r12)
    3cfe:	00 00 
    3d00:	74 09                	je     3d0b <_ZN9CCounters13QueueCountersEv+0xdb>
    3d02:	5b                   	pop    %rbx
    3d03:	5d                   	pop    %rbp
    3d04:	41 5c                	pop    %r12
    3d06:	41 5d                	pop    %r13
    3d08:	41 5e                	pop    %r14
    3d0a:	c3                   	ret    
    3d0b:	44 8b 05 c6 95 00 00 	mov    0x95c6(%rip),%r8d        # d2d8 <NumThreads>
    3d12:	45 85 c0             	test   %r8d,%r8d
    3d15:	7e eb                	jle    3d02 <_ZN9CCounters13QueueCountersEv+0xd2>
    3d17:	41 8b bc 24 70 0c 01 	mov    0x10c70(%r12),%edi
    3d1e:	00 
    3d1f:	41 8b b4 24 74 0c 01 	mov    0x10c74(%r12),%esi
    3d26:	00 
    3d27:	49 8d 8c 24 70 02 00 	lea    0x270(%r12),%rcx
    3d2e:	00 
    3d2f:	90                   	nop
    3d30:	44 8b 09             	mov    (%rcx),%r9d
    3d33:	41 83 f9 1f          	cmp    $0x1f,%r9d
    3d37:	7f 5f                	jg     3d98 <_ZN9CCounters13QueueCountersEv+0x168>
    3d39:	48 63 c5             	movslq %ebp,%rax
    3d3c:	49 63 d1             	movslq %r9d,%rdx
    3d3f:	4c 69 d0 18 02 00 00 	imul   $0x218,%rax,%r10
    3d46:	48 c1 e2 04          	shl    $0x4,%rdx
    3d4a:	4c 01 d2             	add    %r10,%rdx
    3d4d:	4c 01 e2             	add    %r12,%rdx
    3d50:	c7 42 60 02 00 00 00 	movl   $0x2,0x60(%rdx)
    3d57:	89 7a 64             	mov    %edi,0x64(%rdx)
    3d5a:	89 6a 68             	mov    %ebp,0x68(%rdx)
    3d5d:	c7 42 6c 00 00 00 00 	movl   $0x0,0x6c(%rdx)
    3d64:	41 8d 51 01          	lea    0x1(%r9),%edx
    3d68:	89 11                	mov    %edx,(%rcx)
    3d6a:	83 fa 20             	cmp    $0x20,%edx
    3d6d:	74 29                	je     3d98 <_ZN9CCounters13QueueCountersEv+0x168>
    3d6f:	48 63 c2             	movslq %edx,%rax
    3d72:	41 83 c1 02          	add    $0x2,%r9d
    3d76:	48 c1 e0 04          	shl    $0x4,%rax
    3d7a:	4a 8d 04 10          	lea    (%rax,%r10,1),%rax
    3d7e:	4c 01 e0             	add    %r12,%rax
    3d81:	c7 40 60 02 00 00 00 	movl   $0x2,0x60(%rax)
    3d88:	89 70 64             	mov    %esi,0x64(%rax)
    3d8b:	89 68 68             	mov    %ebp,0x68(%rax)
    3d8e:	c7 40 6c 00 00 00 00 	movl   $0x0,0x6c(%rax)
    3d95:	44 89 09             	mov    %r9d,(%rcx)
    3d98:	44 8b 89 00 86 00 00 	mov    0x8600(%rcx),%r9d
    3d9f:	41 83 f9 1f          	cmp    $0x1f,%r9d
    3da3:	7f 7f                	jg     3e24 <_ZN9CCounters13QueueCountersEv+0x1f4>
    3da5:	48 63 c5             	movslq %ebp,%rax
    3da8:	49 63 d1             	movslq %r9d,%rdx
    3dab:	4c 69 d0 18 02 00 00 	imul   $0x218,%rax,%r10
    3db2:	48 c1 e2 04          	shl    $0x4,%rdx
    3db6:	4c 01 d2             	add    %r10,%rdx
    3db9:	4c 01 e2             	add    %r12,%rdx
    3dbc:	c7 82 60 86 00 00 02 	movl   $0x2,0x8660(%rdx)
    3dc3:	00 00 00 
    3dc6:	89 ba 64 86 00 00    	mov    %edi,0x8664(%rdx)
    3dcc:	89 aa 68 86 00 00    	mov    %ebp,0x8668(%rdx)
    3dd2:	c7 82 6c 86 00 00 00 	movl   $0x0,0x866c(%rdx)
    3dd9:	00 00 00 
    3ddc:	41 8d 51 01          	lea    0x1(%r9),%edx
    3de0:	89 91 00 86 00 00    	mov    %edx,0x8600(%rcx)
    3de6:	83 fa 20             	cmp    $0x20,%edx
    3de9:	74 39                	je     3e24 <_ZN9CCounters13QueueCountersEv+0x1f4>
    3deb:	48 63 c2             	movslq %edx,%rax
    3dee:	41 83 c1 02          	add    $0x2,%r9d
    3df2:	48 c1 e0 04          	shl    $0x4,%rax
    3df6:	4a 8d 04 10          	lea    (%rax,%r10,1),%rax
    3dfa:	4c 01 e0             	add    %r12,%rax
    3dfd:	c7 80 60 86 00 00 02 	movl   $0x2,0x8660(%rax)
    3e04:	00 00 00 
    3e07:	89 b0 64 86 00 00    	mov    %esi,0x8664(%rax)
    3e0d:	89 a8 68 86 00 00    	mov    %ebp,0x8668(%rax)
    3e13:	c7 80 6c 86 00 00 00 	movl   $0x0,0x866c(%rax)
    3e1a:	00 00 00 
    3e1d:	44 89 89 00 86 00 00 	mov    %r9d,0x8600(%rcx)
    3e24:	83 c5 01             	add    $0x1,%ebp
    3e27:	48 81 c1 18 02 00 00 	add    $0x218,%rcx
    3e2e:	41 39 e8             	cmp    %ebp,%r8d
    3e31:	0f 85 f9 fe ff ff    	jne    3d30 <_ZN9CCounters13QueueCountersEv+0x100>
    3e37:	5b                   	pop    %rbx
    3e38:	5d                   	pop    %rbp
    3e39:	41 5c                	pop    %r12
    3e3b:	41 5d                	pop    %r13
    3e3d:	41 5e                	pop    %r14
    3e3f:	c3                   	ret    

0000000000003e40 <_Z11setcountersiPPc>:
    3e40:	f3 0f 1e fa          	endbr64 
    3e44:	41 57                	push   %r15
    3e46:	41 56                	push   %r14
    3e48:	41 55                	push   %r13
    3e4a:	41 89 fd             	mov    %edi,%r13d
    3e4d:	41 54                	push   %r12
    3e4f:	49 89 f4             	mov    %rsi,%r12
    3e52:	55                   	push   %rbp
    3e53:	53                   	push   %rbx
    3e54:	48 81 ec 28 01 00 00 	sub    $0x128,%rsp
    3e5b:	4c 8b 76 08          	mov    0x8(%rsi),%r14
    3e5f:	48 8d 35 62 14 00 00 	lea    0x1462(%rip),%rsi        # 52c8 <_IO_stdin_used+0x2c8>
    3e66:	64 48 8b 04 25 28 00 	mov    %fs:0x28,%rax
    3e6d:	00 00 
    3e6f:	48 89 84 24 18 01 00 	mov    %rax,0x118(%rsp)
    3e76:	00 
    3e77:	31 c0                	xor    %eax,%eax
    3e79:	4c 89 f7             	mov    %r14,%rdi
    3e7c:	e8 bf d1 ff ff       	call   1040 <strstr@plt>
    3e81:	c7 44 24 0c 01 00 00 	movl   $0x1,0xc(%rsp)
    3e88:	00 
    3e89:	48 85 c0             	test   %rax,%rax
    3e8c:	0f 84 8f 02 00 00    	je     4121 <_Z11setcountersiPPc+0x2e1>
    3e92:	41 83 fd 02          	cmp    $0x2,%r13d
    3e96:	0f 8f ff 01 00 00    	jg     409b <_Z11setcountersiPPc+0x25b>
    3e9c:	48 8d 54 24 10       	lea    0x10(%rsp),%rdx
    3ea1:	31 c0                	xor    %eax,%eax
    3ea3:	b9 10 00 00 00       	mov    $0x10,%ecx
    3ea8:	be 80 00 00 00       	mov    $0x80,%esi
    3ead:	48 89 d7             	mov    %rdx,%rdi
    3eb0:	f3 48 ab             	rep stos %rax,%es:(%rdi)
    3eb3:	31 ff                	xor    %edi,%edi
    3eb5:	e8 56 d2 ff ff       	call   1110 <sched_getaffinity@plt>
    3eba:	85 c0                	test   %eax,%eax
    3ebc:	0f 85 47 02 00 00    	jne    4109 <_Z11setcountersiPPc+0x2c9>
    3ec2:	c7 05 0c 94 00 00 40 	movl   $0x40,0x940c(%rip)        # d2d8 <NumThreads>
    3ec9:	00 00 00 
    3ecc:	48 8b 4c 24 10       	mov    0x10(%rsp),%rcx
    3ed1:	31 c0                	xor    %eax,%eax
    3ed3:	45 31 e4             	xor    %r12d,%r12d
    3ed6:	48 8d 1d c3 a1 81 00 	lea    0x81a1c3(%rip),%rbx        # 81e0a0 <ProcNum>
    3edd:	eb 12                	jmp    3ef1 <_Z11setcountersiPPc+0xb1>
    3edf:	90                   	nop
    3ee0:	89 14 83             	mov    %edx,(%rbx,%rax,4)
    3ee3:	48 83 c0 01          	add    $0x1,%rax
    3ee7:	41 83 c4 01          	add    $0x1,%r12d
    3eeb:	48 83 f8 40          	cmp    $0x40,%rax
    3eef:	74 1a                	je     3f0b <_Z11setcountersiPPc+0xcb>
    3ef1:	48 0f a3 c1          	bt     %rax,%rcx
    3ef5:	89 c2                	mov    %eax,%edx
    3ef7:	72 e7                	jb     3ee0 <_Z11setcountersiPPc+0xa0>
    3ef9:	ba ff ff ff ff       	mov    $0xffffffff,%edx
    3efe:	89 14 83             	mov    %edx,(%rbx,%rax,4)
    3f01:	48 83 c0 01          	add    $0x1,%rax
    3f05:	48 83 f8 40          	cmp    $0x40,%rax
    3f09:	75 e6                	jne    3ef1 <_Z11setcountersiPPc+0xb1>
    3f0b:	48 8d 3d ce 94 80 00 	lea    0x8094ce(%rip),%rdi        # 80d3e0 <MSRCounters>
    3f12:	e8 59 e4 ff ff       	call   2370 <_ZN9CCounters13LockProcessorEv>
    3f17:	48 8d 3d c2 94 80 00 	lea    0x8094c2(%rip),%rdi        # 80d3e0 <MSRCounters>
    3f1e:	e8 0d fd ff ff       	call   3c30 <_ZN9CCounters13QueueCountersEv>
    3f23:	8b 0d a7 93 00 00    	mov    0x93a7(%rip),%ecx        # d2d0 <UsePMC>
    3f29:	85 c9                	test   %ecx,%ecx
    3f2b:	0f 85 bf 01 00 00    	jne    40f0 <_Z11setcountersiPPc+0x2b0>
    3f31:	8b 15 a1 93 00 00    	mov    0x93a1(%rip),%edx        # d2d8 <NumThreads>
    3f37:	85 d2                	test   %edx,%edx
    3f39:	0f 8e b1 00 00 00    	jle    3ff0 <_Z11setcountersiPPc+0x1b0>
    3f3f:	45 31 ed             	xor    %r13d,%r13d
    3f42:	4c 8d bc 24 90 00 00 	lea    0x90(%rsp),%r15
    3f49:	00 
    3f4a:	eb 15                	jmp    3f61 <_Z11setcountersiPPc+0x121>
    3f4c:	0f 1f 40 00          	nopl   0x0(%rax)
    3f50:	49 83 c5 01          	add    $0x1,%r13
    3f54:	44 39 2d 7d 93 00 00 	cmp    %r13d,0x937d(%rip)        # d2d8 <NumThreads>
    3f5b:	0f 8e 8f 00 00 00    	jle    3ff0 <_Z11setcountersiPPc+0x1b0>
    3f61:	46 8b 34 ab          	mov    (%rbx,%r13,4),%r14d
    3f65:	44 89 ed             	mov    %r13d,%ebp
    3f68:	45 85 f6             	test   %r14d,%r14d
    3f6b:	78 e3                	js     3f50 <_Z11setcountersiPPc+0x110>
    3f6d:	b9 10 00 00 00       	mov    $0x10,%ecx
    3f72:	31 c0                	xor    %eax,%eax
    3f74:	4c 89 ff             	mov    %r15,%rdi
    3f77:	f3 48 ab             	rep stos %rax,%es:(%rdi)
    3f7a:	41 81 fe ff 03 00 00 	cmp    $0x3ff,%r14d
    3f81:	7f 16                	jg     3f99 <_Z11setcountersiPPc+0x159>
    3f83:	49 63 c6             	movslq %r14d,%rax
    3f86:	ba 01 00 00 00       	mov    $0x1,%edx
    3f8b:	44 89 f1             	mov    %r14d,%ecx
    3f8e:	48 c1 e8 06          	shr    $0x6,%rax
    3f92:	48 d3 e2             	shl    %cl,%rdx
    3f95:	49 09 14 c7          	or     %rdx,(%r15,%rax,8)
    3f99:	e8 12 d1 ff ff       	call   10b0 <gettid@plt>
    3f9e:	4c 89 fa             	mov    %r15,%rdx
    3fa1:	be 80 00 00 00       	mov    $0x80,%esi
    3fa6:	89 c7                	mov    %eax,%edi
    3fa8:	e8 e3 d0 ff ff       	call   1090 <sched_setaffinity@plt>
    3fad:	85 c0                	test   %eax,%eax
    3faf:	0f 85 cb 00 00 00    	jne    4080 <_Z11setcountersiPPc+0x240>
    3fb5:	83 7c 24 0c 01       	cmpl   $0x1,0xc(%rsp)
    3fba:	8b 05 10 93 00 00    	mov    0x9310(%rip),%eax        # d2d0 <UsePMC>
    3fc0:	0f 84 9a 00 00 00    	je     4060 <_Z11setcountersiPPc+0x220>
    3fc6:	85 c0                	test   %eax,%eax
    3fc8:	74 86                	je     3f50 <_Z11setcountersiPPc+0x110>
    3fca:	89 ee                	mov    %ebp,%esi
    3fcc:	48 8d 3d 0d 94 80 00 	lea    0x80940d(%rip),%rdi        # 80d3e0 <MSRCounters>
    3fd3:	49 83 c5 01          	add    $0x1,%r13
    3fd7:	e8 b4 dd ff ff       	call   1d90 <_ZN9CCounters12StopCountersEi.part.0>
    3fdc:	44 39 2d f5 92 00 00 	cmp    %r13d,0x92f5(%rip)        # d2d8 <NumThreads>
    3fe3:	0f 8f 78 ff ff ff    	jg     3f61 <_Z11setcountersiPPc+0x121>
    3fe9:	0f 1f 80 00 00 00 00 	nopl   0x0(%rax)
    3ff0:	48 8d 3d e9 93 80 00 	lea    0x8093e9(%rip),%rdi        # 80d3e0 <MSRCounters>
    3ff7:	e8 14 e5 ff ff       	call   2510 <_ZN9CCounters7CleanUpEv>
    3ffc:	83 7c 24 0c 01       	cmpl   $0x1,0xc(%rsp)
    4001:	0f 84 58 01 00 00    	je     415f <_Z11setcountersiPPc+0x31f>
    4007:	8b 15 bb 92 00 00    	mov    0x92bb(%rip),%edx        # d2c8 <NumCounters>
    400d:	44 89 e1             	mov    %r12d,%ecx
    4010:	bf 01 00 00 00       	mov    $0x1,%edi
    4015:	31 c0                	xor    %eax,%eax
    4017:	48 8d 35 92 11 00 00 	lea    0x1192(%rip),%rsi        # 51b0 <_IO_stdin_used+0x1b0>
    401e:	e8 0d d0 ff ff       	call   1030 <__printf_chk@plt>
    4023:	bf 0a 00 00 00       	mov    $0xa,%edi
    4028:	e8 a3 d0 ff ff       	call   10d0 <putchar@plt>
    402d:	31 c0                	xor    %eax,%eax
    402f:	48 8b b4 24 18 01 00 	mov    0x118(%rsp),%rsi
    4036:	00 
    4037:	64 48 33 34 25 28 00 	xor    %fs:0x28,%rsi
    403e:	00 00 
    4040:	0f 85 9b 01 00 00    	jne    41e1 <_Z11setcountersiPPc+0x3a1>
    4046:	48 81 c4 28 01 00 00 	add    $0x128,%rsp
    404d:	5b                   	pop    %rbx
    404e:	5d                   	pop    %rbp
    404f:	41 5c                	pop    %r12
    4051:	41 5d                	pop    %r13
    4053:	41 5e                	pop    %r14
    4055:	41 5f                	pop    %r15
    4057:	c3                   	ret    
    4058:	0f 1f 84 00 00 00 00 	nopl   0x0(%rax,%rax,1)
    405f:	00 
    4060:	85 c0                	test   %eax,%eax
    4062:	0f 84 e8 fe ff ff    	je     3f50 <_Z11setcountersiPPc+0x110>
    4068:	89 ee                	mov    %ebp,%esi
    406a:	48 8d 3d 6f 93 80 00 	lea    0x80936f(%rip),%rdi        # 80d3e0 <MSRCounters>
    4071:	e8 6a df ff ff       	call   1fe0 <_ZN9CCounters13StartCountersEi.part.0>
    4076:	e9 d5 fe ff ff       	jmp    3f50 <_Z11setcountersiPPc+0x110>
    407b:	0f 1f 44 00 00       	nopl   0x0(%rax,%rax,1)
    4080:	44 89 f2             	mov    %r14d,%edx
    4083:	48 8d 35 e6 0f 00 00 	lea    0xfe6(%rip),%rsi        # 5070 <_IO_stdin_used+0x70>
    408a:	bf 01 00 00 00       	mov    $0x1,%edi
    408f:	31 c0                	xor    %eax,%eax
    4091:	e8 9a cf ff ff       	call   1030 <__printf_chk@plt>
    4096:	e9 1a ff ff ff       	jmp    3fb5 <_Z11setcountersiPPc+0x175>
    409b:	83 7c 24 0c 02       	cmpl   $0x2,0xc(%rsp)
    40a0:	41 be 64 00 00 00    	mov    $0x64,%r14d
    40a6:	b8 00 00 00 00       	mov    $0x0,%eax
    40ab:	44 0f 45 f0          	cmovne %eax,%r14d
    40af:	4c 8d 3d 8a 8b 00 00 	lea    0x8b8a(%rip),%r15        # cc40 <CounterTypesDesired>
    40b6:	31 db                	xor    %ebx,%ebx
    40b8:	eb 18                	jmp    40d2 <_Z11setcountersiPPc+0x292>
    40ba:	66 0f 1f 44 00 00    	nopw   0x0(%rax,%rax,1)
    40c0:	41 89 04 9f          	mov    %eax,(%r15,%rbx,4)
    40c4:	48 83 c3 01          	add    $0x1,%rbx
    40c8:	48 83 fb 08          	cmp    $0x8,%rbx
    40cc:	0f 84 ca fd ff ff    	je     3e9c <_Z11setcountersiPPc+0x5c>
    40d2:	8d 53 02             	lea    0x2(%rbx),%edx
    40d5:	44 89 f0             	mov    %r14d,%eax
    40d8:	41 39 d5             	cmp    %edx,%r13d
    40db:	7e e3                	jle    40c0 <_Z11setcountersiPPc+0x280>
    40dd:	49 8b 7c dc 10       	mov    0x10(%r12,%rbx,8),%rdi
    40e2:	ba 0a 00 00 00       	mov    $0xa,%edx
    40e7:	31 f6                	xor    %esi,%esi
    40e9:	e8 f2 cf ff ff       	call   10e0 <strtol@plt>
    40ee:	eb d0                	jmp    40c0 <_Z11setcountersiPPc+0x280>
    40f0:	48 8d 3d e9 92 80 00 	lea    0x8092e9(%rip),%rdi        # 80d3e0 <MSRCounters>
    40f7:	e8 44 dc ff ff       	call   1d40 <_ZN9CCounters11StartDriverEv.part.0>
    40fc:	85 c0                	test   %eax,%eax
    40fe:	0f 84 2d fe ff ff    	je     3f31 <_Z11setcountersiPPc+0xf1>
    4104:	e9 26 ff ff ff       	jmp    402f <_Z11setcountersiPPc+0x1ef>
    4109:	48 8d 35 d3 11 00 00 	lea    0x11d3(%rip),%rsi        # 52e3 <_IO_stdin_used+0x2e3>
    4110:	bf 01 00 00 00       	mov    $0x1,%edi
    4115:	31 c0                	xor    %eax,%eax
    4117:	e8 14 cf ff ff       	call   1030 <__printf_chk@plt>
    411c:	e9 a1 fd ff ff       	jmp    3ec2 <_Z11setcountersiPPc+0x82>
    4121:	48 8d 35 ae 11 00 00 	lea    0x11ae(%rip),%rsi        # 52d6 <_IO_stdin_used+0x2d6>
    4128:	4c 89 f7             	mov    %r14,%rdi
    412b:	e8 10 cf ff ff       	call   1040 <strstr@plt>
    4130:	c7 44 24 0c 02 00 00 	movl   $0x2,0xc(%rsp)
    4137:	00 
    4138:	48 85 c0             	test   %rax,%rax
    413b:	0f 85 51 fd ff ff    	jne    3e92 <_Z11setcountersiPPc+0x52>
    4141:	4c 89 f2             	mov    %r14,%rdx
    4144:	48 8d 35 0d 10 00 00 	lea    0x100d(%rip),%rsi        # 5158 <_IO_stdin_used+0x158>
    414b:	bf 01 00 00 00       	mov    $0x1,%edi
    4150:	e8 db ce ff ff       	call   1030 <__printf_chk@plt>
    4155:	b8 01 00 00 00       	mov    $0x1,%eax
    415a:	e9 d0 fe ff ff       	jmp    402f <_Z11setcountersiPPc+0x1ef>
    415f:	8b 15 63 91 00 00    	mov    0x9163(%rip),%edx        # d2c8 <NumCounters>
    4165:	44 89 e1             	mov    %r12d,%ecx
    4168:	bf 01 00 00 00       	mov    $0x1,%edi
    416d:	31 c0                	xor    %eax,%eax
    416f:	48 8d 35 0a 10 00 00 	lea    0x100a(%rip),%rsi        # 5180 <_IO_stdin_used+0x180>
    4176:	31 db                	xor    %ebx,%ebx
    4178:	4c 8d 2d 71 92 80 00 	lea    0x809271(%rip),%r13        # 80d3f0 <MSRCounters+0x10>
    417f:	e8 ac ce ff ff       	call   1030 <__printf_chk@plt>
    4184:	48 8d 35 72 11 00 00 	lea    0x1172(%rip),%rsi        # 52fd <_IO_stdin_used+0x2fd>
    418b:	31 c0                	xor    %eax,%eax
    418d:	bf 01 00 00 00       	mov    $0x1,%edi
    4192:	e8 99 ce ff ff       	call   1030 <__printf_chk@plt>
    4197:	8b 05 2b 91 00 00    	mov    0x912b(%rip),%eax        # d2c8 <NumCounters>
    419d:	4c 8d 25 4c 91 00 00 	lea    0x914c(%rip),%r12        # d2f0 <Counters>
    41a4:	48 8d 2d 70 11 00 00 	lea    0x1170(%rip),%rbp        # 531b <_IO_stdin_used+0x31b>
    41ab:	85 c0                	test   %eax,%eax
    41ad:	0f 8e 70 fe ff ff    	jle    4023 <_Z11setcountersiPPc+0x1e3>
    41b3:	0f 1f 44 00 00       	nopl   0x0(%rax,%rax,1)
    41b8:	49 8b 4c dd 00       	mov    0x0(%r13,%rbx,8),%rcx
    41bd:	41 8b 14 9c          	mov    (%r12,%rbx,4),%edx
    41c1:	31 c0                	xor    %eax,%eax
    41c3:	48 89 ee             	mov    %rbp,%rsi
    41c6:	bf 01 00 00 00       	mov    $0x1,%edi
    41cb:	48 83 c3 01          	add    $0x1,%rbx
    41cf:	e8 5c ce ff ff       	call   1030 <__printf_chk@plt>
    41d4:	39 1d ee 90 00 00    	cmp    %ebx,0x90ee(%rip)        # d2c8 <NumCounters>
    41da:	7f dc                	jg     41b8 <_Z11setcountersiPPc+0x378>
    41dc:	e9 42 fe ff ff       	jmp    4023 <_Z11setcountersiPPc+0x1e3>
    41e1:	e8 da ce ff ff       	call   10c0 <__stack_chk_fail@plt>
    41e6:	66 2e 0f 1f 84 00 00 	cs nopw 0x0(%rax,%rax,1)
    41ed:	00 00 00 

00000000000041f0 <_ZN9CCounters26GetP4EventSelectRegAddressEii>:
    41f0:	f3 0f 1e fa          	endbr64 
    41f4:	83 ff 11             	cmp    $0x11,%edi
    41f7:	77 37                	ja     4230 <_ZN9CCounters26GetP4EventSelectRegAddressEii+0x40>
    41f9:	8d 47 fd             	lea    -0x3(%rdi),%eax
    41fc:	83 ff 0f             	cmp    $0xf,%edi
    41ff:	0f 47 f8             	cmova  %eax,%edi
    4202:	83 fe 07             	cmp    $0x7,%esi
    4205:	77 29                	ja     4230 <_ZN9CCounters26GetP4EventSelectRegAddressEii+0x40>
    4207:	89 f8                	mov    %edi,%eax
    4209:	48 63 f6             	movslq %esi,%rsi
    420c:	c1 e8 02             	shr    $0x2,%eax
    420f:	48 8d 14 c6          	lea    (%rsi,%rax,8),%rdx
    4213:	48 8d 05 06 15 00 00 	lea    0x1506(%rip),%rax        # 5720 <_ZZN9CCounters26GetP4EventSelectRegAddressEiiE17TranslationTables>
    421a:	8b 04 90             	mov    (%rax,%rdx,4),%eax
    421d:	85 c0                	test   %eax,%eax
    421f:	78 14                	js     4235 <_ZN9CCounters26GetP4EventSelectRegAddressEii+0x45>
    4221:	83 e7 02             	and    $0x2,%edi
    4224:	83 ff 01             	cmp    $0x1,%edi
    4227:	83 d8 ff             	sbb    $0xffffffff,%eax
    422a:	c3                   	ret    
    422b:	0f 1f 44 00 00       	nopl   0x0(%rax,%rax,1)
    4230:	b8 ff ff ff ff       	mov    $0xffffffff,%eax
    4235:	c3                   	ret    
    4236:	66 2e 0f 1f 84 00 00 	cs nopw 0x0(%rax,%rax,1)
    423d:	00 00 00 

0000000000004240 <_ZN9CCountersD1Ev>:
    4240:	f3 0f 1e fa          	endbr64 
    4244:	8b 7f 08             	mov    0x8(%rdi),%edi
    4247:	85 ff                	test   %edi,%edi
    4249:	75 05                	jne    4250 <_ZN9CCountersD1Ev+0x10>
    424b:	c3                   	ret    
    424c:	0f 1f 40 00          	nopl   0x0(%rax)
    4250:	48 83 ec 08          	sub    $0x8,%rsp
    4254:	e8 d7 ce ff ff       	call   1130 <close@plt>
    4259:	48 83 c4 08          	add    $0x8,%rsp
    425d:	c3                   	ret    
    425e:	66 90                	xchg   %ax,%ax

0000000000004260 <TestLoop>:
    4260:	53                   	push   %rbx
    4261:	55                   	push   %rbp
    4262:	41 54                	push   %r12
    4264:	41 55                	push   %r13
    4266:	41 56                	push   %r14
    4268:	41 57                	push   %r15
    426a:	41 89 ff             	mov    %edi,%r15d
    426d:	b9 10 27 00 00       	mov    $0x2710,%ecx
    4272:	b8 01 00 00 00       	mov    $0x1,%eax
    4277:	90                   	nop
    4278:	90                   	nop
    4279:	90                   	nop
    427a:	90                   	nop
    427b:	90                   	nop
    427c:	90                   	nop
    427d:	90                   	nop
    427e:	90                   	nop
    427f:	90                   	nop

0000000000004280 <Warmuploop>:
    4280:	0f af c1             	imul   %ecx,%eax
    4283:	0f af c1             	imul   %ecx,%eax
    4286:	0f af c1             	imul   %ecx,%eax
    4289:	0f af c1             	imul   %ecx,%eax
    428c:	0f af c1             	imul   %ecx,%eax
    428f:	0f af c1             	imul   %ecx,%eax
    4292:	0f af c1             	imul   %ecx,%eax
    4295:	0f af c1             	imul   %ecx,%eax
    4298:	0f af c1             	imul   %ecx,%eax
    429b:	0f af c1             	imul   %ecx,%eax
    429e:	ff c9                	dec    %ecx
    42a0:	75 de                	jne    4280 <Warmuploop>
    42a2:	9b db e3             	finit  
    42a5:	c5 fc 77             	vzeroall 
    42a8:	41 69 c7 00 04 00 00 	imul   $0x400,%r15d,%eax
    42af:	48 8d 35 ca 90 00 00 	lea    0x90ca(%rip),%rsi        # d380 <UserData>
    42b6:	48 01 c6             	add    %rax,%rsi
    42b9:	48 8d be 00 02 00 00 	lea    0x200(%rsi),%rdi
    42c0:	31 ed                	xor    %ebp,%ebp
    42c2:	4c 8d 2d b7 89 00 00 	lea    0x89b7(%rip),%r13        # cc80 <ThreadData>
    42c9:	41 69 c7 40 06 00 00 	imul   $0x640,%r15d,%eax
    42d0:	49 01 c5             	add    %rax,%r13
    42d3:	49 89 a5 10 06 00 00 	mov    %rsp,0x610(%r13)
    42da:	45 31 f6             	xor    %r14d,%r14d

00000000000042dd <TEST_LOOP_1>:
    42dd:	31 c0                	xor    %eax,%eax
    42df:	0f a2                	cpuid  
    42e1:	8b 0d 09 90 00 00    	mov    0x9009(%rip),%ecx        # d2f0 <Counters>
    42e7:	0f 33                	rdpmc  
    42e9:	41 89 45 04          	mov    %eax,0x4(%r13)
    42ed:	8b 0d 01 90 00 00    	mov    0x9001(%rip),%ecx        # d2f4 <Counters+0x4>
    42f3:	0f 33                	rdpmc  
    42f5:	41 89 45 08          	mov    %eax,0x8(%r13)
    42f9:	8b 0d f9 8f 00 00    	mov    0x8ff9(%rip),%ecx        # d2f8 <Counters+0x8>
    42ff:	0f 33                	rdpmc  
    4301:	41 89 45 0c          	mov    %eax,0xc(%r13)
    4305:	8b 0d f1 8f 00 00    	mov    0x8ff1(%rip),%ecx        # d2fc <Counters+0xc>
    430b:	0f 33                	rdpmc  
    430d:	41 89 45 10          	mov    %eax,0x10(%r13)
    4311:	8b 0d e9 8f 00 00    	mov    0x8fe9(%rip),%ecx        # d300 <Counters+0x10>
    4317:	0f 33                	rdpmc  
    4319:	41 89 45 14          	mov    %eax,0x14(%r13)
    431d:	8b 0d e1 8f 00 00    	mov    0x8fe1(%rip),%ecx        # d304 <Counters+0x14>
    4323:	0f 33                	rdpmc  
    4325:	41 89 45 18          	mov    %eax,0x18(%r13)
    4329:	8b 0d d9 8f 00 00    	mov    0x8fd9(%rip),%ecx        # d308 <Counters+0x18>
    432f:	0f 33                	rdpmc  
    4331:	41 89 45 1c          	mov    %eax,0x1c(%r13)
    4335:	8b 0d d1 8f 00 00    	mov    0x8fd1(%rip),%ecx        # d30c <Counters+0x1c>
    433b:	0f 33                	rdpmc  
    433d:	41 89 45 20          	mov    %eax,0x20(%r13)
    4341:	31 c0                	xor    %eax,%eax
    4343:	0f a2                	cpuid  
    4345:	0f 31                	rdtsc  
    4347:	41 89 45 00          	mov    %eax,0x0(%r13)
    434b:	31 c0                	xor    %eax,%eax
    434d:	0f a2                	cpuid  
    434f:	31 c0                	xor    %eax,%eax
    4351:	0f a2                	cpuid  
    4353:	0f 31                	rdtsc  
    4355:	41 29 45 00          	sub    %eax,0x0(%r13)
    4359:	31 c0                	xor    %eax,%eax
    435b:	0f a2                	cpuid  
    435d:	8b 0d 8d 8f 00 00    	mov    0x8f8d(%rip),%ecx        # d2f0 <Counters>
    4363:	0f 33                	rdpmc  
    4365:	41 29 45 04          	sub    %eax,0x4(%r13)
    4369:	8b 0d 85 8f 00 00    	mov    0x8f85(%rip),%ecx        # d2f4 <Counters+0x4>
    436f:	0f 33                	rdpmc  
    4371:	41 29 45 08          	sub    %eax,0x8(%r13)
    4375:	8b 0d 7d 8f 00 00    	mov    0x8f7d(%rip),%ecx        # d2f8 <Counters+0x8>
    437b:	0f 33                	rdpmc  
    437d:	41 29 45 0c          	sub    %eax,0xc(%r13)
    4381:	8b 0d 75 8f 00 00    	mov    0x8f75(%rip),%ecx        # d2fc <Counters+0xc>
    4387:	0f 33                	rdpmc  
    4389:	41 29 45 10          	sub    %eax,0x10(%r13)
    438d:	8b 0d 6d 8f 00 00    	mov    0x8f6d(%rip),%ecx        # d300 <Counters+0x10>
    4393:	0f 33                	rdpmc  
    4395:	41 29 45 14          	sub    %eax,0x14(%r13)
    4399:	8b 0d 65 8f 00 00    	mov    0x8f65(%rip),%ecx        # d304 <Counters+0x14>
    439f:	0f 33                	rdpmc  
    43a1:	41 29 45 18          	sub    %eax,0x18(%r13)
    43a5:	8b 0d 5d 8f 00 00    	mov    0x8f5d(%rip),%ecx        # d308 <Counters+0x18>
    43ab:	0f 33                	rdpmc  
    43ad:	41 29 45 1c          	sub    %eax,0x1c(%r13)
    43b1:	8b 0d 55 8f 00 00    	mov    0x8f55(%rip),%ecx        # d30c <Counters+0x1c>
    43b7:	0f 33                	rdpmc  
    43b9:	41 29 45 20          	sub    %eax,0x20(%r13)
    43bd:	31 c0                	xor    %eax,%eax
    43bf:	0f a2                	cpuid  
    43c1:	41 8b 45 00          	mov    0x0(%r13),%eax
    43c5:	f7 d8                	neg    %eax
    43c7:	41 8b 5d 48          	mov    0x48(%r13),%ebx
    43cb:	39 d8                	cmp    %ebx,%eax
    43cd:	0f 42 d8             	cmovb  %eax,%ebx
    43d0:	41 89 5d 48          	mov    %ebx,0x48(%r13)
    43d4:	41 8b 45 04          	mov    0x4(%r13),%eax
    43d8:	f7 d8                	neg    %eax
    43da:	41 8b 5d 4c          	mov    0x4c(%r13),%ebx
    43de:	39 d8                	cmp    %ebx,%eax
    43e0:	0f 42 d8             	cmovb  %eax,%ebx
    43e3:	41 89 5d 4c          	mov    %ebx,0x4c(%r13)
    43e7:	41 8b 45 08          	mov    0x8(%r13),%eax
    43eb:	f7 d8                	neg    %eax
    43ed:	41 8b 5d 50          	mov    0x50(%r13),%ebx
    43f1:	39 d8                	cmp    %ebx,%eax
    43f3:	0f 42 d8             	cmovb  %eax,%ebx
    43f6:	41 89 5d 50          	mov    %ebx,0x50(%r13)
    43fa:	41 8b 45 0c          	mov    0xc(%r13),%eax
    43fe:	f7 d8                	neg    %eax
    4400:	41 8b 5d 54          	mov    0x54(%r13),%ebx
    4404:	39 d8                	cmp    %ebx,%eax
    4406:	0f 42 d8             	cmovb  %eax,%ebx
    4409:	41 89 5d 54          	mov    %ebx,0x54(%r13)
    440d:	41 8b 45 10          	mov    0x10(%r13),%eax
    4411:	f7 d8                	neg    %eax
    4413:	41 8b 5d 58          	mov    0x58(%r13),%ebx
    4417:	39 d8                	cmp    %ebx,%eax
    4419:	0f 42 d8             	cmovb  %eax,%ebx
    441c:	41 89 5d 58          	mov    %ebx,0x58(%r13)
    4420:	41 8b 45 14          	mov    0x14(%r13),%eax
    4424:	f7 d8                	neg    %eax
    4426:	41 8b 5d 5c          	mov    0x5c(%r13),%ebx
    442a:	39 d8                	cmp    %ebx,%eax
    442c:	0f 42 d8             	cmovb  %eax,%ebx
    442f:	41 89 5d 5c          	mov    %ebx,0x5c(%r13)
    4433:	41 8b 45 18          	mov    0x18(%r13),%eax
    4437:	f7 d8                	neg    %eax
    4439:	41 8b 5d 60          	mov    0x60(%r13),%ebx
    443d:	39 d8                	cmp    %ebx,%eax
    443f:	0f 42 d8             	cmovb  %eax,%ebx
    4442:	41 89 5d 60          	mov    %ebx,0x60(%r13)
    4446:	41 8b 45 1c          	mov    0x1c(%r13),%eax
    444a:	f7 d8                	neg    %eax
    444c:	41 8b 5d 64          	mov    0x64(%r13),%ebx
    4450:	39 d8                	cmp    %ebx,%eax
    4452:	0f 42 d8             	cmovb  %eax,%ebx
    4455:	41 89 5d 64          	mov    %ebx,0x64(%r13)
    4459:	41 8b 45 20          	mov    0x20(%r13),%eax
    445d:	f7 d8                	neg    %eax
    445f:	41 8b 5d 68          	mov    0x68(%r13),%ebx
    4463:	39 d8                	cmp    %ebx,%eax
    4465:	0f 42 d8             	cmovb  %eax,%ebx
    4468:	41 89 5d 68          	mov    %ebx,0x68(%r13)
    446c:	41 ff c6             	inc    %r14d
    446f:	41 83 fe 04          	cmp    $0x4,%r14d
    4473:	0f 82 64 fe ff ff    	jb     42dd <TEST_LOOP_1>
    4479:	45 31 f6             	xor    %r14d,%r14d

000000000000447c <TEST_LOOP_2>:
    447c:	bb 40 1f 00 00       	mov    $0x1f40,%ebx
    4481:	48 8d 3d f8 8e 00 00 	lea    0x8ef8(%rip),%rdi        # d380 <UserData>

0000000000004488 <rand_loop>:
    4488:	0f c7 f0             	rdrand %eax
    448b:	83 e0 01             	and    $0x1,%eax
    448e:	88 07                	mov    %al,(%rdi)
    4490:	48 ff c7             	inc    %rdi
    4493:	ff cb                	dec    %ebx
    4495:	75 f1                	jne    4488 <rand_loop>
    4497:	31 c0                	xor    %eax,%eax
    4499:	0f a2                	cpuid  
    449b:	8b 0d 4f 8e 00 00    	mov    0x8e4f(%rip),%ecx        # d2f0 <Counters>
    44a1:	0f 33                	rdpmc  
    44a3:	41 89 45 04          	mov    %eax,0x4(%r13)
    44a7:	8b 0d 47 8e 00 00    	mov    0x8e47(%rip),%ecx        # d2f4 <Counters+0x4>
    44ad:	0f 33                	rdpmc  
    44af:	41 89 45 08          	mov    %eax,0x8(%r13)
    44b3:	8b 0d 3f 8e 00 00    	mov    0x8e3f(%rip),%ecx        # d2f8 <Counters+0x8>
    44b9:	0f 33                	rdpmc  
    44bb:	41 89 45 0c          	mov    %eax,0xc(%r13)
    44bf:	8b 0d 37 8e 00 00    	mov    0x8e37(%rip),%ecx        # d2fc <Counters+0xc>
    44c5:	0f 33                	rdpmc  
    44c7:	41 89 45 10          	mov    %eax,0x10(%r13)
    44cb:	8b 0d 2f 8e 00 00    	mov    0x8e2f(%rip),%ecx        # d300 <Counters+0x10>
    44d1:	0f 33                	rdpmc  
    44d3:	41 89 45 14          	mov    %eax,0x14(%r13)
    44d7:	8b 0d 27 8e 00 00    	mov    0x8e27(%rip),%ecx        # d304 <Counters+0x14>
    44dd:	0f 33                	rdpmc  
    44df:	41 89 45 18          	mov    %eax,0x18(%r13)
    44e3:	8b 0d 1f 8e 00 00    	mov    0x8e1f(%rip),%ecx        # d308 <Counters+0x18>
    44e9:	0f 33                	rdpmc  
    44eb:	41 89 45 1c          	mov    %eax,0x1c(%r13)
    44ef:	8b 0d 17 8e 00 00    	mov    0x8e17(%rip),%ecx        # d30c <Counters+0x1c>
    44f5:	0f 33                	rdpmc  
    44f7:	41 89 45 20          	mov    %eax,0x20(%r13)
    44fb:	31 c0                	xor    %eax,%eax
    44fd:	0f a2                	cpuid  
    44ff:	0f 31                	rdtsc  
    4501:	41 89 45 00          	mov    %eax,0x0(%r13)
    4505:	31 c0                	xor    %eax,%eax
    4507:	0f a2                	cpuid  

0000000000004509 <Test_start>:
    4509:	48 8d 3d 70 8e 00 00 	lea    0x8e70(%rip),%rdi        # d380 <UserData>
    4510:	41 bc e8 03 00 00    	mov    $0x3e8,%r12d
    4516:	90                   	nop
    4517:	90                   	nop
    4518:	90                   	nop
    4519:	90                   	nop
    451a:	90                   	nop
    451b:	90                   	nop
    451c:	90                   	nop
    451d:	90                   	nop
    451e:	90                   	nop
    451f:	90                   	nop

0000000000004520 <REPETITIONS1LOOP>:
    4520:	48 ff c7             	inc    %rdi
    4523:	80 3f 00             	cmpb   $0x0,(%rdi)
    4526:	90                   	nop
    4527:	90                   	nop
    4528:	74 02                	je     452c <target1>
    452a:	90                   	nop
    452b:	90                   	nop

000000000000452c <target1>:
    452c:	b8 00 00 00 00       	mov    $0x0,%eax

0000000000004531 <label0>:
    4531:	48 83 f8 00          	cmp    $0x0,%rax
    4535:	74 00                	je     4537 <label1>

0000000000004537 <label1>:
    4537:	48 83 f8 00          	cmp    $0x0,%rax
    453b:	74 00                	je     453d <label2>

000000000000453d <label2>:
    453d:	48 83 f8 00          	cmp    $0x0,%rax
    4541:	74 00                	je     4543 <label3>

0000000000004543 <label3>:
    4543:	48 83 f8 00          	cmp    $0x0,%rax
    4547:	74 00                	je     4549 <label4>

0000000000004549 <label4>:
    4549:	48 83 f8 00          	cmp    $0x0,%rax
    454d:	74 00                	je     454f <label5>

000000000000454f <label5>:
    454f:	48 83 f8 00          	cmp    $0x0,%rax
    4553:	74 00                	je     4555 <label6>

0000000000004555 <label6>:
    4555:	48 83 f8 00          	cmp    $0x0,%rax
    4559:	74 00                	je     455b <label7>

000000000000455b <label7>:
    455b:	48 83 f8 00          	cmp    $0x0,%rax
    455f:	74 00                	je     4561 <label8>

0000000000004561 <label8>:
    4561:	48 83 f8 00          	cmp    $0x0,%rax
    4565:	74 00                	je     4567 <label9>

0000000000004567 <label9>:
    4567:	48 83 f8 00          	cmp    $0x0,%rax
    456b:	74 00                	je     456d <label10>

000000000000456d <label10>:
    456d:	48 83 f8 00          	cmp    $0x0,%rax
    4571:	74 00                	je     4573 <label11>

0000000000004573 <label11>:
    4573:	48 83 f8 00          	cmp    $0x0,%rax
    4577:	74 00                	je     4579 <label12>

0000000000004579 <label12>:
    4579:	48 83 f8 00          	cmp    $0x0,%rax
    457d:	74 00                	je     457f <label13>

000000000000457f <label13>:
    457f:	48 83 f8 00          	cmp    $0x0,%rax
    4583:	74 00                	je     4585 <label14>

0000000000004585 <label14>:
    4585:	48 83 f8 00          	cmp    $0x0,%rax
    4589:	74 00                	je     458b <label15>

000000000000458b <label15>:
    458b:	48 83 f8 00          	cmp    $0x0,%rax
    458f:	74 00                	je     4591 <label16>

0000000000004591 <label16>:
    4591:	48 83 f8 00          	cmp    $0x0,%rax
    4595:	74 00                	je     4597 <label17>

0000000000004597 <label17>:
    4597:	48 83 f8 00          	cmp    $0x0,%rax
    459b:	74 00                	je     459d <label18>

000000000000459d <label18>:
    459d:	48 83 f8 00          	cmp    $0x0,%rax
    45a1:	74 00                	je     45a3 <label19>

00000000000045a3 <label19>:
    45a3:	48 83 f8 00          	cmp    $0x0,%rax
    45a7:	74 00                	je     45a9 <label20>

00000000000045a9 <label20>:
    45a9:	48 83 f8 00          	cmp    $0x0,%rax
    45ad:	74 00                	je     45af <label21>

00000000000045af <label21>:
    45af:	48 83 f8 00          	cmp    $0x0,%rax
    45b3:	74 00                	je     45b5 <label22>

00000000000045b5 <label22>:
    45b5:	48 83 f8 00          	cmp    $0x0,%rax
    45b9:	74 00                	je     45bb <label23>

00000000000045bb <label23>:
    45bb:	48 83 f8 00          	cmp    $0x0,%rax
    45bf:	74 00                	je     45c1 <label24>

00000000000045c1 <label24>:
    45c1:	48 83 f8 00          	cmp    $0x0,%rax
    45c5:	74 00                	je     45c7 <label25>

00000000000045c7 <label25>:
    45c7:	48 83 f8 00          	cmp    $0x0,%rax
    45cb:	74 00                	je     45cd <label26>

00000000000045cd <label26>:
    45cd:	48 83 f8 00          	cmp    $0x0,%rax
    45d1:	74 00                	je     45d3 <label27>

00000000000045d3 <label27>:
    45d3:	48 83 f8 00          	cmp    $0x0,%rax
    45d7:	74 00                	je     45d9 <label28>

00000000000045d9 <label28>:
    45d9:	48 83 f8 00          	cmp    $0x0,%rax
    45dd:	74 00                	je     45df <label29>

00000000000045df <label29>:
    45df:	48 83 f8 00          	cmp    $0x0,%rax
    45e3:	74 00                	je     45e5 <label30>

00000000000045e5 <label30>:
    45e5:	48 83 f8 00          	cmp    $0x0,%rax
    45e9:	74 00                	je     45eb <label31>

00000000000045eb <label31>:
    45eb:	48 83 f8 00          	cmp    $0x0,%rax
    45ef:	74 00                	je     45f1 <label32>

00000000000045f1 <label32>:
    45f1:	48 83 f8 00          	cmp    $0x0,%rax
    45f5:	74 00                	je     45f7 <label33>

00000000000045f7 <label33>:
    45f7:	48 83 f8 00          	cmp    $0x0,%rax
    45fb:	74 00                	je     45fd <label34>

00000000000045fd <label34>:
    45fd:	48 83 f8 00          	cmp    $0x0,%rax
    4601:	74 00                	je     4603 <label35>

0000000000004603 <label35>:
    4603:	48 83 f8 00          	cmp    $0x0,%rax
    4607:	74 00                	je     4609 <label36>

0000000000004609 <label36>:
    4609:	48 83 f8 00          	cmp    $0x0,%rax
    460d:	74 00                	je     460f <label37>

000000000000460f <label37>:
    460f:	48 83 f8 00          	cmp    $0x0,%rax
    4613:	74 00                	je     4615 <label38>

0000000000004615 <label38>:
    4615:	48 83 f8 00          	cmp    $0x0,%rax
    4619:	74 00                	je     461b <label39>

000000000000461b <label39>:
    461b:	48 83 f8 00          	cmp    $0x0,%rax
    461f:	74 00                	je     4621 <label40>

0000000000004621 <label40>:
    4621:	48 83 f8 00          	cmp    $0x0,%rax
    4625:	74 00                	je     4627 <label41>

0000000000004627 <label41>:
    4627:	48 83 f8 00          	cmp    $0x0,%rax
    462b:	74 00                	je     462d <label42>

000000000000462d <label42>:
    462d:	48 83 f8 00          	cmp    $0x0,%rax
    4631:	74 00                	je     4633 <label43>

0000000000004633 <label43>:
    4633:	48 83 f8 00          	cmp    $0x0,%rax
    4637:	74 00                	je     4639 <label44>

0000000000004639 <label44>:
    4639:	48 83 f8 00          	cmp    $0x0,%rax
    463d:	74 00                	je     463f <label45>

000000000000463f <label45>:
    463f:	48 83 f8 00          	cmp    $0x0,%rax
    4643:	74 00                	je     4645 <label46>

0000000000004645 <label46>:
    4645:	48 83 f8 00          	cmp    $0x0,%rax
    4649:	74 00                	je     464b <label47>

000000000000464b <label47>:
    464b:	48 83 f8 00          	cmp    $0x0,%rax
    464f:	74 00                	je     4651 <label48>

0000000000004651 <label48>:
    4651:	48 83 f8 00          	cmp    $0x0,%rax
    4655:	74 00                	je     4657 <label49>

0000000000004657 <label49>:
    4657:	48 83 f8 00          	cmp    $0x0,%rax
    465b:	74 00                	je     465d <label50>

000000000000465d <label50>:
    465d:	48 83 f8 00          	cmp    $0x0,%rax
    4661:	74 00                	je     4663 <label51>

0000000000004663 <label51>:
    4663:	48 83 f8 00          	cmp    $0x0,%rax
    4667:	74 00                	je     4669 <label52>

0000000000004669 <label52>:
    4669:	48 83 f8 00          	cmp    $0x0,%rax
    466d:	74 00                	je     466f <label53>

000000000000466f <label53>:
    466f:	48 83 f8 00          	cmp    $0x0,%rax
    4673:	74 00                	je     4675 <label54>

0000000000004675 <label54>:
    4675:	48 83 f8 00          	cmp    $0x0,%rax
    4679:	74 00                	je     467b <label55>

000000000000467b <label55>:
    467b:	48 83 f8 00          	cmp    $0x0,%rax
    467f:	74 00                	je     4681 <label56>

0000000000004681 <label56>:
    4681:	48 83 f8 00          	cmp    $0x0,%rax
    4685:	74 00                	je     4687 <label57>

0000000000004687 <label57>:
    4687:	48 83 f8 00          	cmp    $0x0,%rax
    468b:	74 00                	je     468d <label58>

000000000000468d <label58>:
    468d:	48 83 f8 00          	cmp    $0x0,%rax
    4691:	74 00                	je     4693 <label59>

0000000000004693 <label59>:
    4693:	48 83 f8 00          	cmp    $0x0,%rax
    4697:	74 00                	je     4699 <label60>

0000000000004699 <label60>:
    4699:	48 83 f8 00          	cmp    $0x0,%rax
    469d:	74 00                	je     469f <label61>

000000000000469f <label61>:
    469f:	48 83 f8 00          	cmp    $0x0,%rax
    46a3:	74 00                	je     46a5 <label62>

00000000000046a5 <label62>:
    46a5:	48 83 f8 00          	cmp    $0x0,%rax
    46a9:	74 00                	je     46ab <label63>

00000000000046ab <label63>:
    46ab:	48 83 f8 00          	cmp    $0x0,%rax
    46af:	74 00                	je     46b1 <label64>

00000000000046b1 <label64>:
    46b1:	48 83 f8 00          	cmp    $0x0,%rax
    46b5:	74 00                	je     46b7 <label65>

00000000000046b7 <label65>:
    46b7:	48 83 f8 00          	cmp    $0x0,%rax
    46bb:	74 00                	je     46bd <label66>

00000000000046bd <label66>:
    46bd:	48 83 f8 00          	cmp    $0x0,%rax
    46c1:	74 00                	je     46c3 <label67>

00000000000046c3 <label67>:
    46c3:	48 83 f8 00          	cmp    $0x0,%rax
    46c7:	74 00                	je     46c9 <label68>

00000000000046c9 <label68>:
    46c9:	48 83 f8 00          	cmp    $0x0,%rax
    46cd:	74 00                	je     46cf <label69>

00000000000046cf <label69>:
    46cf:	48 83 f8 00          	cmp    $0x0,%rax
    46d3:	74 00                	je     46d5 <label70>

00000000000046d5 <label70>:
    46d5:	48 83 f8 00          	cmp    $0x0,%rax
    46d9:	74 00                	je     46db <label71>

00000000000046db <label71>:
    46db:	48 83 f8 00          	cmp    $0x0,%rax
    46df:	74 00                	je     46e1 <label72>

00000000000046e1 <label72>:
    46e1:	48 83 f8 00          	cmp    $0x0,%rax
    46e5:	74 00                	je     46e7 <label73>

00000000000046e7 <label73>:
    46e7:	48 83 f8 00          	cmp    $0x0,%rax
    46eb:	74 00                	je     46ed <label74>

00000000000046ed <label74>:
    46ed:	48 83 f8 00          	cmp    $0x0,%rax
    46f1:	74 00                	je     46f3 <label75>

00000000000046f3 <label75>:
    46f3:	48 83 f8 00          	cmp    $0x0,%rax
    46f7:	74 00                	je     46f9 <label76>

00000000000046f9 <label76>:
    46f9:	48 83 f8 00          	cmp    $0x0,%rax
    46fd:	74 00                	je     46ff <label77>

00000000000046ff <label77>:
    46ff:	48 83 f8 00          	cmp    $0x0,%rax
    4703:	74 00                	je     4705 <label78>

0000000000004705 <label78>:
    4705:	48 83 f8 00          	cmp    $0x0,%rax
    4709:	74 00                	je     470b <label79>

000000000000470b <label79>:
    470b:	48 83 f8 00          	cmp    $0x0,%rax
    470f:	74 00                	je     4711 <label80>

0000000000004711 <label80>:
    4711:	48 83 f8 00          	cmp    $0x0,%rax
    4715:	74 00                	je     4717 <label81>

0000000000004717 <label81>:
    4717:	48 83 f8 00          	cmp    $0x0,%rax
    471b:	74 00                	je     471d <label82>

000000000000471d <label82>:
    471d:	48 83 f8 00          	cmp    $0x0,%rax
    4721:	74 00                	je     4723 <label83>

0000000000004723 <label83>:
    4723:	48 83 f8 00          	cmp    $0x0,%rax
    4727:	74 00                	je     4729 <label84>

0000000000004729 <label84>:
    4729:	48 83 f8 00          	cmp    $0x0,%rax
    472d:	74 00                	je     472f <label85>

000000000000472f <label85>:
    472f:	48 83 f8 00          	cmp    $0x0,%rax
    4733:	74 00                	je     4735 <label86>

0000000000004735 <label86>:
    4735:	48 83 f8 00          	cmp    $0x0,%rax
    4739:	74 00                	je     473b <label87>

000000000000473b <label87>:
    473b:	48 83 f8 00          	cmp    $0x0,%rax
    473f:	74 00                	je     4741 <label88>

0000000000004741 <label88>:
    4741:	48 83 f8 00          	cmp    $0x0,%rax
    4745:	74 00                	je     4747 <label89>

0000000000004747 <label89>:
    4747:	48 83 f8 00          	cmp    $0x0,%rax
    474b:	74 00                	je     474d <label90>

000000000000474d <label90>:
    474d:	48 83 f8 00          	cmp    $0x0,%rax
    4751:	74 00                	je     4753 <label91>

0000000000004753 <label91>:
    4753:	48 83 f8 00          	cmp    $0x0,%rax
    4757:	74 00                	je     4759 <label92>

0000000000004759 <label92>:
    4759:	48 83 f8 00          	cmp    $0x0,%rax
    475d:	74 00                	je     475f <label93>

000000000000475f <label93>:
    475f:	48 83 f8 00          	cmp    $0x0,%rax
    4763:	74 00                	je     4765 <label94>

0000000000004765 <label94>:
    4765:	48 83 f8 00          	cmp    $0x0,%rax
    4769:	74 00                	je     476b <label95>

000000000000476b <label95>:
    476b:	48 83 f8 00          	cmp    $0x0,%rax
    476f:	74 00                	je     4771 <label96>

0000000000004771 <label96>:
    4771:	48 83 f8 00          	cmp    $0x0,%rax
    4775:	74 00                	je     4777 <label97>

0000000000004777 <label97>:
    4777:	48 83 f8 00          	cmp    $0x0,%rax
    477b:	74 00                	je     477d <label98>

000000000000477d <label98>:
    477d:	48 83 f8 00          	cmp    $0x0,%rax
    4781:	74 00                	je     4783 <label99>

0000000000004783 <label99>:
    4783:	48 83 f8 00          	cmp    $0x0,%rax
    4787:	74 00                	je     4789 <label100>

0000000000004789 <label100>:
    4789:	48 83 f8 00          	cmp    $0x0,%rax
    478d:	74 00                	je     478f <label101>

000000000000478f <label101>:
    478f:	48 83 f8 00          	cmp    $0x0,%rax
    4793:	74 00                	je     4795 <label102>

0000000000004795 <label102>:
    4795:	48 83 f8 00          	cmp    $0x0,%rax
    4799:	74 00                	je     479b <label103>

000000000000479b <label103>:
    479b:	48 83 f8 00          	cmp    $0x0,%rax
    479f:	74 00                	je     47a1 <label104>

00000000000047a1 <label104>:
    47a1:	48 83 f8 00          	cmp    $0x0,%rax
    47a5:	74 00                	je     47a7 <label105>

00000000000047a7 <label105>:
    47a7:	48 83 f8 00          	cmp    $0x0,%rax
    47ab:	74 00                	je     47ad <label106>

00000000000047ad <label106>:
    47ad:	48 83 f8 00          	cmp    $0x0,%rax
    47b1:	74 00                	je     47b3 <label107>

00000000000047b3 <label107>:
    47b3:	48 83 f8 00          	cmp    $0x0,%rax
    47b7:	74 00                	je     47b9 <label108>

00000000000047b9 <label108>:
    47b9:	48 83 f8 00          	cmp    $0x0,%rax
    47bd:	74 00                	je     47bf <label109>

00000000000047bf <label109>:
    47bf:	48 83 f8 00          	cmp    $0x0,%rax
    47c3:	74 00                	je     47c5 <label110>

00000000000047c5 <label110>:
    47c5:	48 83 f8 00          	cmp    $0x0,%rax
    47c9:	74 00                	je     47cb <label111>

00000000000047cb <label111>:
    47cb:	48 83 f8 00          	cmp    $0x0,%rax
    47cf:	74 00                	je     47d1 <label112>

00000000000047d1 <label112>:
    47d1:	48 83 f8 00          	cmp    $0x0,%rax
    47d5:	74 00                	je     47d7 <label113>

00000000000047d7 <label113>:
    47d7:	48 83 f8 00          	cmp    $0x0,%rax
    47db:	74 00                	je     47dd <label114>

00000000000047dd <label114>:
    47dd:	48 83 f8 00          	cmp    $0x0,%rax
    47e1:	74 00                	je     47e3 <label115>

00000000000047e3 <label115>:
    47e3:	48 83 f8 00          	cmp    $0x0,%rax
    47e7:	74 00                	je     47e9 <label116>

00000000000047e9 <label116>:
    47e9:	48 83 f8 00          	cmp    $0x0,%rax
    47ed:	74 00                	je     47ef <label117>

00000000000047ef <label117>:
    47ef:	48 83 f8 00          	cmp    $0x0,%rax
    47f3:	74 00                	je     47f5 <label118>

00000000000047f5 <label118>:
    47f5:	48 83 f8 00          	cmp    $0x0,%rax
    47f9:	74 00                	je     47fb <label119>

00000000000047fb <label119>:
    47fb:	48 83 f8 00          	cmp    $0x0,%rax
    47ff:	74 00                	je     4801 <label120>

0000000000004801 <label120>:
    4801:	80 3f 00             	cmpb   $0x0,(%rdi)
    4804:	74 00                	je     4806 <target2>

0000000000004806 <target2>:
    4806:	41 ff cc             	dec    %r12d
    4809:	0f 85 11 fd ff ff    	jne    4520 <REPETITIONS1LOOP>

000000000000480f <THREAD2_END>:
    480f:	31 c0                	xor    %eax,%eax
    4811:	0f a2                	cpuid  
    4813:	0f 31                	rdtsc  
    4815:	41 29 45 00          	sub    %eax,0x0(%r13)
    4819:	31 c0                	xor    %eax,%eax
    481b:	0f a2                	cpuid  
    481d:	8b 0d cd 8a 00 00    	mov    0x8acd(%rip),%ecx        # d2f0 <Counters>
    4823:	0f 33                	rdpmc  
    4825:	41 29 45 04          	sub    %eax,0x4(%r13)
    4829:	8b 0d c5 8a 00 00    	mov    0x8ac5(%rip),%ecx        # d2f4 <Counters+0x4>
    482f:	0f 33                	rdpmc  
    4831:	41 29 45 08          	sub    %eax,0x8(%r13)
    4835:	8b 0d bd 8a 00 00    	mov    0x8abd(%rip),%ecx        # d2f8 <Counters+0x8>
    483b:	0f 33                	rdpmc  
    483d:	41 29 45 0c          	sub    %eax,0xc(%r13)
    4841:	8b 0d b5 8a 00 00    	mov    0x8ab5(%rip),%ecx        # d2fc <Counters+0xc>
    4847:	0f 33                	rdpmc  
    4849:	41 29 45 10          	sub    %eax,0x10(%r13)
    484d:	8b 0d ad 8a 00 00    	mov    0x8aad(%rip),%ecx        # d300 <Counters+0x10>
    4853:	0f 33                	rdpmc  
    4855:	41 29 45 14          	sub    %eax,0x14(%r13)
    4859:	8b 0d a5 8a 00 00    	mov    0x8aa5(%rip),%ecx        # d304 <Counters+0x14>
    485f:	0f 33                	rdpmc  
    4861:	41 29 45 18          	sub    %eax,0x18(%r13)
    4865:	8b 0d 9d 8a 00 00    	mov    0x8a9d(%rip),%ecx        # d308 <Counters+0x18>
    486b:	0f 33                	rdpmc  
    486d:	41 29 45 1c          	sub    %eax,0x1c(%r13)
    4871:	8b 0d 95 8a 00 00    	mov    0x8a95(%rip),%ecx        # d30c <Counters+0x1c>
    4877:	0f 33                	rdpmc  
    4879:	41 29 45 20          	sub    %eax,0x20(%r13)
    487d:	31 c0                	xor    %eax,%eax
    487f:	0f a2                	cpuid  
    4881:	41 8b 45 00          	mov    0x0(%r13),%eax
    4885:	f7 d8                	neg    %eax
    4887:	41 2b 45 48          	sub    0x48(%r13),%eax
    488b:	43 89 44 b5 6c       	mov    %eax,0x6c(%r13,%r14,4)
    4890:	41 8b 45 04          	mov    0x4(%r13),%eax
    4894:	f7 d8                	neg    %eax
    4896:	41 2b 45 4c          	sub    0x4c(%r13),%eax
    489a:	43 89 84 b5 0c 01 00 	mov    %eax,0x10c(%r13,%r14,4)
    48a1:	00 
    48a2:	41 8b 45 08          	mov    0x8(%r13),%eax
    48a6:	f7 d8                	neg    %eax
    48a8:	41 2b 45 50          	sub    0x50(%r13),%eax
    48ac:	43 89 84 b5 5c 01 00 	mov    %eax,0x15c(%r13,%r14,4)
    48b3:	00 
    48b4:	41 8b 45 0c          	mov    0xc(%r13),%eax
    48b8:	f7 d8                	neg    %eax
    48ba:	41 2b 45 54          	sub    0x54(%r13),%eax
    48be:	43 89 84 b5 ac 01 00 	mov    %eax,0x1ac(%r13,%r14,4)
    48c5:	00 
    48c6:	41 8b 45 10          	mov    0x10(%r13),%eax
    48ca:	f7 d8                	neg    %eax
    48cc:	41 2b 45 58          	sub    0x58(%r13),%eax
    48d0:	43 89 84 b5 fc 01 00 	mov    %eax,0x1fc(%r13,%r14,4)
    48d7:	00 
    48d8:	41 8b 45 14          	mov    0x14(%r13),%eax
    48dc:	f7 d8                	neg    %eax
    48de:	41 2b 45 5c          	sub    0x5c(%r13),%eax
    48e2:	43 89 84 b5 4c 02 00 	mov    %eax,0x24c(%r13,%r14,4)
    48e9:	00 
    48ea:	41 8b 45 18          	mov    0x18(%r13),%eax
    48ee:	f7 d8                	neg    %eax
    48f0:	41 2b 45 60          	sub    0x60(%r13),%eax
    48f4:	43 89 84 b5 9c 02 00 	mov    %eax,0x29c(%r13,%r14,4)
    48fb:	00 
    48fc:	41 8b 45 1c          	mov    0x1c(%r13),%eax
    4900:	f7 d8                	neg    %eax
    4902:	41 2b 45 64          	sub    0x64(%r13),%eax
    4906:	43 89 84 b5 ec 02 00 	mov    %eax,0x2ec(%r13,%r14,4)
    490d:	00 
    490e:	41 8b 45 20          	mov    0x20(%r13),%eax
    4912:	f7 d8                	neg    %eax
    4914:	41 2b 45 68          	sub    0x68(%r13),%eax
    4918:	43 89 84 b5 3c 03 00 	mov    %eax,0x33c(%r13,%r14,4)
    491f:	00 
    4920:	41 ff c6             	inc    %r14d
    4923:	41 83 fe 14          	cmp    $0x14,%r14d
    4927:	0f 82 4f fb ff ff    	jb     447c <TEST_LOOP_2>

000000000000492d <EXITALL1>:
    492d:	49 8b a5 10 06 00 00 	mov    0x610(%r13),%rsp
    4934:	9b db e3             	finit  
    4937:	fc                   	cld    
    4938:	c5 fc 77             	vzeroall 

000000000000493b <EXITALL2>:
    493b:	b8 14 00 00 00       	mov    $0x14,%eax
    4940:	41 5f                	pop    %r15
    4942:	41 5e                	pop    %r14
    4944:	41 5d                	pop    %r13
    4946:	41 5c                	pop    %r12
    4948:	5d                   	pop    %rbp
    4949:	5b                   	pop    %rbx
    494a:	c3                   	ret    
    494b:	0f 1f 44 00 00       	nopl   0x0(%rax,%rax,1)

0000000000004950 <__libc_csu_init>:
    4950:	f3 0f 1e fa          	endbr64 
    4954:	41 57                	push   %r15
    4956:	4c 8d 3d a3 33 00 00 	lea    0x33a3(%rip),%r15        # 7d00 <__frame_dummy_init_array_entry>
    495d:	41 56                	push   %r14
    495f:	49 89 d6             	mov    %rdx,%r14
    4962:	41 55                	push   %r13
    4964:	49 89 f5             	mov    %rsi,%r13
    4967:	41 54                	push   %r12
    4969:	41 89 fc             	mov    %edi,%r12d
    496c:	55                   	push   %rbp
    496d:	48 8d 2d 9c 33 00 00 	lea    0x339c(%rip),%rbp        # 7d10 <__do_global_dtors_aux_fini_array_entry>
    4974:	53                   	push   %rbx
    4975:	4c 29 fd             	sub    %r15,%rbp
    4978:	48 83 ec 08          	sub    $0x8,%rsp
    497c:	e8 7f c6 ff ff       	call   1000 <_init>
    4981:	48 c1 fd 03          	sar    $0x3,%rbp
    4985:	74 1f                	je     49a6 <__libc_csu_init+0x56>
    4987:	31 db                	xor    %ebx,%ebx
    4989:	0f 1f 80 00 00 00 00 	nopl   0x0(%rax)
    4990:	4c 89 f2             	mov    %r14,%rdx
    4993:	4c 89 ee             	mov    %r13,%rsi
    4996:	44 89 e7             	mov    %r12d,%edi
    4999:	41 ff 14 df          	call   *(%r15,%rbx,8)
    499d:	48 83 c3 01          	add    $0x1,%rbx
    49a1:	48 39 dd             	cmp    %rbx,%rbp
    49a4:	75 ea                	jne    4990 <__libc_csu_init+0x40>
    49a6:	48 83 c4 08          	add    $0x8,%rsp
    49aa:	5b                   	pop    %rbx
    49ab:	5d                   	pop    %rbp
    49ac:	41 5c                	pop    %r12
    49ae:	41 5d                	pop    %r13
    49b0:	41 5e                	pop    %r14
    49b2:	41 5f                	pop    %r15
    49b4:	c3                   	ret    
    49b5:	66 66 2e 0f 1f 84 00 	data16 cs nopw 0x0(%rax,%rax,1)
    49bc:	00 00 00 00 

00000000000049c0 <__libc_csu_fini>:
    49c0:	f3 0f 1e fa          	endbr64 
    49c4:	c3                   	ret    

Disassembly of section .fini:

00000000000049c8 <_fini>:
    49c8:	f3 0f 1e fa          	endbr64 
    49cc:	48 83 ec 08          	sub    $0x8,%rsp
    49d0:	48 83 c4 08          	add    $0x8,%rsp
    49d4:	c3                   	ret    
