
./x:     file format elf64-x86-64


Disassembly of section .init:

0000000000401000 <_init>:
  401000:	f3 0f 1e fa          	endbr64 
  401004:	48 83 ec 08          	sub    $0x8,%rsp
  401008:	48 8b 05 e9 6f c0 3f 	mov    0x3fc06fe9(%rip),%rax        # 40007ff8 <__gmon_start__>
  40100f:	48 85 c0             	test   %rax,%rax
  401012:	74 02                	je     401016 <_init+0x16>
  401014:	ff d0                	call   *%rax
  401016:	48 83 c4 08          	add    $0x8,%rsp
  40101a:	c3                   	ret    

Disassembly of section .plt:

0000000000401020 <.plt>:
  401020:	ff 35 e2 6f c0 3f    	push   0x3fc06fe2(%rip)        # 40008008 <_GLOBAL_OFFSET_TABLE_+0x8>
  401026:	ff 25 e4 6f c0 3f    	jmp    *0x3fc06fe4(%rip)        # 40008010 <_GLOBAL_OFFSET_TABLE_+0x10>
  40102c:	0f 1f 40 00          	nopl   0x0(%rax)

0000000000401030 <__printf_chk@plt>:
  401030:	ff 25 e2 6f c0 3f    	jmp    *0x3fc06fe2(%rip)        # 40008018 <__printf_chk@GLIBC_2.3.4>
  401036:	68 00 00 00 00       	push   $0x0
  40103b:	e9 e0 ff ff ff       	jmp    401020 <.plt>

0000000000401040 <strstr@plt>:
  401040:	ff 25 da 6f c0 3f    	jmp    *0x3fc06fda(%rip)        # 40008020 <strstr@GLIBC_2.2.5>
  401046:	68 01 00 00 00       	push   $0x1
  40104b:	e9 d0 ff ff ff       	jmp    401020 <.plt>

0000000000401050 <setpriority@plt>:
  401050:	ff 25 d2 6f c0 3f    	jmp    *0x3fc06fd2(%rip)        # 40008028 <setpriority@GLIBC_2.2.5>
  401056:	68 02 00 00 00       	push   $0x2
  40105b:	e9 c0 ff ff ff       	jmp    401020 <.plt>

0000000000401060 <pthread_join@plt>:
  401060:	ff 25 ca 6f c0 3f    	jmp    *0x3fc06fca(%rip)        # 40008030 <pthread_join@GLIBC_2.2.5>
  401066:	68 03 00 00 00       	push   $0x3
  40106b:	e9 b0 ff ff ff       	jmp    401020 <.plt>

0000000000401070 <pthread_create@plt>:
  401070:	ff 25 c2 6f c0 3f    	jmp    *0x3fc06fc2(%rip)        # 40008038 <pthread_create@GLIBC_2.2.5>
  401076:	68 04 00 00 00       	push   $0x4
  40107b:	e9 a0 ff ff ff       	jmp    401020 <.plt>

0000000000401080 <open@plt>:
  401080:	ff 25 ba 6f c0 3f    	jmp    *0x3fc06fba(%rip)        # 40008040 <open@GLIBC_2.2.5>
  401086:	68 05 00 00 00       	push   $0x5
  40108b:	e9 90 ff ff ff       	jmp    401020 <.plt>

0000000000401090 <sched_setaffinity@plt>:
  401090:	ff 25 b2 6f c0 3f    	jmp    *0x3fc06fb2(%rip)        # 40008048 <sched_setaffinity@GLIBC_2.3.4>
  401096:	68 06 00 00 00       	push   $0x6
  40109b:	e9 80 ff ff ff       	jmp    401020 <.plt>

00000000004010a0 <__cxa_atexit@plt>:
  4010a0:	ff 25 aa 6f c0 3f    	jmp    *0x3fc06faa(%rip)        # 40008050 <__cxa_atexit@GLIBC_2.2.5>
  4010a6:	68 07 00 00 00       	push   $0x7
  4010ab:	e9 70 ff ff ff       	jmp    401020 <.plt>

00000000004010b0 <gettid@plt>:
  4010b0:	ff 25 a2 6f c0 3f    	jmp    *0x3fc06fa2(%rip)        # 40008058 <gettid@GLIBC_2.30>
  4010b6:	68 08 00 00 00       	push   $0x8
  4010bb:	e9 60 ff ff ff       	jmp    401020 <.plt>

00000000004010c0 <__stack_chk_fail@plt>:
  4010c0:	ff 25 9a 6f c0 3f    	jmp    *0x3fc06f9a(%rip)        # 40008060 <__stack_chk_fail@GLIBC_2.4>
  4010c6:	68 09 00 00 00       	push   $0x9
  4010cb:	e9 50 ff ff ff       	jmp    401020 <.plt>

00000000004010d0 <putchar@plt>:
  4010d0:	ff 25 92 6f c0 3f    	jmp    *0x3fc06f92(%rip)        # 40008068 <putchar@GLIBC_2.2.5>
  4010d6:	68 0a 00 00 00       	push   $0xa
  4010db:	e9 40 ff ff ff       	jmp    401020 <.plt>

00000000004010e0 <strtol@plt>:
  4010e0:	ff 25 8a 6f c0 3f    	jmp    *0x3fc06f8a(%rip)        # 40008070 <strtol@GLIBC_2.2.5>
  4010e6:	68 0b 00 00 00       	push   $0xb
  4010eb:	e9 30 ff ff ff       	jmp    401020 <.plt>

00000000004010f0 <ioctl@plt>:
  4010f0:	ff 25 82 6f c0 3f    	jmp    *0x3fc06f82(%rip)        # 40008078 <ioctl@GLIBC_2.2.5>
  4010f6:	68 0c 00 00 00       	push   $0xc
  4010fb:	e9 20 ff ff ff       	jmp    401020 <.plt>

0000000000401100 <sched_yield@plt>:
  401100:	ff 25 7a 6f c0 3f    	jmp    *0x3fc06f7a(%rip)        # 40008080 <sched_yield@GLIBC_2.2.5>
  401106:	68 0d 00 00 00       	push   $0xd
  40110b:	e9 10 ff ff ff       	jmp    401020 <.plt>

0000000000401110 <sched_getaffinity@plt>:
  401110:	ff 25 72 6f c0 3f    	jmp    *0x3fc06f72(%rip)        # 40008088 <sched_getaffinity@GLIBC_2.3.4>
  401116:	68 0e 00 00 00       	push   $0xe
  40111b:	e9 00 ff ff ff       	jmp    401020 <.plt>

0000000000401120 <_Unwind_Resume@plt>:
  401120:	ff 25 6a 6f c0 3f    	jmp    *0x3fc06f6a(%rip)        # 40008090 <_Unwind_Resume@GCC_3.0>
  401126:	68 0f 00 00 00       	push   $0xf
  40112b:	e9 f0 fe ff ff       	jmp    401020 <.plt>

0000000000401130 <close@plt>:
  401130:	ff 25 62 6f c0 3f    	jmp    *0x3fc06f62(%rip)        # 40008098 <close@GLIBC_2.2.5>
  401136:	68 10 00 00 00       	push   $0x10
  40113b:	e9 e0 fe ff ff       	jmp    401020 <.plt>

Disassembly of section .text:

0000000040000000 <TestLoop>:
    40000000:	53                   	push   %rbx
    40000001:	55                   	push   %rbp
    40000002:	41 54                	push   %r12
    40000004:	41 55                	push   %r13
    40000006:	41 56                	push   %r14
    40000008:	41 57                	push   %r15
    4000000a:	41 89 ff             	mov    %edi,%r15d
    4000000d:	b9 10 27 00 00       	mov    $0x2710,%ecx
    40000012:	b8 01 00 00 00       	mov    $0x1,%eax
    40000017:	90                   	nop
    40000018:	90                   	nop
    40000019:	90                   	nop
    4000001a:	90                   	nop
    4000001b:	90                   	nop
    4000001c:	90                   	nop
    4000001d:	90                   	nop
    4000001e:	90                   	nop
    4000001f:	90                   	nop

0000000040000020 <Warmuploop>:
    40000020:	0f af c1             	imul   %ecx,%eax
    40000023:	0f af c1             	imul   %ecx,%eax
    40000026:	0f af c1             	imul   %ecx,%eax
    40000029:	0f af c1             	imul   %ecx,%eax
    4000002c:	0f af c1             	imul   %ecx,%eax
    4000002f:	0f af c1             	imul   %ecx,%eax
    40000032:	0f af c1             	imul   %ecx,%eax
    40000035:	0f af c1             	imul   %ecx,%eax
    40000038:	0f af c1             	imul   %ecx,%eax
    4000003b:	0f af c1             	imul   %ecx,%eax
    4000003e:	ff c9                	dec    %ecx
    40000040:	75 de                	jne    40000020 <Warmuploop>
    40000042:	9b db e3             	finit  
    40000045:	c5 fc 77             	vzeroall 
    40000048:	41 69 c7 00 04 00 00 	imul   $0x400,%r15d,%eax
    4000004f:	48 8d 35 aa d2 00 00 	lea    0xd2aa(%rip),%rsi        # 4000d300 <UserData>
    40000056:	48 01 c6             	add    %rax,%rsi
    40000059:	48 8d be 00 02 00 00 	lea    0x200(%rsi),%rdi
    40000060:	31 ed                	xor    %ebp,%ebp
    40000062:	4c 8d 2d 57 ce 00 00 	lea    0xce57(%rip),%r13        # 4000cec0 <ThreadData>
    40000069:	41 69 c7 80 03 00 00 	imul   $0x380,%r15d,%eax
    40000070:	49 01 c5             	add    %rax,%r13
    40000073:	49 89 a5 40 03 00 00 	mov    %rsp,0x340(%r13)
    4000007a:	45 31 f6             	xor    %r14d,%r14d

000000004000007d <TEST_LOOP_1>:
    4000007d:	31 c0                	xor    %eax,%eax
    4000007f:	0f a2                	cpuid  
    40000081:	8b 0d e9 d1 00 00    	mov    0xd1e9(%rip),%ecx        # 4000d270 <Counters>
    40000087:	0f 33                	rdpmc  
    40000089:	41 89 45 04          	mov    %eax,0x4(%r13)
    4000008d:	8b 0d e1 d1 00 00    	mov    0xd1e1(%rip),%ecx        # 4000d274 <Counters+0x4>
    40000093:	0f 33                	rdpmc  
    40000095:	41 89 45 08          	mov    %eax,0x8(%r13)
    40000099:	8b 0d d9 d1 00 00    	mov    0xd1d9(%rip),%ecx        # 4000d278 <Counters+0x8>
    4000009f:	0f 33                	rdpmc  
    400000a1:	41 89 45 0c          	mov    %eax,0xc(%r13)
    400000a5:	8b 0d d1 d1 00 00    	mov    0xd1d1(%rip),%ecx        # 4000d27c <Counters+0xc>
    400000ab:	0f 33                	rdpmc  
    400000ad:	41 89 45 10          	mov    %eax,0x10(%r13)
    400000b1:	8b 0d c9 d1 00 00    	mov    0xd1c9(%rip),%ecx        # 4000d280 <Counters+0x10>
    400000b7:	0f 33                	rdpmc  
    400000b9:	41 89 45 14          	mov    %eax,0x14(%r13)
    400000bd:	8b 0d c1 d1 00 00    	mov    0xd1c1(%rip),%ecx        # 4000d284 <Counters+0x14>
    400000c3:	0f 33                	rdpmc  
    400000c5:	41 89 45 18          	mov    %eax,0x18(%r13)
    400000c9:	8b 0d b9 d1 00 00    	mov    0xd1b9(%rip),%ecx        # 4000d288 <Counters+0x18>
    400000cf:	0f 33                	rdpmc  
    400000d1:	41 89 45 1c          	mov    %eax,0x1c(%r13)
    400000d5:	8b 0d b1 d1 00 00    	mov    0xd1b1(%rip),%ecx        # 4000d28c <Counters+0x1c>
    400000db:	0f 33                	rdpmc  
    400000dd:	41 89 45 20          	mov    %eax,0x20(%r13)
    400000e1:	31 c0                	xor    %eax,%eax
    400000e3:	0f a2                	cpuid  
    400000e5:	0f 31                	rdtsc  
    400000e7:	41 89 45 00          	mov    %eax,0x0(%r13)
    400000eb:	31 c0                	xor    %eax,%eax
    400000ed:	0f a2                	cpuid  
    400000ef:	31 c0                	xor    %eax,%eax
    400000f1:	0f a2                	cpuid  
    400000f3:	0f 31                	rdtsc  
    400000f5:	41 29 45 00          	sub    %eax,0x0(%r13)
    400000f9:	31 c0                	xor    %eax,%eax
    400000fb:	0f a2                	cpuid  
    400000fd:	8b 0d 6d d1 00 00    	mov    0xd16d(%rip),%ecx        # 4000d270 <Counters>
    40000103:	0f 33                	rdpmc  
    40000105:	41 29 45 04          	sub    %eax,0x4(%r13)
    40000109:	8b 0d 65 d1 00 00    	mov    0xd165(%rip),%ecx        # 4000d274 <Counters+0x4>
    4000010f:	0f 33                	rdpmc  
    40000111:	41 29 45 08          	sub    %eax,0x8(%r13)
    40000115:	8b 0d 5d d1 00 00    	mov    0xd15d(%rip),%ecx        # 4000d278 <Counters+0x8>
    4000011b:	0f 33                	rdpmc  
    4000011d:	41 29 45 0c          	sub    %eax,0xc(%r13)
    40000121:	8b 0d 55 d1 00 00    	mov    0xd155(%rip),%ecx        # 4000d27c <Counters+0xc>
    40000127:	0f 33                	rdpmc  
    40000129:	41 29 45 10          	sub    %eax,0x10(%r13)
    4000012d:	8b 0d 4d d1 00 00    	mov    0xd14d(%rip),%ecx        # 4000d280 <Counters+0x10>
    40000133:	0f 33                	rdpmc  
    40000135:	41 29 45 14          	sub    %eax,0x14(%r13)
    40000139:	8b 0d 45 d1 00 00    	mov    0xd145(%rip),%ecx        # 4000d284 <Counters+0x14>
    4000013f:	0f 33                	rdpmc  
    40000141:	41 29 45 18          	sub    %eax,0x18(%r13)
    40000145:	8b 0d 3d d1 00 00    	mov    0xd13d(%rip),%ecx        # 4000d288 <Counters+0x18>
    4000014b:	0f 33                	rdpmc  
    4000014d:	41 29 45 1c          	sub    %eax,0x1c(%r13)
    40000151:	8b 0d 35 d1 00 00    	mov    0xd135(%rip),%ecx        # 4000d28c <Counters+0x1c>
    40000157:	0f 33                	rdpmc  
    40000159:	41 29 45 20          	sub    %eax,0x20(%r13)
    4000015d:	31 c0                	xor    %eax,%eax
    4000015f:	0f a2                	cpuid  
    40000161:	41 8b 45 00          	mov    0x0(%r13),%eax
    40000165:	f7 d8                	neg    %eax
    40000167:	41 8b 5d 48          	mov    0x48(%r13),%ebx
    4000016b:	39 d8                	cmp    %ebx,%eax
    4000016d:	0f 42 d8             	cmovb  %eax,%ebx
    40000170:	41 89 5d 48          	mov    %ebx,0x48(%r13)
    40000174:	41 8b 45 04          	mov    0x4(%r13),%eax
    40000178:	f7 d8                	neg    %eax
    4000017a:	41 8b 5d 4c          	mov    0x4c(%r13),%ebx
    4000017e:	39 d8                	cmp    %ebx,%eax
    40000180:	0f 42 d8             	cmovb  %eax,%ebx
    40000183:	41 89 5d 4c          	mov    %ebx,0x4c(%r13)
    40000187:	41 8b 45 08          	mov    0x8(%r13),%eax
    4000018b:	f7 d8                	neg    %eax
    4000018d:	41 8b 5d 50          	mov    0x50(%r13),%ebx
    40000191:	39 d8                	cmp    %ebx,%eax
    40000193:	0f 42 d8             	cmovb  %eax,%ebx
    40000196:	41 89 5d 50          	mov    %ebx,0x50(%r13)
    4000019a:	41 8b 45 0c          	mov    0xc(%r13),%eax
    4000019e:	f7 d8                	neg    %eax
    400001a0:	41 8b 5d 54          	mov    0x54(%r13),%ebx
    400001a4:	39 d8                	cmp    %ebx,%eax
    400001a6:	0f 42 d8             	cmovb  %eax,%ebx
    400001a9:	41 89 5d 54          	mov    %ebx,0x54(%r13)
    400001ad:	41 8b 45 10          	mov    0x10(%r13),%eax
    400001b1:	f7 d8                	neg    %eax
    400001b3:	41 8b 5d 58          	mov    0x58(%r13),%ebx
    400001b7:	39 d8                	cmp    %ebx,%eax
    400001b9:	0f 42 d8             	cmovb  %eax,%ebx
    400001bc:	41 89 5d 58          	mov    %ebx,0x58(%r13)
    400001c0:	41 8b 45 14          	mov    0x14(%r13),%eax
    400001c4:	f7 d8                	neg    %eax
    400001c6:	41 8b 5d 5c          	mov    0x5c(%r13),%ebx
    400001ca:	39 d8                	cmp    %ebx,%eax
    400001cc:	0f 42 d8             	cmovb  %eax,%ebx
    400001cf:	41 89 5d 5c          	mov    %ebx,0x5c(%r13)
    400001d3:	41 8b 45 18          	mov    0x18(%r13),%eax
    400001d7:	f7 d8                	neg    %eax
    400001d9:	41 8b 5d 60          	mov    0x60(%r13),%ebx
    400001dd:	39 d8                	cmp    %ebx,%eax
    400001df:	0f 42 d8             	cmovb  %eax,%ebx
    400001e2:	41 89 5d 60          	mov    %ebx,0x60(%r13)
    400001e6:	41 8b 45 1c          	mov    0x1c(%r13),%eax
    400001ea:	f7 d8                	neg    %eax
    400001ec:	41 8b 5d 64          	mov    0x64(%r13),%ebx
    400001f0:	39 d8                	cmp    %ebx,%eax
    400001f2:	0f 42 d8             	cmovb  %eax,%ebx
    400001f5:	41 89 5d 64          	mov    %ebx,0x64(%r13)
    400001f9:	41 8b 45 20          	mov    0x20(%r13),%eax
    400001fd:	f7 d8                	neg    %eax
    400001ff:	41 8b 5d 68          	mov    0x68(%r13),%ebx
    40000203:	39 d8                	cmp    %ebx,%eax
    40000205:	0f 42 d8             	cmovb  %eax,%ebx
    40000208:	41 89 5d 68          	mov    %ebx,0x68(%r13)
    4000020c:	41 ff c6             	inc    %r14d
    4000020f:	41 83 fe 04          	cmp    $0x4,%r14d
    40000213:	0f 82 64 fe ff ff    	jb     4000007d <TEST_LOOP_1>
    40000219:	45 31 f6             	xor    %r14d,%r14d

000000004000021c <TEST_LOOP_2>:
    4000021c:	c7 05 2e d0 00 00 01 	movl   $0x1,0xd02e(%rip)        # 4000d254 <PrintCustomPMC>
    40000223:	00 00 00 
    40000226:	bb 40 1f 00 00       	mov    $0x1f40,%ebx
    4000022b:	48 8d 3d ce d0 00 00 	lea    0xd0ce(%rip),%rdi        # 4000d300 <UserData>

0000000040000232 <rand_loop>:
    40000232:	0f c7 f0             	rdrand %eax
    40000235:	83 e0 01             	and    $0x1,%eax
    40000238:	88 07                	mov    %al,(%rdi)
    4000023a:	48 ff c7             	inc    %rdi
    4000023d:	ff cb                	dec    %ebx
    4000023f:	75 f1                	jne    40000232 <rand_loop>
    40000241:	31 c0                	xor    %eax,%eax
    40000243:	0f a2                	cpuid  
    40000245:	8b 0d 25 d0 00 00    	mov    0xd025(%rip),%ecx        # 4000d270 <Counters>
    4000024b:	0f 33                	rdpmc  
    4000024d:	41 89 45 04          	mov    %eax,0x4(%r13)
    40000251:	8b 0d 1d d0 00 00    	mov    0xd01d(%rip),%ecx        # 4000d274 <Counters+0x4>
    40000257:	0f 33                	rdpmc  
    40000259:	41 89 45 08          	mov    %eax,0x8(%r13)
    4000025d:	8b 0d 15 d0 00 00    	mov    0xd015(%rip),%ecx        # 4000d278 <Counters+0x8>
    40000263:	0f 33                	rdpmc  
    40000265:	41 89 45 0c          	mov    %eax,0xc(%r13)
    40000269:	8b 0d 0d d0 00 00    	mov    0xd00d(%rip),%ecx        # 4000d27c <Counters+0xc>
    4000026f:	0f 33                	rdpmc  
    40000271:	41 89 45 10          	mov    %eax,0x10(%r13)
    40000275:	8b 0d 05 d0 00 00    	mov    0xd005(%rip),%ecx        # 4000d280 <Counters+0x10>
    4000027b:	0f 33                	rdpmc  
    4000027d:	41 89 45 14          	mov    %eax,0x14(%r13)
    40000281:	8b 0d fd cf 00 00    	mov    0xcffd(%rip),%ecx        # 4000d284 <Counters+0x14>
    40000287:	0f 33                	rdpmc  
    40000289:	41 89 45 18          	mov    %eax,0x18(%r13)
    4000028d:	8b 0d f5 cf 00 00    	mov    0xcff5(%rip),%ecx        # 4000d288 <Counters+0x18>
    40000293:	0f 33                	rdpmc  
    40000295:	41 89 45 1c          	mov    %eax,0x1c(%r13)
    40000299:	8b 0d ed cf 00 00    	mov    0xcfed(%rip),%ecx        # 4000d28c <Counters+0x1c>
    4000029f:	0f 33                	rdpmc  
    400002a1:	41 89 45 20          	mov    %eax,0x20(%r13)
    400002a5:	31 c0                	xor    %eax,%eax
    400002a7:	0f a2                	cpuid  
    400002a9:	0f 31                	rdtsc  
    400002ab:	41 89 45 00          	mov    %eax,0x0(%r13)
    400002af:	31 c0                	xor    %eax,%eax
    400002b1:	0f a2                	cpuid  

00000000400002b3 <Test_start>:
    400002b3:	48 8d 3d 46 d0 00 00 	lea    0xd046(%rip),%rdi        # 4000d300 <UserData>
    400002ba:	41 bc e8 03 00 00    	mov    $0x3e8,%r12d

00000000400002c0 <REPETITIONS1LOOP>:
    400002c0:	48 ff c7             	inc    %rdi
    400002c3:	48 ff c7             	inc    %rdi
    400002c6:	48 b8 00 00 00 00 01 	movabs $0x100000000,%rax
    400002cd:	00 00 00 
    400002d0:	48 bb ea 02 00 40 00 	movabs $0x400002ea,%rbx
    400002d7:	00 00 00 
    400002da:	ba c8 00 00 00       	mov    $0xc8,%edx
    400002df:	b9 00 00 00 00       	mov    $0x0,%ecx
    400002e4:	48 83 f9 00          	cmp    $0x0,%rcx
    400002e8:	ff e0                	jmp    *%rax

00000000400002ea <rand_branch_back>:
    400002ea:	b8 00 00 00 00       	mov    $0x0,%eax

00000000400002ef <label500>:
    400002ef:	48 83 f8 00          	cmp    $0x0,%rax
    400002f3:	74 00                	je     400002f5 <label501>

00000000400002f5 <label501>:
    400002f5:	48 83 f8 00          	cmp    $0x0,%rax
    400002f9:	74 00                	je     400002fb <label502>

00000000400002fb <label502>:
    400002fb:	48 83 f8 00          	cmp    $0x0,%rax
    400002ff:	74 00                	je     40000301 <label503>

0000000040000301 <label503>:
    40000301:	48 83 f8 00          	cmp    $0x0,%rax
    40000305:	74 00                	je     40000307 <label504>

0000000040000307 <label504>:
    40000307:	48 89 05 f2 cf 80 00 	mov    %rax,0x80cff2(%rip)        # 4080d300 <TempData>
    4000030e:	48 89 1d f3 cf 80 00 	mov    %rbx,0x80cff3(%rip)        # 4080d308 <TempData+0x8>
    40000315:	48 89 0d f4 cf 80 00 	mov    %rcx,0x80cff4(%rip)        # 4080d310 <TempData+0x10>
    4000031c:	48 89 15 f5 cf 80 00 	mov    %rdx,0x80cff5(%rip)        # 4080d318 <TempData+0x18>
    40000323:	31 c0                	xor    %eax,%eax
    40000325:	0f a2                	cpuid  
    40000327:	48 31 c9             	xor    %rcx,%rcx
    4000032a:	8b 0d 40 cf 00 00    	mov    0xcf40(%rip),%ecx        # 4000d270 <Counters>
    40000330:	0f 33                	rdpmc  
    40000332:	41 89 45 28          	mov    %eax,0x28(%r13)

0000000040000336 <debug_counter_0_0>:
    40000336:	48 31 c9             	xor    %rcx,%rcx
    40000339:	8b 0d 35 cf 00 00    	mov    0xcf35(%rip),%ecx        # 4000d274 <Counters+0x4>
    4000033f:	0f 33                	rdpmc  
    40000341:	41 89 45 2c          	mov    %eax,0x2c(%r13)

0000000040000345 <debug_counter_0_1>:
    40000345:	48 31 c9             	xor    %rcx,%rcx
    40000348:	8b 0d 2a cf 00 00    	mov    0xcf2a(%rip),%ecx        # 4000d278 <Counters+0x8>
    4000034e:	0f 33                	rdpmc  
    40000350:	41 89 45 30          	mov    %eax,0x30(%r13)

0000000040000354 <debug_counter_0_2>:
    40000354:	48 31 c9             	xor    %rcx,%rcx
    40000357:	8b 0d 1f cf 00 00    	mov    0xcf1f(%rip),%ecx        # 4000d27c <Counters+0xc>
    4000035d:	0f 33                	rdpmc  
    4000035f:	41 89 45 34          	mov    %eax,0x34(%r13)

0000000040000363 <debug_counter_0_3>:
    40000363:	48 31 c9             	xor    %rcx,%rcx
    40000366:	8b 0d 14 cf 00 00    	mov    0xcf14(%rip),%ecx        # 4000d280 <Counters+0x10>
    4000036c:	0f 33                	rdpmc  
    4000036e:	41 89 45 38          	mov    %eax,0x38(%r13)

0000000040000372 <debug_counter_0_4>:
    40000372:	48 31 c9             	xor    %rcx,%rcx
    40000375:	8b 0d 09 cf 00 00    	mov    0xcf09(%rip),%ecx        # 4000d284 <Counters+0x14>
    4000037b:	0f 33                	rdpmc  
    4000037d:	41 89 45 3c          	mov    %eax,0x3c(%r13)

0000000040000381 <debug_counter_0_5>:
    40000381:	48 31 c9             	xor    %rcx,%rcx
    40000384:	8b 0d fe ce 00 00    	mov    0xcefe(%rip),%ecx        # 4000d288 <Counters+0x18>
    4000038a:	0f 33                	rdpmc  
    4000038c:	41 89 45 40          	mov    %eax,0x40(%r13)

0000000040000390 <debug_counter_0_6>:
    40000390:	48 31 c9             	xor    %rcx,%rcx
    40000393:	8b 0d f3 ce 00 00    	mov    0xcef3(%rip),%ecx        # 4000d28c <Counters+0x1c>
    40000399:	0f 33                	rdpmc  
    4000039b:	41 89 45 44          	mov    %eax,0x44(%r13)

000000004000039f <debug_counter_0_7>:
    4000039f:	31 c0                	xor    %eax,%eax
    400003a1:	0f a2                	cpuid  
    400003a3:	0f 31                	rdtsc  
    400003a5:	41 89 45 24          	mov    %eax,0x24(%r13)
    400003a9:	48 8b 05 50 cf 80 00 	mov    0x80cf50(%rip),%rax        # 4080d300 <TempData>
    400003b0:	48 8b 1d 51 cf 80 00 	mov    0x80cf51(%rip),%rbx        # 4080d308 <TempData+0x8>
    400003b7:	48 8b 0d 52 cf 80 00 	mov    0x80cf52(%rip),%rcx        # 4080d310 <TempData+0x10>
    400003be:	48 8b 15 53 cf 80 00 	mov    0x80cf53(%rip),%rdx        # 4080d318 <TempData+0x18>
    400003c5:	8a 07                	mov    (%rdi),%al
    400003c7:	8a 5f 01             	mov    0x1(%rdi),%bl
    400003ca:	30 d8                	xor    %bl,%al
    400003cc:	3c 00                	cmp    $0x0,%al
    400003ce:	74 00                	je     400003d0 <target2>

00000000400003d0 <target2>:
    400003d0:	48 89 05 29 cf 80 00 	mov    %rax,0x80cf29(%rip)        # 4080d300 <TempData>
    400003d7:	48 89 1d 2a cf 80 00 	mov    %rbx,0x80cf2a(%rip)        # 4080d308 <TempData+0x8>
    400003de:	48 89 0d 2b cf 80 00 	mov    %rcx,0x80cf2b(%rip)        # 4080d310 <TempData+0x10>
    400003e5:	48 89 15 2c cf 80 00 	mov    %rdx,0x80cf2c(%rip)        # 4080d318 <TempData+0x18>
    400003ec:	31 c0                	xor    %eax,%eax
    400003ee:	0f a2                	cpuid  
    400003f0:	48 31 c0             	xor    %rax,%rax
    400003f3:	48 31 c9             	xor    %rcx,%rcx
    400003f6:	0f 31                	rdtsc  
    400003f8:	41 8b 4d 24          	mov    0x24(%r13),%ecx
    400003fc:	29 c8                	sub    %ecx,%eax
    400003fe:	43 01 84 b5 94 00 00 	add    %eax,0x94(%r13,%r14,4)
    40000405:	00 
    40000406:	31 c0                	xor    %eax,%eax
    40000408:	0f a2                	cpuid  
    4000040a:	48 31 c9             	xor    %rcx,%rcx
    4000040d:	48 31 c0             	xor    %rax,%rax
    40000410:	8b 0d 5a ce 00 00    	mov    0xce5a(%rip),%ecx        # 4000d270 <Counters>
    40000416:	0f 33                	rdpmc  
    40000418:	41 8b 4d 28          	mov    0x28(%r13),%ecx

000000004000041c <debug_counter_1_0>:
    4000041c:	29 c8                	sub    %ecx,%eax
    4000041e:	43 01 84 b5 fc 01 00 	add    %eax,0x1fc(%r13,%r14,4)
    40000425:	00 
    40000426:	48 31 c9             	xor    %rcx,%rcx
    40000429:	48 31 c0             	xor    %rax,%rax
    4000042c:	8b 0d 42 ce 00 00    	mov    0xce42(%rip),%ecx        # 4000d274 <Counters+0x4>
    40000432:	0f 33                	rdpmc  
    40000434:	41 8b 4d 2c          	mov    0x2c(%r13),%ecx

0000000040000438 <debug_counter_1_1>:
    40000438:	29 c8                	sub    %ecx,%eax
    4000043a:	43 01 84 b5 24 02 00 	add    %eax,0x224(%r13,%r14,4)
    40000441:	00 
    40000442:	48 31 c9             	xor    %rcx,%rcx
    40000445:	48 31 c0             	xor    %rax,%rax
    40000448:	8b 0d 2a ce 00 00    	mov    0xce2a(%rip),%ecx        # 4000d278 <Counters+0x8>
    4000044e:	0f 33                	rdpmc  
    40000450:	41 8b 4d 30          	mov    0x30(%r13),%ecx

0000000040000454 <debug_counter_1_2>:
    40000454:	29 c8                	sub    %ecx,%eax
    40000456:	43 01 84 b5 4c 02 00 	add    %eax,0x24c(%r13,%r14,4)
    4000045d:	00 
    4000045e:	48 31 c9             	xor    %rcx,%rcx
    40000461:	48 31 c0             	xor    %rax,%rax
    40000464:	8b 0d 12 ce 00 00    	mov    0xce12(%rip),%ecx        # 4000d27c <Counters+0xc>
    4000046a:	0f 33                	rdpmc  
    4000046c:	41 8b 4d 34          	mov    0x34(%r13),%ecx

0000000040000470 <debug_counter_1_3>:
    40000470:	29 c8                	sub    %ecx,%eax
    40000472:	43 01 84 b5 74 02 00 	add    %eax,0x274(%r13,%r14,4)
    40000479:	00 
    4000047a:	48 31 c9             	xor    %rcx,%rcx
    4000047d:	48 31 c0             	xor    %rax,%rax
    40000480:	8b 0d fa cd 00 00    	mov    0xcdfa(%rip),%ecx        # 4000d280 <Counters+0x10>
    40000486:	0f 33                	rdpmc  
    40000488:	41 8b 4d 38          	mov    0x38(%r13),%ecx

000000004000048c <debug_counter_1_4>:
    4000048c:	29 c8                	sub    %ecx,%eax
    4000048e:	43 01 84 b5 9c 02 00 	add    %eax,0x29c(%r13,%r14,4)
    40000495:	00 
    40000496:	48 31 c9             	xor    %rcx,%rcx
    40000499:	48 31 c0             	xor    %rax,%rax
    4000049c:	8b 0d e2 cd 00 00    	mov    0xcde2(%rip),%ecx        # 4000d284 <Counters+0x14>
    400004a2:	0f 33                	rdpmc  
    400004a4:	41 8b 4d 3c          	mov    0x3c(%r13),%ecx

00000000400004a8 <debug_counter_1_5>:
    400004a8:	29 c8                	sub    %ecx,%eax
    400004aa:	43 01 84 b5 c4 02 00 	add    %eax,0x2c4(%r13,%r14,4)
    400004b1:	00 
    400004b2:	48 31 c9             	xor    %rcx,%rcx
    400004b5:	48 31 c0             	xor    %rax,%rax
    400004b8:	8b 0d ca cd 00 00    	mov    0xcdca(%rip),%ecx        # 4000d288 <Counters+0x18>
    400004be:	0f 33                	rdpmc  
    400004c0:	41 8b 4d 40          	mov    0x40(%r13),%ecx

00000000400004c4 <debug_counter_1_6>:
    400004c4:	29 c8                	sub    %ecx,%eax
    400004c6:	43 01 84 b5 ec 02 00 	add    %eax,0x2ec(%r13,%r14,4)
    400004cd:	00 
    400004ce:	48 31 c9             	xor    %rcx,%rcx
    400004d1:	48 31 c0             	xor    %rax,%rax
    400004d4:	8b 0d b2 cd 00 00    	mov    0xcdb2(%rip),%ecx        # 4000d28c <Counters+0x1c>
    400004da:	0f 33                	rdpmc  
    400004dc:	41 8b 4d 44          	mov    0x44(%r13),%ecx

00000000400004e0 <debug_counter_1_7>:
    400004e0:	29 c8                	sub    %ecx,%eax
    400004e2:	43 01 84 b5 14 03 00 	add    %eax,0x314(%r13,%r14,4)
    400004e9:	00 
    400004ea:	48 8b 05 0f ce 80 00 	mov    0x80ce0f(%rip),%rax        # 4080d300 <TempData>
    400004f1:	48 8b 1d 10 ce 80 00 	mov    0x80ce10(%rip),%rbx        # 4080d308 <TempData+0x8>
    400004f8:	48 8b 0d 11 ce 80 00 	mov    0x80ce11(%rip),%rcx        # 4080d310 <TempData+0x10>
    400004ff:	48 8b 15 12 ce 80 00 	mov    0x80ce12(%rip),%rdx        # 4080d318 <TempData+0x18>
    40000506:	41 ff cc             	dec    %r12d
    40000509:	0f 85 b1 fd ff ff    	jne    400002c0 <REPETITIONS1LOOP>

000000004000050f <THREAD2_END>:
    4000050f:	31 c0                	xor    %eax,%eax
    40000511:	0f a2                	cpuid  
    40000513:	0f 31                	rdtsc  
    40000515:	41 29 45 00          	sub    %eax,0x0(%r13)
    40000519:	31 c0                	xor    %eax,%eax
    4000051b:	0f a2                	cpuid  
    4000051d:	8b 0d 4d cd 00 00    	mov    0xcd4d(%rip),%ecx        # 4000d270 <Counters>
    40000523:	0f 33                	rdpmc  
    40000525:	41 29 45 04          	sub    %eax,0x4(%r13)
    40000529:	8b 0d 45 cd 00 00    	mov    0xcd45(%rip),%ecx        # 4000d274 <Counters+0x4>
    4000052f:	0f 33                	rdpmc  
    40000531:	41 29 45 08          	sub    %eax,0x8(%r13)
    40000535:	8b 0d 3d cd 00 00    	mov    0xcd3d(%rip),%ecx        # 4000d278 <Counters+0x8>
    4000053b:	0f 33                	rdpmc  
    4000053d:	41 29 45 0c          	sub    %eax,0xc(%r13)
    40000541:	8b 0d 35 cd 00 00    	mov    0xcd35(%rip),%ecx        # 4000d27c <Counters+0xc>
    40000547:	0f 33                	rdpmc  
    40000549:	41 29 45 10          	sub    %eax,0x10(%r13)
    4000054d:	8b 0d 2d cd 00 00    	mov    0xcd2d(%rip),%ecx        # 4000d280 <Counters+0x10>
    40000553:	0f 33                	rdpmc  
    40000555:	41 29 45 14          	sub    %eax,0x14(%r13)
    40000559:	8b 0d 25 cd 00 00    	mov    0xcd25(%rip),%ecx        # 4000d284 <Counters+0x14>
    4000055f:	0f 33                	rdpmc  
    40000561:	41 29 45 18          	sub    %eax,0x18(%r13)
    40000565:	8b 0d 1d cd 00 00    	mov    0xcd1d(%rip),%ecx        # 4000d288 <Counters+0x18>
    4000056b:	0f 33                	rdpmc  
    4000056d:	41 29 45 1c          	sub    %eax,0x1c(%r13)
    40000571:	8b 0d 15 cd 00 00    	mov    0xcd15(%rip),%ecx        # 4000d28c <Counters+0x1c>
    40000577:	0f 33                	rdpmc  
    40000579:	41 29 45 20          	sub    %eax,0x20(%r13)
    4000057d:	31 c0                	xor    %eax,%eax
    4000057f:	0f a2                	cpuid  
    40000581:	41 8b 45 00          	mov    0x0(%r13),%eax
    40000585:	f7 d8                	neg    %eax
    40000587:	41 2b 45 48          	sub    0x48(%r13),%eax
    4000058b:	43 89 44 b5 6c       	mov    %eax,0x6c(%r13,%r14,4)
    40000590:	41 8b 45 04          	mov    0x4(%r13),%eax
    40000594:	f7 d8                	neg    %eax
    40000596:	41 2b 45 4c          	sub    0x4c(%r13),%eax
    4000059a:	43 89 84 b5 bc 00 00 	mov    %eax,0xbc(%r13,%r14,4)
    400005a1:	00 
    400005a2:	41 8b 45 08          	mov    0x8(%r13),%eax
    400005a6:	f7 d8                	neg    %eax
    400005a8:	41 2b 45 50          	sub    0x50(%r13),%eax
    400005ac:	43 89 84 b5 e4 00 00 	mov    %eax,0xe4(%r13,%r14,4)
    400005b3:	00 
    400005b4:	41 8b 45 0c          	mov    0xc(%r13),%eax
    400005b8:	f7 d8                	neg    %eax
    400005ba:	41 2b 45 54          	sub    0x54(%r13),%eax
    400005be:	43 89 84 b5 0c 01 00 	mov    %eax,0x10c(%r13,%r14,4)
    400005c5:	00 
    400005c6:	41 8b 45 10          	mov    0x10(%r13),%eax
    400005ca:	f7 d8                	neg    %eax
    400005cc:	41 2b 45 58          	sub    0x58(%r13),%eax
    400005d0:	43 89 84 b5 34 01 00 	mov    %eax,0x134(%r13,%r14,4)
    400005d7:	00 
    400005d8:	41 8b 45 14          	mov    0x14(%r13),%eax
    400005dc:	f7 d8                	neg    %eax
    400005de:	41 2b 45 5c          	sub    0x5c(%r13),%eax
    400005e2:	43 89 84 b5 5c 01 00 	mov    %eax,0x15c(%r13,%r14,4)
    400005e9:	00 
    400005ea:	41 8b 45 18          	mov    0x18(%r13),%eax
    400005ee:	f7 d8                	neg    %eax
    400005f0:	41 2b 45 60          	sub    0x60(%r13),%eax
    400005f4:	43 89 84 b5 84 01 00 	mov    %eax,0x184(%r13,%r14,4)
    400005fb:	00 
    400005fc:	41 8b 45 1c          	mov    0x1c(%r13),%eax
    40000600:	f7 d8                	neg    %eax
    40000602:	41 2b 45 64          	sub    0x64(%r13),%eax
    40000606:	43 89 84 b5 ac 01 00 	mov    %eax,0x1ac(%r13,%r14,4)
    4000060d:	00 
    4000060e:	41 8b 45 20          	mov    0x20(%r13),%eax
    40000612:	f7 d8                	neg    %eax
    40000614:	41 2b 45 68          	sub    0x68(%r13),%eax
    40000618:	43 89 84 b5 d4 01 00 	mov    %eax,0x1d4(%r13,%r14,4)
    4000061f:	00 
    40000620:	41 ff c6             	inc    %r14d
    40000623:	41 83 fe 0a          	cmp    $0xa,%r14d
    40000627:	0f 82 ef fb ff ff    	jb     4000021c <TEST_LOOP_2>

000000004000062d <EXITALL1>:
    4000062d:	49 8b a5 40 03 00 00 	mov    0x340(%r13),%rsp
    40000634:	9b db e3             	finit  
    40000637:	fc                   	cld    
    40000638:	c5 fc 77             	vzeroall 

000000004000063b <EXITALL2>:
    4000063b:	b8 0a 00 00 00       	mov    $0xa,%eax
    40000640:	41 5f                	pop    %r15
    40000642:	41 5e                	pop    %r14
    40000644:	41 5d                	pop    %r13
    40000646:	41 5c                	pop    %r12
    40000648:	5d                   	pop    %rbp
    40000649:	5b                   	pop    %rbx
    4000064a:	c3                   	ret    

000000004000064b <main.cold>:
    4000064b:	83 bc 24 a0 00 00 00 	cmpl   $0x0,0xa0(%rsp)
    40000652:	00 
    40000653:	75 15                	jne    4000066a <main.cold+0x1f>
    40000655:	48 b8 20 91 3f c0 ff 	movabs $0xffffffffc03f9120,%rax
    4000065c:	ff ff ff 
    4000065f:	48 89 ef             	mov    %rbp,%rdi
    40000662:	4d 89 e7             	mov    %r12,%r15
    40000665:	4c 01 e0             	add    %r12,%rax
    40000668:	ff d0                	call   *%rax
    4000066a:	48 b8 40 95 ff ff ff 	movabs $0xffffffffffff9540,%rax
    40000671:	ff ff ff 
    40000674:	48 8b bc 24 80 00 00 	mov    0x80(%rsp),%rdi
    4000067b:	00 
    4000067c:	4c 01 e0             	add    %r12,%rax
    4000067f:	ff d0                	call   *%rax
    40000681:	eb d2                	jmp    40000655 <main.cold+0xa>
    40000683:	66 2e 0f 1f 84 00 00 	cs nopw 0x0(%rax,%rax,1)
    4000068a:	00 00 00 
    4000068d:	0f 1f 00             	nopl   (%rax)

0000000040000690 <main>:
    40000690:	f3 0f 1e fa          	endbr64 
    40000694:	f3 0f 1e fa          	endbr64 
    40000698:	49 bb 6c 79 00 00 00 	movabs $0x796c,%r11
    4000069f:	00 00 00 
    400006a2:	41 57                	push   %r15
    400006a4:	41 56                	push   %r14
    400006a6:	41 55                	push   %r13
    400006a8:	41 54                	push   %r12
    400006aa:	4c 8d 25 e3 ff ff ff 	lea    -0x1d(%rip),%r12        # 40000694 <main+0x4>
    400006b1:	55                   	push   %rbp
    400006b2:	4d 01 dc             	add    %r11,%r12
    400006b5:	53                   	push   %rbx
    400006b6:	48 81 ec a8 01 00 00 	sub    $0x1a8,%rsp
    400006bd:	64 48 8b 04 25 28 00 	mov    %fs:0x28,%rax
    400006c4:	00 00 
    400006c6:	48 89 84 24 98 01 00 	mov    %rax,0x198(%rsp)
    400006cd:	00 
    400006ce:	31 c0                	xor    %eax,%eax
    400006d0:	83 ff 01             	cmp    $0x1,%edi
    400006d3:	7e 47                	jle    4000071c <main+0x8c>
    400006d5:	4c 8b 76 08          	mov    0x8(%rsi),%r14
    400006d9:	89 fd                	mov    %edi,%ebp
    400006db:	49 89 f5             	mov    %rsi,%r13
    400006de:	4d 89 e7             	mov    %r12,%r15
    400006e1:	48 b8 2d d3 ff ff ff 	movabs $0xffffffffffffd32d,%rax
    400006e8:	ff ff ff 
    400006eb:	48 bb 40 90 3f c0 ff 	movabs $0xffffffffc03f9040,%rbx
    400006f2:	ff ff ff 
    400006f5:	4c 01 e3             	add    %r12,%rbx
    400006f8:	49 8d 34 04          	lea    (%r12,%rax,1),%rsi
    400006fc:	4c 89 f7             	mov    %r14,%rdi
    400006ff:	ff d3                	call   *%rbx
    40000701:	48 85 c0             	test   %rax,%rax
    40000704:	0f 84 a1 04 00 00    	je     40000bab <main+0x51b>
    4000070a:	48 b8 48 61 81 00 00 	movabs $0x816148,%rax
    40000711:	00 00 00 
    40000714:	41 c7 04 04 01 00 00 	movl   $0x1,(%r12,%rax,1)
    4000071b:	00 
    4000071c:	49 be 98 ff ff ff ff 	movabs $0xffffffffffffff98,%r14
    40000723:	ff ff ff 
    40000726:	4b 8b 04 26          	mov    (%r14,%r12,1),%rax
    4000072a:	83 38 08             	cmpl   $0x8,(%rax)
    4000072d:	0f 8f 1d 04 00 00    	jg     40000b50 <main+0x4c0>
    40000733:	4b 8b 04 26          	mov    (%r14,%r12,1),%rax
    40000737:	8b 08                	mov    (%rax),%ecx
    40000739:	85 c9                	test   %ecx,%ecx
    4000073b:	0f 8e 7c 02 00 00    	jle    400009bd <main+0x32d>
    40000741:	31 c0                	xor    %eax,%eax
    40000743:	b9 10 00 00 00       	mov    $0x10,%ecx
    40000748:	be 80 00 00 00       	mov    $0x80,%esi
    4000074d:	4d 89 e7             	mov    %r12,%r15
    40000750:	48 8d 94 24 10 01 00 	lea    0x110(%rsp),%rdx
    40000757:	00 
    40000758:	48 89 d7             	mov    %rdx,%rdi
    4000075b:	f3 48 ab             	rep stos %rax,%es:(%rdi)
    4000075e:	31 ff                	xor    %edi,%edi
    40000760:	48 b8 10 91 3f c0 ff 	movabs $0xffffffffc03f9110,%rax
    40000767:	ff ff ff 
    4000076a:	4c 01 e0             	add    %r12,%rax
    4000076d:	ff d0                	call   *%rax
    4000076f:	85 c0                	test   %eax,%eax
    40000771:	0f 85 0b 04 00 00    	jne    40000b82 <main+0x4f2>
    40000777:	48 8b 94 24 10 01 00 	mov    0x110(%rsp),%rdx
    4000077e:	00 
    4000077f:	31 ed                	xor    %ebp,%ebp
    40000781:	31 c9                	xor    %ecx,%ecx
    40000783:	0f 1f 44 00 00       	nopl   0x0(%rax,%rax,1)
    40000788:	48 89 d0             	mov    %rdx,%rax
    4000078b:	48 d3 e8             	shr    %cl,%rax
    4000078e:	83 c1 01             	add    $0x1,%ecx
    40000791:	83 e0 01             	and    $0x1,%eax
    40000794:	01 c5                	add    %eax,%ebp
    40000796:	83 f9 40             	cmp    $0x40,%ecx
    40000799:	75 ed                	jne    40000788 <main+0xf8>
    4000079b:	45 31 ed             	xor    %r13d,%r13d
    4000079e:	4c 89 e9             	mov    %r13,%rcx
    400007a1:	48 81 f9 ff 03 00 00 	cmp    $0x3ff,%rcx
    400007a8:	0f 87 d2 01 00 00    	ja     40000980 <main+0x2f0>
    400007ae:	48 89 c8             	mov    %rcx,%rax
    400007b1:	48 c1 e8 06          	shr    $0x6,%rax
    400007b5:	48 8b 84 c4 10 01 00 	mov    0x110(%rsp,%rax,8),%rax
    400007bc:	00 
    400007bd:	48 d3 e8             	shr    %cl,%rax
    400007c0:	83 e0 01             	and    $0x1,%eax
    400007c3:	0f 84 b7 01 00 00    	je     40000980 <main+0x2f0>
    400007c9:	48 bb 60 53 80 00 00 	movabs $0x805360,%rbx
    400007d0:	00 00 00 
    400007d3:	48 89 44 24 20       	mov    %rax,0x20(%rsp)
    400007d8:	49 89 cd             	mov    %rcx,%r13
    400007db:	48 b8 40 a5 ff ff ff 	movabs $0xffffffffffffa540,%rax
    400007e2:	ff ff ff 
    400007e5:	89 4c 24 30          	mov    %ecx,0x30(%rsp)
    400007e9:	4a 8d 3c 23          	lea    (%rbx,%r12,1),%rdi
    400007ed:	4c 01 e0             	add    %r12,%rax
    400007f0:	48 89 5c 24 40       	mov    %rbx,0x40(%rsp)
    400007f5:	ff d0                	call   *%rax
    400007f7:	31 c9                	xor    %ecx,%ecx
    400007f9:	48 89 de             	mov    %rbx,%rsi
    400007fc:	42 c7 44 23 54 00 00 	movl   $0x0,0x54(%rbx,%r12,1)
    40000803:	00 00 
    40000805:	89 c8                	mov    %ecx,%eax
    40000807:	0f a2                	cpuid  
    40000809:	85 c0                	test   %eax,%eax
    4000080b:	74 13                	je     40000820 <main+0x190>
    4000080d:	48 b8 00 97 ff ff ff 	movabs $0xffffffffffff9700,%rax
    40000814:	ff ff ff 
    40000817:	4a 8d 3c 26          	lea    (%rsi,%r12,1),%rdi
    4000081b:	4c 01 e0             	add    %r12,%rax
    4000081e:	ff d0                	call   *%rax
    40000820:	4b 8b 04 26          	mov    (%r14,%r12,1),%rax
    40000824:	8b 00                	mov    (%rax),%eax
    40000826:	44 8d 40 ff          	lea    -0x1(%rax),%r8d
    4000082a:	85 c0                	test   %eax,%eax
    4000082c:	0f 8e b1 01 00 00    	jle    400009e3 <main+0x353>
    40000832:	89 e8                	mov    %ebp,%eax
    40000834:	44 89 44 24 08       	mov    %r8d,0x8(%rsp)
    40000839:	48 bb 30 90 3f c0 ff 	movabs $0xffffffffc03f9030,%rbx
    40000840:	ff ff ff 
    40000843:	d1 f8                	sar    %eax
    40000845:	89 6c 24 18          	mov    %ebp,0x18(%rsp)
    40000849:	89 44 24 38          	mov    %eax,0x38(%rsp)
    4000084d:	48 b8 20 60 81 00 00 	movabs $0x816020,%rax
    40000854:	00 00 00 
    40000857:	4d 8d 0c 04          	lea    (%r12,%rax,1),%r9
    4000085b:	4c 89 6c 24 28       	mov    %r13,0x28(%rsp)
    40000860:	45 89 c5             	mov    %r8d,%r13d
    40000863:	48 b8 e0 d1 ff ff ff 	movabs $0xffffffffffffd1e0,%rax
    4000086a:	ff ff ff 
    4000086d:	48 89 44 24 10       	mov    %rax,0x10(%rsp)
    40000872:	4c 89 cd             	mov    %r9,%rbp
    40000875:	44 8b 5c 24 08       	mov    0x8(%rsp),%r11d
    4000087a:	45 29 eb             	sub    %r13d,%r11d
    4000087d:	83 7c 24 18 03       	cmpl   $0x3,0x18(%rsp)
    40000882:	0f 8f 01 01 00 00    	jg     40000989 <main+0x2f9>
    40000888:	8b 44 24 28          	mov    0x28(%rsp),%eax
    4000088c:	44 01 e8             	add    %r13d,%eax
    4000088f:	89 45 00             	mov    %eax,0x0(%rbp)
    40000892:	48 8b 44 24 10       	mov    0x10(%rsp),%rax
    40000897:	44 89 da             	mov    %r11d,%edx
    4000089a:	8b 4d 00             	mov    0x0(%rbp),%ecx
    4000089d:	bf 01 00 00 00       	mov    $0x1,%edi
    400008a2:	4d 89 e7             	mov    %r12,%r15
    400008a5:	4e 8d 1c 23          	lea    (%rbx,%r12,1),%r11
    400008a9:	4a 8d 34 20          	lea    (%rax,%r12,1),%rsi
    400008ad:	31 c0                	xor    %eax,%eax
    400008af:	41 ff d3             	call   *%r11
    400008b2:	48 63 45 00          	movslq 0x0(%rbp),%rax
    400008b6:	48 89 c2             	mov    %rax,%rdx
    400008b9:	48 3d ff 03 00 00    	cmp    $0x3ff,%rax
    400008bf:	77 16                	ja     400008d7 <main+0x247>
    400008c1:	48 c1 e8 06          	shr    $0x6,%rax
    400008c5:	48 8b 84 c4 10 01 00 	mov    0x110(%rsp,%rax,8),%rax
    400008cc:	00 
    400008cd:	48 0f a3 d0          	bt     %rdx,%rax
    400008d1:	0f 82 f1 00 00 00    	jb     400009c8 <main+0x338>
    400008d7:	bf 01 00 00 00       	mov    $0x1,%edi
    400008dc:	4d 89 e7             	mov    %r12,%r15
    400008df:	4a 8d 0c 23          	lea    (%rbx,%r12,1),%rcx
    400008e3:	31 ed                	xor    %ebp,%ebp
    400008e5:	48 b8 08 d2 ff ff ff 	movabs $0xffffffffffffd208,%rax
    400008ec:	ff ff ff 
    400008ef:	49 bd 4b d3 ff ff ff 	movabs $0xffffffffffffd34b,%r13
    400008f6:	ff ff ff 
    400008f9:	49 8d 34 04          	lea    (%r12,%rax,1),%rsi
    400008fd:	31 c0                	xor    %eax,%eax
    400008ff:	ff d1                	call   *%rcx
    40000901:	0f 1f 80 00 00 00 00 	nopl   0x0(%rax)
    40000908:	48 8b 84 24 10 01 00 	mov    0x110(%rsp),%rax
    4000090f:	00 
    40000910:	48 0f a3 e8          	bt     %rbp,%rax
    40000914:	73 16                	jae    4000092c <main+0x29c>
    40000916:	89 ea                	mov    %ebp,%edx
    40000918:	4b 8d 34 2c          	lea    (%r12,%r13,1),%rsi
    4000091c:	bf 01 00 00 00       	mov    $0x1,%edi
    40000921:	4d 89 e7             	mov    %r12,%r15
    40000924:	31 c0                	xor    %eax,%eax
    40000926:	4a 8d 0c 23          	lea    (%rbx,%r12,1),%rcx
    4000092a:	ff d1                	call   *%rcx
    4000092c:	83 c5 01             	add    $0x1,%ebp
    4000092f:	83 fd 08             	cmp    $0x8,%ebp
    40000932:	75 d4                	jne    40000908 <main+0x278>
    40000934:	48 b8 d0 90 3f c0 ff 	movabs $0xffffffffc03f90d0,%rax
    4000093b:	ff ff ff 
    4000093e:	bf 0a 00 00 00       	mov    $0xa,%edi
    40000943:	4d 89 e7             	mov    %r12,%r15
    40000946:	4c 01 e0             	add    %r12,%rax
    40000949:	ff d0                	call   *%rax
    4000094b:	c7 44 24 78 01 00 00 	movl   $0x1,0x78(%rsp)
    40000952:	00 
    40000953:	48 8b 84 24 98 01 00 	mov    0x198(%rsp),%rax
    4000095a:	00 
    4000095b:	64 48 33 04 25 28 00 	xor    %fs:0x28,%rax
    40000962:	00 00 
    40000964:	0f 85 45 0b 00 00    	jne    400014af <main+0xe1f>
    4000096a:	8b 44 24 78          	mov    0x78(%rsp),%eax
    4000096e:	48 81 c4 a8 01 00 00 	add    $0x1a8,%rsp
    40000975:	5b                   	pop    %rbx
    40000976:	5d                   	pop    %rbp
    40000977:	41 5c                	pop    %r12
    40000979:	41 5d                	pop    %r13
    4000097b:	41 5e                	pop    %r14
    4000097d:	41 5f                	pop    %r15
    4000097f:	c3                   	ret    
    40000980:	48 83 c1 01          	add    $0x1,%rcx
    40000984:	e9 18 fe ff ff       	jmp    400007a1 <main+0x111>
    40000989:	48 8b 44 24 40       	mov    0x40(%rsp),%rax
    4000098e:	42 81 7c 20 54 00 08 	cmpl   $0x800,0x54(%rax,%r12,1)
    40000995:	00 00 
    40000997:	0f 84 43 02 00 00    	je     40000be0 <main+0x550>
    4000099d:	44 89 e8             	mov    %r13d,%eax
    400009a0:	be 02 00 00 00       	mov    $0x2,%esi
    400009a5:	99                   	cltd   
    400009a6:	f7 fe                	idiv   %esi
    400009a8:	0f af 54 24 38       	imul   0x38(%rsp),%edx
    400009ad:	01 c2                	add    %eax,%edx
    400009af:	8b 44 24 30          	mov    0x30(%rsp),%eax
    400009b3:	01 d0                	add    %edx,%eax
    400009b5:	89 45 00             	mov    %eax,0x0(%rbp)
    400009b8:	e9 d5 fe ff ff       	jmp    40000892 <main+0x202>
    400009bd:	c7 00 01 00 00 00    	movl   $0x1,(%rax)
    400009c3:	e9 79 fd ff ff       	jmp    40000741 <main+0xb1>
    400009c8:	8b 44 24 08          	mov    0x8(%rsp),%eax
    400009cc:	4b 8b 14 26          	mov    (%r14,%r12,1),%rdx
    400009d0:	41 83 ed 01          	sub    $0x1,%r13d
    400009d4:	48 83 c5 04          	add    $0x4,%rbp
    400009d8:	44 29 e8             	sub    %r13d,%eax
    400009db:	39 02                	cmp    %eax,(%rdx)
    400009dd:	0f 8f 92 fe ff ff    	jg     40000875 <main+0x1e5>
    400009e3:	48 b8 f0 9d ff ff ff 	movabs $0xffffffffffff9df0,%rax
    400009ea:	ff ff ff 
    400009ed:	48 8b 5c 24 40       	mov    0x40(%rsp),%rbx
    400009f2:	4c 01 e0             	add    %r12,%rax
    400009f5:	4a 8d 3c 23          	lea    (%rbx,%r12,1),%rdi
    400009f9:	ff d0                	call   *%rax
    400009fb:	4a 8d 3c 23          	lea    (%rbx,%r12,1),%rdi
    400009ff:	48 b8 50 ba ff ff ff 	movabs $0xffffffffffffba50,%rax
    40000a06:	ff ff ff 
    40000a09:	4c 01 e0             	add    %r12,%rax
    40000a0c:	ff d0                	call   *%rax
    40000a0e:	48 b8 48 61 81 00 00 	movabs $0x816148,%rax
    40000a15:	00 00 00 
    40000a18:	41 8b 04 04          	mov    (%r12,%rax,1),%eax
    40000a1c:	89 44 24 78          	mov    %eax,0x78(%rsp)
    40000a20:	85 c0                	test   %eax,%eax
    40000a22:	0f 85 5d 0a 00 00    	jne    40001485 <main+0xdf5>
    40000a28:	48 b8 a0 ff ff ff ff 	movabs $0xffffffffffffffa0,%rax
    40000a2f:	ff ff ff 
    40000a32:	48 89 44 24 50       	mov    %rax,0x50(%rsp)
    40000a37:	4a 8b 04 20          	mov    (%rax,%r12,1),%rax
    40000a3b:	83 38 00             	cmpl   $0x0,(%rax)
    40000a3e:	0f 85 4e 0a 00 00    	jne    40001492 <main+0xe02>
    40000a44:	ba ec ff ff ff       	mov    $0xffffffec,%edx
    40000a49:	31 f6                	xor    %esi,%esi
    40000a4b:	31 ff                	xor    %edi,%edi
    40000a4d:	4d 89 e7             	mov    %r12,%r15
    40000a50:	48 b8 50 90 3f c0 ff 	movabs $0xffffffffc03f9050,%rax
    40000a57:	ff ff ff 
    40000a5a:	48 8d 9c 24 a0 00 00 	lea    0xa0(%rsp),%rbx
    40000a61:	00 
    40000a62:	48 bd c0 99 ff ff ff 	movabs $0xffffffffffff99c0,%rbp
    40000a69:	ff ff ff 
    40000a6c:	48 89 44 24 08       	mov    %rax,0x8(%rsp)
    40000a71:	4c 01 e0             	add    %r12,%rax
    40000a74:	ff d0                	call   *%rax
    40000a76:	4b 8b 14 26          	mov    (%r14,%r12,1),%rdx
    40000a7a:	b8 08 00 00 00       	mov    $0x8,%eax
    40000a7f:	48 c7 84 24 e8 00 00 	movq   $0x0,0xe8(%rsp)
    40000a86:	00 00 00 00 00 
    40000a8b:	48 c7 84 24 f0 00 00 	movq   $0x0,0xf0(%rsp)
    40000a92:	00 00 00 00 00 
    40000a97:	83 3a 08             	cmpl   $0x8,(%rdx)
    40000a9a:	0f 4e 02             	cmovle (%rdx),%eax
    40000a9d:	48 c7 84 24 f8 00 00 	movq   $0x0,0xf8(%rsp)
    40000aa4:	00 00 00 00 00 
    40000aa9:	48 c7 84 24 00 01 00 	movq   $0x0,0x100(%rsp)
    40000ab0:	00 00 00 00 00 
    40000ab5:	89 84 24 a0 00 00 00 	mov    %eax,0xa0(%rsp)
    40000abc:	48 b8 50 d3 ff ff ff 	movabs $0xffffffffffffd350,%rax
    40000ac3:	ff ff ff 
    40000ac6:	48 89 9c 24 80 00 00 	mov    %rbx,0x80(%rsp)
    40000acd:	00 
    40000ace:	48 89 44 24 10       	mov    %rax,0x10(%rsp)
    40000ad3:	eb 0a                	jmp    40000adf <main+0x44f>
    40000ad5:	48 83 44 24 20 01    	addq   $0x1,0x20(%rsp)
    40000adb:	48 83 c3 04          	add    $0x4,%rbx
    40000adf:	48 8b 7c 24 20       	mov    0x20(%rsp),%rdi
    40000ae4:	8b 84 24 a0 00 00 00 	mov    0xa0(%rsp),%eax
    40000aeb:	44 8d 6f ff          	lea    -0x1(%rdi),%r13d
    40000aef:	83 e8 01             	sub    $0x1,%eax
    40000af2:	44 39 e8             	cmp    %r13d,%eax
    40000af5:	0f 8e 22 01 00 00    	jle    40000c1d <main+0x58d>
    40000afb:	31 f6                	xor    %esi,%esi
    40000afd:	44 89 6b 48          	mov    %r13d,0x48(%rbx)
    40000b01:	48 8d 4b 48          	lea    0x48(%rbx),%rcx
    40000b05:	4a 8d 54 25 00       	lea    0x0(%rbp,%r12,1),%rdx
    40000b0a:	48 8b 84 24 80 00 00 	mov    0x80(%rsp),%rax
    40000b11:	00 
    40000b12:	4d 89 e7             	mov    %r12,%r15
    40000b15:	48 8d 3c f8          	lea    (%rax,%rdi,8),%rdi
    40000b19:	48 b8 70 90 3f c0 ff 	movabs $0xffffffffc03f9070,%rax
    40000b20:	ff ff ff 
    40000b23:	4c 01 e0             	add    %r12,%rax
    40000b26:	ff d0                	call   *%rax
    40000b28:	85 c0                	test   %eax,%eax
    40000b2a:	74 a9                	je     40000ad5 <main+0x445>
    40000b2c:	48 8b 44 24 10       	mov    0x10(%rsp),%rax
    40000b31:	44 89 ea             	mov    %r13d,%edx
    40000b34:	bf 01 00 00 00       	mov    $0x1,%edi
    40000b39:	48 b9 30 90 3f c0 ff 	movabs $0xffffffffc03f9030,%rcx
    40000b40:	ff ff ff 
    40000b43:	4c 01 e1             	add    %r12,%rcx
    40000b46:	49 8d 34 04          	lea    (%r12,%rax,1),%rsi
    40000b4a:	31 c0                	xor    %eax,%eax
    40000b4c:	ff d1                	call   *%rcx
    40000b4e:	eb 85                	jmp    40000ad5 <main+0x445>
    40000b50:	c7 00 08 00 00 00    	movl   $0x8,(%rax)
    40000b56:	bf 01 00 00 00       	mov    $0x1,%edi
    40000b5b:	4d 89 e7             	mov    %r12,%r15
    40000b5e:	48 b8 39 d3 ff ff ff 	movabs $0xffffffffffffd339,%rax
    40000b65:	ff ff ff 
    40000b68:	48 bb 30 90 3f c0 ff 	movabs $0xffffffffc03f9030,%rbx
    40000b6f:	ff ff ff 
    40000b72:	49 8d 34 04          	lea    (%r12,%rax,1),%rsi
    40000b76:	31 c0                	xor    %eax,%eax
    40000b78:	4c 01 e3             	add    %r12,%rbx
    40000b7b:	ff d3                	call   *%rbx
    40000b7d:	e9 b1 fb ff ff       	jmp    40000733 <main+0xa3>
    40000b82:	48 b8 e3 d2 ff ff ff 	movabs $0xffffffffffffd2e3,%rax
    40000b89:	ff ff ff 
    40000b8c:	bf 01 00 00 00       	mov    $0x1,%edi
    40000b91:	48 bb 30 90 3f c0 ff 	movabs $0xffffffffc03f9030,%rbx
    40000b98:	ff ff ff 
    40000b9b:	49 8d 34 04          	lea    (%r12,%rax,1),%rsi
    40000b9f:	4c 01 e3             	add    %r12,%rbx
    40000ba2:	31 c0                	xor    %eax,%eax
    40000ba4:	ff d3                	call   *%rbx
    40000ba6:	e9 cc fb ff ff       	jmp    40000777 <main+0xe7>
    40000bab:	48 b8 a2 d2 ff ff ff 	movabs $0xffffffffffffd2a2,%rax
    40000bb2:	ff ff ff 
    40000bb5:	4c 89 f7             	mov    %r14,%rdi
    40000bb8:	49 8d 34 04          	lea    (%r12,%rax,1),%rsi
    40000bbc:	ff d3                	call   *%rbx
    40000bbe:	48 85 c0             	test   %rax,%rax
    40000bc1:	74 26                	je     40000be9 <main+0x559>
    40000bc3:	48 b8 10 bd ff ff ff 	movabs $0xffffffffffffbd10,%rax
    40000bca:	ff ff ff 
    40000bcd:	4c 89 ee             	mov    %r13,%rsi
    40000bd0:	89 ef                	mov    %ebp,%edi
    40000bd2:	4c 01 e0             	add    %r12,%rax
    40000bd5:	ff d0                	call   *%rax
    40000bd7:	89 44 24 78          	mov    %eax,0x78(%rsp)
    40000bdb:	e9 73 fd ff ff       	jmp    40000953 <main+0x2c3>
    40000be0:	44 89 5d 00          	mov    %r11d,0x0(%rbp)
    40000be4:	e9 a9 fc ff ff       	jmp    40000892 <main+0x202>
    40000be9:	48 b8 58 d1 ff ff ff 	movabs $0xffffffffffffd158,%rax
    40000bf0:	ff ff ff 
    40000bf3:	4c 89 f2             	mov    %r14,%rdx
    40000bf6:	bf 01 00 00 00       	mov    $0x1,%edi
    40000bfb:	48 b9 30 90 3f c0 ff 	movabs $0xffffffffc03f9030,%rcx
    40000c02:	ff ff ff 
    40000c05:	49 8d 34 04          	lea    (%r12,%rax,1),%rsi
    40000c09:	4c 01 e1             	add    %r12,%rcx
    40000c0c:	31 c0                	xor    %eax,%eax
    40000c0e:	ff d1                	call   *%rcx
    40000c10:	c7 44 24 78 01 00 00 	movl   $0x1,0x78(%rsp)
    40000c17:	00 
    40000c18:	e9 36 fd ff ff       	jmp    40000953 <main+0x2c3>
    40000c1d:	48 8b 9c 24 80 00 00 	mov    0x80(%rsp),%rbx
    40000c24:	00 
    40000c25:	48 63 d0             	movslq %eax,%rdx
    40000c28:	89 84 94 e8 00 00 00 	mov    %eax,0xe8(%rsp,%rdx,4)
    40000c2f:	4a 8d 44 25 00       	lea    0x0(%rbp,%r12,1),%rax
    40000c34:	48 8d 7c 93 48       	lea    0x48(%rbx,%rdx,4),%rdi
    40000c39:	ff d0                	call   *%rax
    40000c3b:	83 bc 24 a0 00 00 00 	cmpl   $0x0,0xa0(%rsp)
    40000c42:	00 
    40000c43:	74 12                	je     40000c57 <main+0x5c7>
    40000c45:	48 b8 40 95 ff ff ff 	movabs $0xffffffffffff9540,%rax
    40000c4c:	ff ff ff 
    40000c4f:	48 89 df             	mov    %rbx,%rdi
    40000c52:	4c 01 e0             	add    %r12,%rax
    40000c55:	ff d0                	call   *%rax
    40000c57:	4c 8b 6c 24 08       	mov    0x8(%rsp),%r13
    40000c5c:	31 d2                	xor    %edx,%edx
    40000c5e:	31 f6                	xor    %esi,%esi
    40000c60:	31 ff                	xor    %edi,%edi
    40000c62:	4d 89 e7             	mov    %r12,%r15
    40000c65:	4d 01 e5             	add    %r12,%r13
    40000c68:	41 ff d5             	call   *%r13
    40000c6b:	48 8b 44 24 40       	mov    0x40(%rsp),%rax
    40000c70:	4a 8d 3c 20          	lea    (%rax,%r12,1),%rdi
    40000c74:	48 b8 f0 9f ff ff ff 	movabs $0xffffffffffff9ff0,%rax
    40000c7b:	ff ff ff 
    40000c7e:	4c 01 e0             	add    %r12,%rax
    40000c81:	ff d0                	call   *%rax
    40000c83:	c7 44 24 7c 00 00 00 	movl   $0x0,0x7c(%rsp)
    40000c8a:	00 
    40000c8b:	48 b8 e0 5f 81 00 00 	movabs $0x815fe0,%rax
    40000c92:	00 00 00 
    40000c95:	4c 01 e0             	add    %r12,%rax
    40000c98:	48 89 44 24 70       	mov    %rax,0x70(%rsp)
    40000c9d:	4b 8b 04 26          	mov    (%r14,%r12,1),%rax
    40000ca1:	48 89 84 24 90 00 00 	mov    %rax,0x90(%rsp)
    40000ca8:	00 
    40000ca9:	48 b8 6c d3 ff ff ff 	movabs $0xffffffffffffd36c,%rax
    40000cb0:	ff ff ff 
    40000cb3:	4c 01 e0             	add    %r12,%rax
    40000cb6:	48 89 84 24 98 00 00 	mov    %rax,0x98(%rsp)
    40000cbd:	00 
    40000cbe:	48 b8 30 90 3f c0 ff 	movabs $0xffffffffc03f9030,%rax
    40000cc5:	ff ff ff 
    40000cc8:	48 89 44 24 08       	mov    %rax,0x8(%rsp)
    40000ccd:	48 8b 84 24 90 00 00 	mov    0x90(%rsp),%rax
    40000cd4:	00 
    40000cd5:	8b 5c 24 7c          	mov    0x7c(%rsp),%ebx
    40000cd9:	39 18                	cmp    %ebx,(%rax)
    40000cdb:	0f 8e 67 07 00 00    	jle    40001448 <main+0xdb8>
    40000ce1:	48 8b 4c 24 08       	mov    0x8(%rsp),%rcx
    40000ce6:	89 da                	mov    %ebx,%edx
    40000ce8:	bf 01 00 00 00       	mov    $0x1,%edi
    40000ced:	4d 89 e7             	mov    %r12,%r15
    40000cf0:	48 8b b4 24 98 00 00 	mov    0x98(%rsp),%rsi
    40000cf7:	00 
    40000cf8:	31 c0                	xor    %eax,%eax
    40000cfa:	4c 01 e1             	add    %r12,%rcx
    40000cfd:	ff d1                	call   *%rcx
    40000cff:	48 b8 80 ff ff ff ff 	movabs $0xffffffffffffff80,%rax
    40000d06:	ff ff ff 
    40000d09:	48 ba a8 ff ff ff ff 	movabs $0xffffffffffffffa8,%rdx
    40000d10:	ff ff ff 
    40000d13:	48 be d8 5f 81 00 00 	movabs $0x815fd8,%rsi
    40000d1a:	00 00 00 
    40000d1d:	49 8b 04 04          	mov    (%r12,%rax,1),%rax
    40000d21:	49 8b 14 14          	mov    (%r12,%rdx,1),%rdx
    40000d25:	48 89 74 24 10       	mov    %rsi,0x10(%rsp)
    40000d2a:	48 63 00             	movslq (%rax),%rax
    40000d2d:	48 63 12             	movslq (%rdx),%rdx
    40000d30:	48 c1 e8 02          	shr    $0x2,%rax
    40000d34:	48 c1 ea 02          	shr    $0x2,%rdx
    40000d38:	0f af c3             	imul   %ebx,%eax
    40000d3b:	89 54 24 30          	mov    %edx,0x30(%rsp)
    40000d3f:	48 ba d0 ff ff ff ff 	movabs $0xffffffffffffffd0,%rdx
    40000d46:	ff ff ff 
    40000d49:	49 8b 14 14          	mov    (%r12,%rdx,1),%rdx
    40000d4d:	89 44 24 20          	mov    %eax,0x20(%rsp)
    40000d51:	8b 3a                	mov    (%rdx),%edi
    40000d53:	48 b8 90 ff ff ff ff 	movabs $0xffffffffffffff90,%rax
    40000d5a:	ff ff ff 
    40000d5d:	48 ba 70 ff ff ff ff 	movabs $0xffffffffffffff70,%rdx
    40000d64:	ff ff ff 
    40000d67:	49 8b 04 04          	mov    (%r12,%rax,1),%rax
    40000d6b:	49 8b 14 14          	mov    (%r12,%rdx,1),%rdx
    40000d6f:	89 bc 24 88 00 00 00 	mov    %edi,0x88(%rsp)
    40000d76:	48 63 00             	movslq (%rax),%rax
    40000d79:	8b 3a                	mov    (%rdx),%edi
    40000d7b:	48 c1 e8 02          	shr    $0x2,%rax
    40000d7f:	42 83 3c 26 00       	cmpl   $0x0,(%rsi,%r12,1)
    40000d84:	89 bc 24 8c 00 00 00 	mov    %edi,0x8c(%rsp)
    40000d8b:	0f 8e bf 02 00 00    	jle    40001050 <main+0x9c0>
    40000d91:	48 c7 44 24 28 00 00 	movq   $0x0,0x28(%rsp)
    40000d98:	00 00 
    40000d9a:	48 63 54 24 20       	movslq 0x20(%rsp),%rdx
    40000d9f:	48 98                	cltq   
    40000da1:	49 bd e0 ff ff ff ff 	movabs $0xffffffffffffffe0,%r13
    40000da8:	ff ff ff 
    40000dab:	48 01 c2             	add    %rax,%rdx
    40000dae:	48 6b c0 fc          	imul   $0xfffffffffffffffc,%rax,%rax
    40000db2:	48 8d 34 95 00 00 00 	lea    0x0(,%rdx,4),%rsi
    40000db9:	00 
    40000dba:	48 89 74 24 38       	mov    %rsi,0x38(%rsp)
    40000dbf:	48 be 87 d3 ff ff ff 	movabs $0xffffffffffffd387,%rsi
    40000dc6:	ff ff ff 
    40000dc9:	48 89 44 24 68       	mov    %rax,0x68(%rsp)
    40000dce:	48 b8 78 ff ff ff ff 	movabs $0xffffffffffffff78,%rax
    40000dd5:	ff ff ff 
    40000dd8:	48 89 44 24 48       	mov    %rax,0x48(%rsp)
    40000ddd:	4a 8b 04 20          	mov    (%rax,%r12,1),%rax
    40000de1:	48 89 74 24 60       	mov    %rsi,0x60(%rsp)
    40000de6:	48 89 44 24 58       	mov    %rax,0x58(%rsp)
    40000deb:	48 b8 0a d4 ff ff ff 	movabs $0xffffffffffffd40a,%rax
    40000df2:	ff ff ff 
    40000df5:	4a 8d 2c 20          	lea    (%rax,%r12,1),%rbp
    40000df9:	0f 1f 80 00 00 00 00 	nopl   0x0(%rax)
    40000e00:	8b 44 24 28          	mov    0x28(%rsp),%eax
    40000e04:	48 8b 5c 24 38       	mov    0x38(%rsp),%rbx
    40000e09:	bf 01 00 00 00       	mov    $0x1,%edi
    40000e0e:	4d 89 e7             	mov    %r12,%r15
    40000e11:	48 8b 4c 24 08       	mov    0x8(%rsp),%rcx
    40000e16:	89 44 24 18          	mov    %eax,0x18(%rsp)
    40000e1a:	48 8b 44 24 58       	mov    0x58(%rsp),%rax
    40000e1f:	4c 01 e1             	add    %r12,%rcx
    40000e22:	48 8b 00             	mov    (%rax),%rax
    40000e25:	8b 1c 18             	mov    (%rax,%rbx,1),%ebx
    40000e28:	48 8b 44 24 60       	mov    0x60(%rsp),%rax
    40000e2d:	89 da                	mov    %ebx,%edx
    40000e2f:	4a 8d 34 20          	lea    (%rax,%r12,1),%rsi
    40000e33:	31 c0                	xor    %eax,%eax
    40000e35:	ff d1                	call   *%rcx
    40000e37:	48 8b 44 24 50       	mov    0x50(%rsp),%rax
    40000e3c:	4a 8b 04 20          	mov    (%rax,%r12,1),%rax
    40000e40:	8b 10                	mov    (%rax),%edx
    40000e42:	85 d2                	test   %edx,%edx
    40000e44:	74 6d                	je     40000eb3 <main+0x823>
    40000e46:	48 8b 44 24 40       	mov    0x40(%rsp),%rax
    40000e4b:	42 81 7c 20 58 00 20 	cmpl   $0x2000,0x58(%rax,%r12,1)
    40000e52:	00 00 
    40000e54:	0f 84 ec 03 00 00    	je     40001246 <main+0xbb6>
    40000e5a:	4b 8b 44 25 00       	mov    0x0(%r13,%r12,1),%rax
    40000e5f:	8b 00                	mov    (%rax),%eax
    40000e61:	85 c0                	test   %eax,%eax
    40000e63:	7e 4e                	jle    40000eb3 <main+0x823>
    40000e65:	48 8b 44 24 48       	mov    0x48(%rsp),%rax
    40000e6a:	31 db                	xor    %ebx,%ebx
    40000e6c:	4e 8b 34 20          	mov    (%rax,%r12,1),%r14
    40000e70:	48 8b 74 24 10       	mov    0x10(%rsp),%rsi
    40000e75:	49 8b 16             	mov    (%r14),%rdx
    40000e78:	bf 01 00 00 00       	mov    $0x1,%edi
    40000e7d:	4d 89 e7             	mov    %r12,%r15
    40000e80:	48 8b 4c 24 08       	mov    0x8(%rsp),%rcx
    40000e85:	42 8b 04 26          	mov    (%rsi,%r12,1),%eax
    40000e89:	48 89 ee             	mov    %rbp,%rsi
    40000e8c:	4c 01 e1             	add    %r12,%rcx
    40000e8f:	0f af c3             	imul   %ebx,%eax
    40000e92:	03 44 24 18          	add    0x18(%rsp),%eax
    40000e96:	03 44 24 20          	add    0x20(%rsp),%eax
    40000e9a:	03 44 24 30          	add    0x30(%rsp),%eax
    40000e9e:	48 98                	cltq   
    40000ea0:	8b 14 82             	mov    (%rdx,%rax,4),%edx
    40000ea3:	31 c0                	xor    %eax,%eax
    40000ea5:	ff d1                	call   *%rcx
    40000ea7:	4b 8b 44 25 00       	mov    0x0(%r13,%r12,1),%rax
    40000eac:	83 c3 01             	add    $0x1,%ebx
    40000eaf:	39 18                	cmp    %ebx,(%rax)
    40000eb1:	7f bd                	jg     40000e70 <main+0x7e0>
    40000eb3:	48 be f0 ff ff ff ff 	movabs $0xfffffffffffffff0,%rsi
    40000eba:	ff ff ff 
    40000ebd:	4a 8b 04 26          	mov    (%rsi,%r12,1),%rax
    40000ec1:	8b 08                	mov    (%rax),%ecx
    40000ec3:	85 c9                	test   %ecx,%ecx
    40000ec5:	0f 84 db 00 00 00    	je     40000fa6 <main+0x916>
    40000ecb:	8b 50 04             	mov    0x4(%rax),%edx
    40000ece:	8b 78 08             	mov    0x8(%rax),%edi
    40000ed1:	85 d2                	test   %edx,%edx
    40000ed3:	0f 85 70 02 00 00    	jne    40001149 <main+0xab9>
    40000ed9:	48 8b 44 24 48       	mov    0x48(%rsp),%rax
    40000ede:	48 8b 5c 24 38       	mov    0x38(%rsp),%rbx
    40000ee3:	4a 8b 04 20          	mov    (%rax,%r12,1),%rax
    40000ee7:	48 8b 00             	mov    (%rax),%rax
    40000eea:	44 8b 04 18          	mov    (%rax,%rbx,1),%r8d
    40000eee:	48 8b 44 24 40       	mov    0x40(%rsp),%rax
    40000ef3:	42 81 7c 20 58 00 20 	cmpl   $0x2000,0x58(%rax,%r12,1)
    40000efa:	00 00 
    40000efc:	0f 84 83 03 00 00    	je     40001285 <main+0xbf5>
    40000f02:	44 89 c0             	mov    %r8d,%eax
    40000f05:	85 ff                	test   %edi,%edi
    40000f07:	74 39                	je     40000f42 <main+0x8b2>
    40000f09:	4b 8b 54 25 00       	mov    0x0(%r13,%r12,1),%rdx
    40000f0e:	3b 3a                	cmp    (%rdx),%edi
    40000f10:	0f 87 25 03 00 00    	ja     4000123b <main+0xbab>
    40000f16:	8d 57 ff             	lea    -0x1(%rdi),%edx
    40000f19:	48 8b 7c 24 10       	mov    0x10(%rsp),%rdi
    40000f1e:	42 0f af 14 27       	imul   (%rdi,%r12,1),%edx
    40000f23:	48 8b 7c 24 48       	mov    0x48(%rsp),%rdi
    40000f28:	03 54 24 18          	add    0x18(%rsp),%edx
    40000f2c:	03 54 24 20          	add    0x20(%rsp),%edx
    40000f30:	4a 8b 3c 27          	mov    (%rdi,%r12,1),%rdi
    40000f34:	03 54 24 30          	add    0x30(%rsp),%edx
    40000f38:	48 63 d2             	movslq %edx,%rdx
    40000f3b:	48 8b 3f             	mov    (%rdi),%rdi
    40000f3e:	44 8b 04 97          	mov    (%rdi,%rdx,4),%r8d
    40000f42:	45 85 c0             	test   %r8d,%r8d
    40000f45:	0f 84 ba 02 00 00    	je     40001205 <main+0xb75>
    40000f4b:	4a 8b 14 26          	mov    (%rsi,%r12,1),%rdx
    40000f4f:	83 e9 01             	sub    $0x1,%ecx
    40000f52:	8b 52 0c             	mov    0xc(%rdx),%edx
    40000f55:	0f 84 84 02 00 00    	je     400011df <main+0xb4f>
    40000f5b:	66 0f ef c9          	pxor   %xmm1,%xmm1
    40000f5f:	66 0f 6e d2          	movd   %edx,%xmm2
    40000f63:	66 0f ef c0          	pxor   %xmm0,%xmm0
    40000f67:	4d 89 e7             	mov    %r12,%r15
    40000f6a:	f2 0f 2a c8          	cvtsi2sd %eax,%xmm1
    40000f6e:	f3 0f 5a c2          	cvtss2sd %xmm2,%xmm0
    40000f72:	48 8b 5c 24 08       	mov    0x8(%rsp),%rbx
    40000f77:	48 b8 98 d3 ff ff ff 	movabs $0xffffffffffffd398,%rax
    40000f7e:	ff ff ff 
    40000f81:	49 8d 34 04          	lea    (%r12,%rax,1),%rsi
    40000f85:	bf 01 00 00 00       	mov    $0x1,%edi
    40000f8a:	b8 01 00 00 00       	mov    $0x1,%eax
    40000f8f:	4a 8d 14 23          	lea    (%rbx,%r12,1),%rdx
    40000f93:	f2 0f 59 c1          	mulsd  %xmm1,%xmm0
    40000f97:	66 0f ef c9          	pxor   %xmm1,%xmm1
    40000f9b:	f2 41 0f 2a c8       	cvtsi2sd %r8d,%xmm1
    40000fa0:	f2 0f 5e c1          	divsd  %xmm1,%xmm0
    40000fa4:	ff d2                	call   *%rdx
    40000fa6:	48 b8 d8 ff ff ff ff 	movabs $0xffffffffffffffd8,%rax
    40000fad:	ff ff ff 
    40000fb0:	49 8b 04 04          	mov    (%r12,%rax,1),%rax
    40000fb4:	8b 10                	mov    (%rax),%edx
    40000fb6:	85 d2                	test   %edx,%edx
    40000fb8:	74 76                	je     40001030 <main+0x9a0>
    40000fba:	48 8b 44 24 48       	mov    0x48(%rsp),%rax
    40000fbf:	48 8b 5c 24 28       	mov    0x28(%rsp),%rbx
    40000fc4:	4a 8b 0c 20          	mov    (%rax,%r12,1),%rcx
    40000fc8:	48 8b 44 24 38       	mov    0x38(%rsp),%rax
    40000fcd:	48 03 44 24 68       	add    0x68(%rsp),%rax
    40000fd2:	48 03 01             	add    (%rcx),%rax
    40000fd5:	f6 c2 01             	test   $0x1,%dl
    40000fd8:	48 8d 0c 98          	lea    (%rax,%rbx,4),%rcx
    40000fdc:	48 0f 45 c1          	cmovne %rcx,%rax
    40000fe0:	83 fa 08             	cmp    $0x8,%edx
    40000fe3:	0f 87 d3 02 00 00    	ja     400012bc <main+0xc2c>
    40000fe9:	89 d6                	mov    %edx,%esi
    40000feb:	48 8d 0d c6 49 00 00 	lea    0x49c6(%rip),%rcx        # 400059b8 <_IO_stdin_used+0x9b8>
    40000ff2:	48 03 0c f1          	add    (%rcx,%rsi,8),%rcx
    40000ff6:	3e ff e1             	notrack jmp *%rcx
    40000ff9:	66 0f ef c0          	pxor   %xmm0,%xmm0
    40000ffd:	f3 0f 5a 00          	cvtss2sd (%rax),%xmm0
    40001001:	48 8b 44 24 70       	mov    0x70(%rsp),%rax
    40001006:	f2 0f 5e 00          	divsd  (%rax),%xmm0
    4000100a:	48 8b 5c 24 08       	mov    0x8(%rsp),%rbx
    4000100f:	bf 01 00 00 00       	mov    $0x1,%edi
    40001014:	4d 89 e7             	mov    %r12,%r15
    40001017:	48 b8 be d3 ff ff ff 	movabs $0xffffffffffffd3be,%rax
    4000101e:	ff ff ff 
    40001021:	49 8d 34 04          	lea    (%r12,%rax,1),%rsi
    40001025:	b8 01 00 00 00       	mov    $0x1,%eax
    4000102a:	4a 8d 14 23          	lea    (%rbx,%r12,1),%rdx
    4000102e:	ff d2                	call   *%rdx
    40001030:	48 8b 7c 24 10       	mov    0x10(%rsp),%rdi
    40001035:	48 83 44 24 28 01    	addq   $0x1,0x28(%rsp)
    4000103b:	48 83 44 24 38 04    	addq   $0x4,0x38(%rsp)
    40001041:	48 8b 44 24 28       	mov    0x28(%rsp),%rax
    40001046:	42 39 04 27          	cmp    %eax,(%rdi,%r12,1)
    4000104a:	0f 8f b0 fd ff ff    	jg     40000e00 <main+0x770>
    40001050:	48 8b 44 24 40       	mov    0x40(%rsp),%rax
    40001055:	42 81 7c 20 58 00 20 	cmpl   $0x2000,0x58(%rax,%r12,1)
    4000105c:	00 00 
    4000105e:	0f 84 b0 03 00 00    	je     40001414 <main+0xd84>
    40001064:	48 b8 b0 ff ff ff ff 	movabs $0xffffffffffffffb0,%rax
    4000106b:	ff ff ff 
    4000106e:	49 8b 04 04          	mov    (%r12,%rax,1),%rax
    40001072:	83 38 00             	cmpl   $0x0,(%rax)
    40001075:	0f 85 50 02 00 00    	jne    400012cb <main+0xc3b>
    4000107b:	48 b8 d0 90 3f c0 ff 	movabs $0xffffffffc03f90d0,%rax
    40001082:	ff ff ff 
    40001085:	bf 0a 00 00 00       	mov    $0xa,%edi
    4000108a:	4d 89 e7             	mov    %r12,%r15
    4000108d:	4c 01 e0             	add    %r12,%rax
    40001090:	ff d0                	call   *%rax
    40001092:	83 44 24 7c 01       	addl   $0x1,0x7c(%rsp)
    40001097:	48 83 44 24 70 08    	addq   $0x8,0x70(%rsp)
    4000109d:	e9 2b fc ff ff       	jmp    40000ccd <main+0x63d>
    400010a2:	48 8b 5c 24 08       	mov    0x8(%rsp),%rbx
    400010a7:	48 8b 10             	mov    (%rax),%rdx
    400010aa:	bf 01 00 00 00       	mov    $0x1,%edi
    400010af:	4d 89 e7             	mov    %r12,%r15
    400010b2:	48 b8 a5 d3 ff ff ff 	movabs $0xffffffffffffd3a5,%rax
    400010b9:	ff ff ff 
    400010bc:	49 8d 34 04          	lea    (%r12,%rax,1),%rsi
    400010c0:	4a 8d 0c 23          	lea    (%rbx,%r12,1),%rcx
    400010c4:	31 c0                	xor    %eax,%eax
    400010c6:	ff d1                	call   *%rcx
    400010c8:	e9 63 ff ff ff       	jmp    40001030 <main+0x9a0>
    400010cd:	8b 10                	mov    (%rax),%edx
    400010cf:	48 b8 a0 d3 ff ff ff 	movabs $0xffffffffffffd3a0,%rax
    400010d6:	ff ff ff 
    400010d9:	48 8b 5c 24 08       	mov    0x8(%rsp),%rbx
    400010de:	49 8d 34 04          	lea    (%r12,%rax,1),%rsi
    400010e2:	bf 01 00 00 00       	mov    $0x1,%edi
    400010e7:	4d 89 e7             	mov    %r12,%r15
    400010ea:	31 c0                	xor    %eax,%eax
    400010ec:	4a 8d 0c 23          	lea    (%rbx,%r12,1),%rcx
    400010f0:	ff d1                	call   *%rcx
    400010f2:	e9 39 ff ff ff       	jmp    40001030 <main+0x9a0>
    400010f7:	f2 0f 10 00          	movsd  (%rax),%xmm0
    400010fb:	e9 0a ff ff ff       	jmp    4000100a <main+0x97a>
    40001100:	66 0f ef c0          	pxor   %xmm0,%xmm0
    40001104:	f3 0f 5a 00          	cvtss2sd (%rax),%xmm0
    40001108:	e9 fd fe ff ff       	jmp    4000100a <main+0x97a>
    4000110d:	48 8b 5c 24 08       	mov    0x8(%rsp),%rbx
    40001112:	8b 50 04             	mov    0x4(%rax),%edx
    40001115:	bf 01 00 00 00       	mov    $0x1,%edi
    4000111a:	4d 89 e7             	mov    %r12,%r15
    4000111d:	8b 08                	mov    (%rax),%ecx
    4000111f:	48 b8 b3 d3 ff ff ff 	movabs $0xffffffffffffd3b3,%rax
    40001126:	ff ff ff 
    40001129:	49 8d 34 04          	lea    (%r12,%rax,1),%rsi
    4000112d:	4e 8d 04 23          	lea    (%rbx,%r12,1),%r8
    40001131:	31 c0                	xor    %eax,%eax
    40001133:	41 ff d0             	call   *%r8
    40001136:	e9 f5 fe ff ff       	jmp    40001030 <main+0x9a0>
    4000113b:	8b 10                	mov    (%rax),%edx
    4000113d:	48 b8 ac d3 ff ff ff 	movabs $0xffffffffffffd3ac,%rax
    40001144:	ff ff ff 
    40001147:	eb 90                	jmp    400010d9 <main+0xa49>
    40001149:	4f 8b 44 25 00       	mov    0x0(%r13,%r12,1),%r8
    4000114e:	b8 01 00 00 00       	mov    $0x1,%eax
    40001153:	41 3b 10             	cmp    (%r8),%edx
    40001156:	77 2a                	ja     40001182 <main+0xaf2>
    40001158:	48 8b 5c 24 10       	mov    0x10(%rsp),%rbx
    4000115d:	8d 42 ff             	lea    -0x1(%rdx),%eax
    40001160:	42 0f af 04 23       	imul   (%rbx,%r12,1),%eax
    40001165:	48 8b 5c 24 48       	mov    0x48(%rsp),%rbx
    4000116a:	03 44 24 18          	add    0x18(%rsp),%eax
    4000116e:	03 44 24 20          	add    0x20(%rsp),%eax
    40001172:	4a 8b 14 23          	mov    (%rbx,%r12,1),%rdx
    40001176:	03 44 24 30          	add    0x30(%rsp),%eax
    4000117a:	48 98                	cltq   
    4000117c:	48 8b 12             	mov    (%rdx),%rdx
    4000117f:	8b 04 82             	mov    (%rdx,%rax,4),%eax
    40001182:	85 ff                	test   %edi,%edi
    40001184:	0f 85 7f fd ff ff    	jne    40000f09 <main+0x879>
    4000118a:	48 8b 7c 24 48       	mov    0x48(%rsp),%rdi
    4000118f:	4a 8b 14 27          	mov    (%rdi,%r12,1),%rdx
    40001193:	48 8b 7c 24 38       	mov    0x38(%rsp),%rdi
    40001198:	48 8b 12             	mov    (%rdx),%rdx
    4000119b:	44 8b 04 3a          	mov    (%rdx,%rdi,1),%r8d
    4000119f:	48 8b 7c 24 40       	mov    0x40(%rsp),%rdi
    400011a4:	42 81 7c 27 58 00 20 	cmpl   $0x2000,0x58(%rdi,%r12,1)
    400011ab:	00 00 
    400011ad:	0f 85 8f fd ff ff    	jne    40000f42 <main+0x8b2>
    400011b3:	48 ba 88 da ff ff ff 	movabs $0xffffffffffffda88,%rdx
    400011ba:	ff ff ff 
    400011bd:	66 0f ef c0          	pxor   %xmm0,%xmm0
    400011c1:	f2 41 0f 2a c0       	cvtsi2sd %r8d,%xmm0
    400011c6:	48 8b 7c 24 70       	mov    0x70(%rsp),%rdi
    400011cb:	f2 0f 59 07          	mulsd  (%rdi),%xmm0
    400011cf:	f2 42 0f 58 04 22    	addsd  (%rdx,%r12,1),%xmm0
    400011d5:	f2 44 0f 2c c0       	cvttsd2si %xmm0,%r8d
    400011da:	e9 63 fd ff ff       	jmp    40000f42 <main+0x8b2>
    400011df:	0f af c2             	imul   %edx,%eax
    400011e2:	48 8b 5c 24 08       	mov    0x8(%rsp),%rbx
    400011e7:	48 89 ee             	mov    %rbp,%rsi
    400011ea:	bf 01 00 00 00       	mov    $0x1,%edi
    400011ef:	4d 89 e7             	mov    %r12,%r15
    400011f2:	4a 8d 0c 23          	lea    (%rbx,%r12,1),%rcx
    400011f6:	99                   	cltd   
    400011f7:	41 f7 f8             	idiv   %r8d
    400011fa:	89 c2                	mov    %eax,%edx
    400011fc:	31 c0                	xor    %eax,%eax
    400011fe:	ff d1                	call   *%rcx
    40001200:	e9 a1 fd ff ff       	jmp    40000fa6 <main+0x916>
    40001205:	48 8b 5c 24 08       	mov    0x8(%rsp),%rbx
    4000120a:	bf 01 00 00 00       	mov    $0x1,%edi
    4000120f:	4d 89 e7             	mov    %r12,%r15
    40001212:	48 b8 8f d3 ff ff ff 	movabs $0xffffffffffffd38f,%rax
    40001219:	ff ff ff 
    4000121c:	49 8d 14 04          	lea    (%r12,%rax,1),%rdx
    40001220:	48 b8 93 d3 ff ff ff 	movabs $0xffffffffffffd393,%rax
    40001227:	ff ff ff 
    4000122a:	49 8d 34 04          	lea    (%r12,%rax,1),%rsi
    4000122e:	4a 8d 0c 23          	lea    (%rbx,%r12,1),%rcx
    40001232:	31 c0                	xor    %eax,%eax
    40001234:	ff d1                	call   *%rcx
    40001236:	e9 6b fd ff ff       	jmp    40000fa6 <main+0x916>
    4000123b:	41 b8 01 00 00 00    	mov    $0x1,%r8d
    40001241:	e9 05 fd ff ff       	jmp    40000f4b <main+0x8bb>
    40001246:	48 8b 44 24 70       	mov    0x70(%rsp),%rax
    4000124b:	66 0f ef c0          	pxor   %xmm0,%xmm0
    4000124f:	48 89 ee             	mov    %rbp,%rsi
    40001252:	bf 01 00 00 00       	mov    $0x1,%edi
    40001257:	48 ba 88 da ff ff ff 	movabs $0xffffffffffffda88,%rdx
    4000125e:	ff ff ff 
    40001261:	f2 0f 2a c3          	cvtsi2sd %ebx,%xmm0
    40001265:	48 8b 5c 24 08       	mov    0x8(%rsp),%rbx
    4000126a:	f2 0f 59 00          	mulsd  (%rax),%xmm0
    4000126e:	31 c0                	xor    %eax,%eax
    40001270:	f2 42 0f 58 04 22    	addsd  (%rdx,%r12,1),%xmm0
    40001276:	4a 8d 0c 23          	lea    (%rbx,%r12,1),%rcx
    4000127a:	f2 0f 2c d0          	cvttsd2si %xmm0,%edx
    4000127e:	ff d1                	call   *%rcx
    40001280:	e9 d5 fb ff ff       	jmp    40000e5a <main+0x7ca>
    40001285:	66 0f ef c0          	pxor   %xmm0,%xmm0
    40001289:	48 8b 44 24 70       	mov    0x70(%rsp),%rax
    4000128e:	48 ba 88 da ff ff ff 	movabs $0xffffffffffffda88,%rdx
    40001295:	ff ff ff 
    40001298:	f2 41 0f 2a c0       	cvtsi2sd %r8d,%xmm0
    4000129d:	f2 0f 10 08          	movsd  (%rax),%xmm1
    400012a1:	f2 0f 59 c8          	mulsd  %xmm0,%xmm1
    400012a5:	f2 42 0f 58 0c 22    	addsd  (%rdx,%r12,1),%xmm1
    400012ab:	f2 0f 2c c1          	cvttsd2si %xmm1,%eax
    400012af:	85 ff                	test   %edi,%edi
    400012b1:	0f 85 52 fc ff ff    	jne    40000f09 <main+0x879>
    400012b7:	e9 0a ff ff ff       	jmp    400011c6 <main+0xb36>
    400012bc:	48 b8 c5 d3 ff ff ff 	movabs $0xffffffffffffd3c5,%rax
    400012c3:	ff ff ff 
    400012c6:	e9 0e fe ff ff       	jmp    400010d9 <main+0xa49>
    400012cb:	48 8b 5c 24 08       	mov    0x8(%rsp),%rbx
    400012d0:	bf 01 00 00 00       	mov    $0x1,%edi
    400012d5:	4d 89 e7             	mov    %r12,%r15
    400012d8:	48 b8 ec d3 ff ff ff 	movabs $0xffffffffffffd3ec,%rax
    400012df:	ff ff ff 
    400012e2:	49 8d 34 04          	lea    (%r12,%rax,1),%rsi
    400012e6:	31 c0                	xor    %eax,%eax
    400012e8:	4a 8d 14 23          	lea    (%rbx,%r12,1),%rdx
    400012ec:	ff d2                	call   *%rdx
    400012ee:	48 63 84 24 88 00 00 	movslq 0x88(%rsp),%rax
    400012f5:	00 
    400012f6:	48 63 54 24 20       	movslq 0x20(%rsp),%rdx
    400012fb:	31 ed                	xor    %ebp,%ebp
    400012fd:	49 bd e0 ff ff ff ff 	movabs $0xffffffffffffffe0,%r13
    40001304:	ff ff ff 
    40001307:	48 c1 e8 02          	shr    $0x2,%rax
    4000130b:	89 44 24 28          	mov    %eax,0x28(%rsp)
    4000130f:	48 63 84 24 8c 00 00 	movslq 0x8c(%rsp),%rax
    40001316:	00 
    40001317:	48 c1 f8 02          	sar    $0x2,%rax
    4000131b:	48 01 d0             	add    %rdx,%rax
    4000131e:	48 c1 e0 02          	shl    $0x2,%rax
    40001322:	48 89 44 24 30       	mov    %rax,0x30(%rsp)
    40001327:	48 b8 78 ff ff ff ff 	movabs $0xffffffffffffff78,%rax
    4000132e:	ff ff ff 
    40001331:	48 89 44 24 38       	mov    %rax,0x38(%rsp)
    40001336:	48 b8 09 d4 ff ff ff 	movabs $0xffffffffffffd409,%rax
    4000133d:	ff ff ff 
    40001340:	4c 01 e0             	add    %r12,%rax
    40001343:	48 89 44 24 48       	mov    %rax,0x48(%rsp)
    40001348:	eb 09                	jmp    40001353 <main+0xcc3>
    4000134a:	48 83 44 24 30 04    	addq   $0x4,0x30(%rsp)
    40001350:	83 c5 01             	add    $0x1,%ebp
    40001353:	48 8b 44 24 10       	mov    0x10(%rsp),%rax
    40001358:	42 39 2c 20          	cmp    %ebp,(%rax,%r12,1)
    4000135c:	0f 8e 19 fd ff ff    	jle    4000107b <main+0x9eb>
    40001362:	48 8b 44 24 38       	mov    0x38(%rsp),%rax
    40001367:	48 8b 74 24 30       	mov    0x30(%rsp),%rsi
    4000136c:	bf 01 00 00 00       	mov    $0x1,%edi
    40001371:	4d 89 e7             	mov    %r12,%r15
    40001374:	48 8b 5c 24 08       	mov    0x8(%rsp),%rbx
    40001379:	4a 8b 04 20          	mov    (%rax,%r12,1),%rax
    4000137d:	4a 8d 0c 23          	lea    (%rbx,%r12,1),%rcx
    40001381:	48 8b 00             	mov    (%rax),%rax
    40001384:	8b 14 30             	mov    (%rax,%rsi,1),%edx
    40001387:	48 8b 74 24 48       	mov    0x48(%rsp),%rsi
    4000138c:	31 c0                	xor    %eax,%eax
    4000138e:	ff d1                	call   *%rcx
    40001390:	48 8b 44 24 50       	mov    0x50(%rsp),%rax
    40001395:	4a 8b 04 20          	mov    (%rax,%r12,1),%rax
    40001399:	83 38 00             	cmpl   $0x0,(%rax)
    4000139c:	74 ac                	je     4000134a <main+0xcba>
    4000139e:	4b 8b 44 25 00       	mov    0x0(%r13,%r12,1),%rax
    400013a3:	83 38 00             	cmpl   $0x0,(%rax)
    400013a6:	7e a2                	jle    4000134a <main+0xcba>
    400013a8:	48 b8 0a d4 ff ff ff 	movabs $0xffffffffffffd40a,%rax
    400013af:	ff ff ff 
    400013b2:	31 db                	xor    %ebx,%ebx
    400013b4:	48 89 44 24 18       	mov    %rax,0x18(%rsp)
    400013b9:	48 8b 44 24 38       	mov    0x38(%rsp),%rax
    400013be:	4e 8b 34 20          	mov    (%rax,%r12,1),%r14
    400013c2:	66 0f 1f 44 00 00    	nopw   0x0(%rax,%rax,1)
    400013c8:	48 8b 7c 24 10       	mov    0x10(%rsp),%rdi
    400013cd:	49 8b 16             	mov    (%r14),%rdx
    400013d0:	4d 89 e7             	mov    %r12,%r15
    400013d3:	48 8b 4c 24 08       	mov    0x8(%rsp),%rcx
    400013d8:	42 8b 04 27          	mov    (%rdi,%r12,1),%eax
    400013dc:	bf 01 00 00 00       	mov    $0x1,%edi
    400013e1:	4c 01 e1             	add    %r12,%rcx
    400013e4:	0f af c3             	imul   %ebx,%eax
    400013e7:	01 e8                	add    %ebp,%eax
    400013e9:	03 44 24 20          	add    0x20(%rsp),%eax
    400013ed:	03 44 24 28          	add    0x28(%rsp),%eax
    400013f1:	48 98                	cltq   
    400013f3:	8b 14 82             	mov    (%rdx,%rax,4),%edx
    400013f6:	48 8b 44 24 18       	mov    0x18(%rsp),%rax
    400013fb:	4a 8d 34 20          	lea    (%rax,%r12,1),%rsi
    400013ff:	31 c0                	xor    %eax,%eax
    40001401:	ff d1                	call   *%rcx
    40001403:	4b 8b 44 25 00       	mov    0x0(%r13,%r12,1),%rax
    40001408:	83 c3 01             	add    $0x1,%ebx
    4000140b:	39 18                	cmp    %ebx,(%rax)
    4000140d:	7f b9                	jg     400013c8 <main+0xd38>
    4000140f:	e9 36 ff ff ff       	jmp    4000134a <main+0xcba>
    40001414:	48 8b 44 24 70       	mov    0x70(%rsp),%rax
    40001419:	48 8b 5c 24 08       	mov    0x8(%rsp),%rbx
    4000141e:	bf 01 00 00 00       	mov    $0x1,%edi
    40001423:	4d 89 e7             	mov    %r12,%r15
    40001426:	f2 0f 10 00          	movsd  (%rax),%xmm0
    4000142a:	4a 8d 14 23          	lea    (%rbx,%r12,1),%rdx
    4000142e:	48 b8 d8 d3 ff ff ff 	movabs $0xffffffffffffd3d8,%rax
    40001435:	ff ff ff 
    40001438:	49 8d 34 04          	lea    (%r12,%rax,1),%rsi
    4000143c:	b8 01 00 00 00       	mov    $0x1,%eax
    40001441:	ff d2                	call   *%rdx
    40001443:	e9 1c fc ff ff       	jmp    40001064 <main+0x9d4>
    40001448:	48 b8 d0 90 3f c0 ff 	movabs $0xffffffffc03f90d0,%rax
    4000144f:	ff ff ff 
    40001452:	bf 0a 00 00 00       	mov    $0xa,%edi
    40001457:	4d 89 e7             	mov    %r12,%r15
    4000145a:	4c 01 e0             	add    %r12,%rax
    4000145d:	ff d0                	call   *%rax
    4000145f:	83 bc 24 a0 00 00 00 	cmpl   $0x0,0xa0(%rsp)
    40001466:	00 
    40001467:	74 1c                	je     40001485 <main+0xdf5>
    40001469:	48 b8 40 95 ff ff ff 	movabs $0xffffffffffff9540,%rax
    40001470:	ff ff ff 
    40001473:	48 8b bc 24 80 00 00 	mov    0x80(%rsp),%rdi
    4000147a:	00 
    4000147b:	4c 01 e0             	add    %r12,%rax
    4000147e:	ff d0                	call   *%rax
    40001480:	e9 ce f4 ff ff       	jmp    40000953 <main+0x2c3>
    40001485:	c7 44 24 78 00 00 00 	movl   $0x0,0x78(%rsp)
    4000148c:	00 
    4000148d:	e9 c1 f4 ff ff       	jmp    40000953 <main+0x2c3>
    40001492:	48 8b 44 24 40       	mov    0x40(%rsp),%rax
    40001497:	4a 8d 3c 20          	lea    (%rax,%r12,1),%rdi
    4000149b:	48 b8 f0 95 ff ff ff 	movabs $0xffffffffffff95f0,%rax
    400014a2:	ff ff ff 
    400014a5:	4c 01 e0             	add    %r12,%rax
    400014a8:	ff d0                	call   *%rax
    400014aa:	e9 95 f5 ff ff       	jmp    40000a44 <main+0x3b4>
    400014af:	48 b8 c0 90 3f c0 ff 	movabs $0xffffffffc03f90c0,%rax
    400014b6:	ff ff ff 
    400014b9:	4d 89 e7             	mov    %r12,%r15
    400014bc:	4c 01 e0             	add    %r12,%rax
    400014bf:	ff d0                	call   *%rax
    400014c1:	f3 0f 1e fa          	endbr64 
    400014c5:	48 89 c5             	mov    %rax,%rbp
    400014c8:	e9 7e f1 ff ff       	jmp    4000064b <main.cold>
    400014cd:	0f 1f 00             	nopl   (%rax)

00000000400014d0 <_GLOBAL__sub_I_diagnostics>:
    400014d0:	f3 0f 1e fa          	endbr64 
    400014d4:	f3 0f 1e fa          	endbr64 
    400014d8:	49 bb 2c 6b 00 00 00 	movabs $0x6b2c,%r11
    400014df:	00 00 00 
    400014e2:	41 57                	push   %r15
    400014e4:	4c 8d 3d e9 ff ff ff 	lea    -0x17(%rip),%r15        # 400014d4 <_GLOBAL__sub_I_diagnostics+0x4>
    400014eb:	49 b8 60 53 80 00 00 	movabs $0x805360,%r8
    400014f2:	00 00 00 
    400014f5:	48 b8 c0 9c ff ff ff 	movabs $0xffffffffffff9cc0,%rax
    400014fc:	ff ff ff 
    400014ff:	4d 01 df             	add    %r11,%r15
    40001502:	4b 8d 3c 07          	lea    (%r15,%r8,1),%rdi
    40001506:	4c 01 f8             	add    %r15,%rax
    40001509:	ff d0                	call   *%rax
    4000150b:	48 b8 c8 00 00 00 00 	movabs $0xc8,%rax
    40001512:	00 00 00 
    40001515:	49 8d 14 07          	lea    (%r15,%rax,1),%rdx
    40001519:	4b 8d 34 07          	lea    (%r15,%r8,1),%rsi
    4000151d:	48 b8 e0 c2 ff ff ff 	movabs $0xffffffffffffc2e0,%rax
    40001524:	ff ff ff 
    40001527:	49 8d 3c 07          	lea    (%r15,%rax,1),%rdi
    4000152b:	48 b8 a0 90 3f c0 ff 	movabs $0xffffffffc03f90a0,%rax
    40001532:	ff ff ff 
    40001535:	4c 01 f8             	add    %r15,%rax
    40001538:	41 5f                	pop    %r15
    4000153a:	ff e0                	jmp    *%rax
    4000153c:	0f 1f 40 00          	nopl   0x0(%rax)

0000000040001540 <_ZN13ThreadHandler4StopEv.part.0>:
    40001540:	f3 0f 1e fa          	endbr64 
    40001544:	f3 0f 1e fa          	endbr64 
    40001548:	49 bb bc 6a 00 00 00 	movabs $0x6abc,%r11
    4000154f:	00 00 00 
    40001552:	41 57                	push   %r15
    40001554:	4c 8d 3d e9 ff ff ff 	lea    -0x17(%rip),%r15        # 40001544 <_ZN13ThreadHandler4StopEv.part.0+0x4>
    4000155b:	41 55                	push   %r13
    4000155d:	4d 01 df             	add    %r11,%r15
    40001560:	49 89 fd             	mov    %rdi,%r13
    40001563:	41 54                	push   %r12
    40001565:	55                   	push   %rbp
    40001566:	53                   	push   %rbx
    40001567:	83 3f 01             	cmpl   $0x1,(%rdi)
    4000156a:	7e 68                	jle    400015d4 <_ZN13ThreadHandler4StopEv.part.0+0x94>
    4000156c:	48 bd 60 90 3f c0 ff 	movabs $0xffffffffc03f9060,%rbp
    40001573:	ff ff ff 
    40001576:	31 db                	xor    %ebx,%ebx
    40001578:	49 bc 08 d0 ff ff ff 	movabs $0xffffffffffffd008,%r12
    4000157f:	ff ff ff 
    40001582:	eb 13                	jmp    40001597 <_ZN13ThreadHandler4StopEv.part.0+0x57>
    40001584:	0f 1f 40 00          	nopl   0x0(%rax)
    40001588:	41 8b 45 00          	mov    0x0(%r13),%eax
    4000158c:	48 83 c3 01          	add    $0x1,%rbx
    40001590:	83 e8 01             	sub    $0x1,%eax
    40001593:	39 d8                	cmp    %ebx,%eax
    40001595:	7e 3d                	jle    400015d4 <_ZN13ThreadHandler4StopEv.part.0+0x94>
    40001597:	31 f6                	xor    %esi,%esi
    40001599:	49 8b 7c dd 08       	mov    0x8(%r13,%rbx,8),%rdi
    4000159e:	4a 8d 44 3d 00       	lea    0x0(%rbp,%r15,1),%rax
    400015a3:	ff d0                	call   *%rax
    400015a5:	85 c0                	test   %eax,%eax
    400015a7:	74 df                	je     40001588 <_ZN13ThreadHandler4StopEv.part.0+0x48>
    400015a9:	89 da                	mov    %ebx,%edx
    400015ab:	4b 8d 34 27          	lea    (%r15,%r12,1),%rsi
    400015af:	bf 01 00 00 00       	mov    $0x1,%edi
    400015b4:	31 c0                	xor    %eax,%eax
    400015b6:	48 b9 30 90 3f c0 ff 	movabs $0xffffffffc03f9030,%rcx
    400015bd:	ff ff ff 
    400015c0:	48 83 c3 01          	add    $0x1,%rbx
    400015c4:	4c 01 f9             	add    %r15,%rcx
    400015c7:	ff d1                	call   *%rcx
    400015c9:	41 8b 45 00          	mov    0x0(%r13),%eax
    400015cd:	83 e8 01             	sub    $0x1,%eax
    400015d0:	39 d8                	cmp    %ebx,%eax
    400015d2:	7f c3                	jg     40001597 <_ZN13ThreadHandler4StopEv.part.0+0x57>
    400015d4:	5b                   	pop    %rbx
    400015d5:	5d                   	pop    %rbp
    400015d6:	41 c7 45 00 00 00 00 	movl   $0x0,0x0(%r13)
    400015dd:	00 
    400015de:	41 5c                	pop    %r12
    400015e0:	41 5d                	pop    %r13
    400015e2:	41 5f                	pop    %r15
    400015e4:	c3                   	ret    
    400015e5:	90                   	nop
    400015e6:	66 2e 0f 1f 84 00 00 	cs nopw 0x0(%rax,%rax,1)
    400015ed:	00 00 00 

00000000400015f0 <_ZN9CCounters11StartDriverEv.part.0>:
    400015f0:	f3 0f 1e fa          	endbr64 
    400015f4:	f3 0f 1e fa          	endbr64 
    400015f8:	48 ba 80 90 3f c0 ff 	movabs $0xffffffffc03f9080,%rdx
    400015ff:	ff ff ff 
    40001602:	41 57                	push   %r15
    40001604:	31 f6                	xor    %esi,%esi
    40001606:	31 c0                	xor    %eax,%eax
    40001608:	53                   	push   %rbx
    40001609:	4c 8d 3d e4 ff ff ff 	lea    -0x1c(%rip),%r15        # 400015f4 <_ZN9CCounters11StartDriverEv.part.0+0x4>
    40001610:	48 89 fb             	mov    %rdi,%rbx
    40001613:	49 bb 0c 6a 00 00 00 	movabs $0x6a0c,%r11
    4000161a:	00 00 00 
    4000161d:	4d 01 df             	add    %r11,%r15
    40001620:	4c 01 fa             	add    %r15,%rdx
    40001623:	48 83 ec 08          	sub    $0x8,%rsp
    40001627:	48 8b 3f             	mov    (%rdi),%rdi
    4000162a:	ff d2                	call   *%rdx
    4000162c:	45 31 c0             	xor    %r8d,%r8d
    4000162f:	89 43 08             	mov    %eax,0x8(%rbx)
    40001632:	83 f8 ff             	cmp    $0xffffffff,%eax
    40001635:	74 11                	je     40001648 <_ZN9CCounters11StartDriverEv.part.0+0x58>
    40001637:	48 83 c4 08          	add    $0x8,%rsp
    4000163b:	44 89 c0             	mov    %r8d,%eax
    4000163e:	5b                   	pop    %rbx
    4000163f:	41 5f                	pop    %r15
    40001641:	c3                   	ret    
    40001642:	66 0f 1f 44 00 00    	nopw   0x0(%rax,%rax,1)
    40001648:	48 b8 3c d2 ff ff ff 	movabs $0xffffffffffffd23c,%rax
    4000164f:	ff ff ff 
    40001652:	48 8b 13             	mov    (%rbx),%rdx
    40001655:	bf 01 00 00 00       	mov    $0x1,%edi
    4000165a:	48 b9 30 90 3f c0 ff 	movabs $0xffffffffc03f9030,%rcx
    40001661:	ff ff ff 
    40001664:	49 8d 34 07          	lea    (%r15,%rax,1),%rsi
    40001668:	4c 01 f9             	add    %r15,%rcx
    4000166b:	31 c0                	xor    %eax,%eax
    4000166d:	ff d1                	call   *%rcx
    4000166f:	c7 43 08 00 00 00 00 	movl   $0x0,0x8(%rbx)
    40001676:	41 b8 01 00 00 00    	mov    $0x1,%r8d
    4000167c:	48 83 c4 08          	add    $0x8,%rsp
    40001680:	44 89 c0             	mov    %r8d,%eax
    40001683:	5b                   	pop    %rbx
    40001684:	41 5f                	pop    %r15
    40001686:	c3                   	ret    
    40001687:	90                   	nop
    40001688:	0f 1f 84 00 00 00 00 	nopl   0x0(%rax,%rax,1)
    4000168f:	00 

0000000040001690 <_ZN9CCounters12StopCountersEi.part.0>:
    40001690:	f3 0f 1e fa          	endbr64 
    40001694:	f3 0f 1e fa          	endbr64 
    40001698:	49 bb 6c 69 00 00 00 	movabs $0x696c,%r11
    4000169f:	00 00 00 
    400016a2:	48 63 f6             	movslq %esi,%rsi
    400016a5:	41 57                	push   %r15
    400016a7:	4c 8d 3d e6 ff ff ff 	lea    -0x1a(%rip),%r15        # 40001694 <_ZN9CCounters12StopCountersEi.part.0+0x4>
    400016ae:	48 69 f6 18 02 00 00 	imul   $0x218,%rsi,%rsi
    400016b5:	4d 01 df             	add    %r11,%r15
    400016b8:	48 8d 94 37 60 86 00 	lea    0x8660(%rdi,%rsi,1),%rdx
    400016bf:	00 
    400016c0:	8b 82 10 02 00 00    	mov    0x210(%rdx),%eax
    400016c6:	c1 e0 04             	shl    $0x4,%eax
    400016c9:	85 c0                	test   %eax,%eax
    400016cb:	7e 23                	jle    400016f0 <_ZN9CCounters12StopCountersEi.part.0+0x60>
    400016cd:	8b 7f 08             	mov    0x8(%rdi),%edi
    400016d0:	85 ff                	test   %edi,%edi
    400016d2:	74 1c                	je     400016f0 <_ZN9CCounters12StopCountersEi.part.0+0x60>
    400016d4:	48 b9 f0 90 3f c0 ff 	movabs $0xffffffffc03f90f0,%rcx
    400016db:	ff ff ff 
    400016de:	be 01 f9 00 00       	mov    $0xf901,%esi
    400016e3:	31 c0                	xor    %eax,%eax
    400016e5:	4c 01 f9             	add    %r15,%rcx
    400016e8:	41 5f                	pop    %r15
    400016ea:	ff e1                	jmp    *%rcx
    400016ec:	0f 1f 40 00          	nopl   0x0(%rax)
    400016f0:	41 5f                	pop    %r15
    400016f2:	c3                   	ret    
    400016f3:	90                   	nop
    400016f4:	66 66 2e 0f 1f 84 00 	data16 cs nopw 0x0(%rax,%rax,1)
    400016fb:	00 00 00 00 
    400016ff:	90                   	nop

0000000040001700 <_ZN9CCounters18GetProcessorFamilyEv.part.0>:
    40001700:	f3 0f 1e fa          	endbr64 
    40001704:	f3 0f 1e fa          	endbr64 
    40001708:	41 57                	push   %r15
    4000170a:	b8 01 00 00 00       	mov    $0x1,%eax
    4000170f:	31 c9                	xor    %ecx,%ecx
    40001711:	4c 8d 3d ec ff ff ff 	lea    -0x14(%rip),%r15        # 40001704 <_ZN9CCounters18GetProcessorFamilyEv.part.0+0x4>
    40001718:	49 bb fc 68 00 00 00 	movabs $0x68fc,%r11
    4000171f:	00 00 00 
    40001722:	53                   	push   %rbx
    40001723:	0f a2                	cpuid  
    40001725:	89 c2                	mov    %eax,%edx
    40001727:	89 c1                	mov    %eax,%ecx
    40001729:	4d 01 df             	add    %r11,%r15
    4000172c:	c1 fa 08             	sar    $0x8,%edx
    4000172f:	c1 f9 14             	sar    $0x14,%ecx
    40001732:	0f b6 c9             	movzbl %cl,%ecx
    40001735:	83 e2 0f             	and    $0xf,%edx
    40001738:	01 ca                	add    %ecx,%edx
    4000173a:	89 c1                	mov    %eax,%ecx
    4000173c:	c1 f8 0c             	sar    $0xc,%eax
    4000173f:	c1 f9 04             	sar    $0x4,%ecx
    40001742:	25 f0 00 00 00       	and    $0xf0,%eax
    40001747:	83 e1 0f             	and    $0xf,%ecx
    4000174a:	09 c8                	or     %ecx,%eax
    4000174c:	8b 4f 50             	mov    0x50(%rdi),%ecx
    4000174f:	83 f9 01             	cmp    $0x1,%ecx
    40001752:	74 7c                	je     400017d0 <_ZN9CCounters18GetProcessorFamilyEv.part.0+0xd0>
    40001754:	83 f9 02             	cmp    $0x2,%ecx
    40001757:	75 57                	jne    400017b0 <_ZN9CCounters18GetProcessorFamilyEv.part.0+0xb0>
    40001759:	83 fa 06             	cmp    $0x6,%edx
    4000175c:	0f 84 06 01 00 00    	je     40001868 <_ZN9CCounters18GetProcessorFamilyEv.part.0+0x168>
    40001762:	8d 4a f1             	lea    -0xf(%rdx),%ecx
    40001765:	83 f9 05             	cmp    $0x5,%ecx
    40001768:	0f 86 b2 00 00 00    	jbe    40001820 <_ZN9CCounters18GetProcessorFamilyEv.part.0+0x120>
    4000176e:	83 fa 14             	cmp    $0x14,%edx
    40001771:	0f 8e c7 01 00 00    	jle    4000193e <_ZN9CCounters18GetProcessorFamilyEv.part.0+0x23e>
    40001777:	83 fa 16             	cmp    $0x16,%edx
    4000177a:	0f 8e b2 01 00 00    	jle    40001932 <_ZN9CCounters18GetProcessorFamilyEv.part.0+0x232>
    40001780:	c7 47 54 00 00 08 00 	movl   $0x80000,0x54(%rdi)
    40001787:	66 0f 1f 84 00 00 00 	nopw   0x0(%rax,%rax,1)
    4000178e:	00 00 
    40001790:	48 b9 48 61 81 00 00 	movabs $0x816148,%rcx
    40001797:	00 00 00 
    4000179a:	41 8b 0c 0f          	mov    (%r15,%rcx,1),%ecx
    4000179e:	85 c9                	test   %ecx,%ecx
    400017a0:	75 4e                	jne    400017f0 <_ZN9CCounters18GetProcessorFamilyEv.part.0+0xf0>
    400017a2:	5b                   	pop    %rbx
    400017a3:	41 5f                	pop    %r15
    400017a5:	c3                   	ret    
    400017a6:	66 2e 0f 1f 84 00 00 	cs nopw 0x0(%rax,%rax,1)
    400017ad:	00 00 00 
    400017b0:	83 f9 03             	cmp    $0x3,%ecx
    400017b3:	75 db                	jne    40001790 <_ZN9CCounters18GetProcessorFamilyEv.part.0+0x90>
    400017b5:	83 fa 06             	cmp    $0x6,%edx
    400017b8:	75 d6                	jne    40001790 <_ZN9CCounters18GetProcessorFamilyEv.part.0+0x90>
    400017ba:	83 f8 0e             	cmp    $0xe,%eax
    400017bd:	7e d1                	jle    40001790 <_ZN9CCounters18GetProcessorFamilyEv.part.0+0x90>
    400017bf:	c7 47 54 00 00 10 00 	movl   $0x100000,0x54(%rdi)
    400017c6:	eb c8                	jmp    40001790 <_ZN9CCounters18GetProcessorFamilyEv.part.0+0x90>
    400017c8:	0f 1f 84 00 00 00 00 	nopl   0x0(%rax,%rax,1)
    400017cf:	00 
    400017d0:	83 fa 05             	cmp    $0x5,%edx
    400017d3:	0f 84 7f 00 00 00    	je     40001858 <_ZN9CCounters18GetProcessorFamilyEv.part.0+0x158>
    400017d9:	83 fa 0f             	cmp    $0xf,%edx
    400017dc:	75 52                	jne    40001830 <_ZN9CCounters18GetProcessorFamilyEv.part.0+0x130>
    400017de:	c7 47 54 08 00 00 00 	movl   $0x8,0x54(%rdi)
    400017e5:	eb a9                	jmp    40001790 <_ZN9CCounters18GetProcessorFamilyEv.part.0+0x90>
    400017e7:	66 0f 1f 84 00 00 00 	nopw   0x0(%rax,%rax,1)
    400017ee:	00 00 
    400017f0:	89 c1                	mov    %eax,%ecx
    400017f2:	44 8b 47 54          	mov    0x54(%rdi),%r8d
    400017f6:	5b                   	pop    %rbx
    400017f7:	bf 01 00 00 00       	mov    $0x1,%edi
    400017fc:	48 b8 28 d0 ff ff ff 	movabs $0xffffffffffffd028,%rax
    40001803:	ff ff ff 
    40001806:	49 b9 30 90 3f c0 ff 	movabs $0xffffffffc03f9030,%r9
    4000180d:	ff ff ff 
    40001810:	49 8d 34 07          	lea    (%r15,%rax,1),%rsi
    40001814:	4d 01 f9             	add    %r15,%r9
    40001817:	31 c0                	xor    %eax,%eax
    40001819:	41 5f                	pop    %r15
    4000181b:	41 ff e1             	jmp    *%r9
    4000181e:	66 90                	xchg   %ax,%ax
    40001820:	c7 47 54 00 00 02 00 	movl   $0x20000,0x54(%rdi)
    40001827:	e9 64 ff ff ff       	jmp    40001790 <_ZN9CCounters18GetProcessorFamilyEv.part.0+0x90>
    4000182c:	0f 1f 40 00          	nopl   0x0(%rax)
    40001830:	83 fa 06             	cmp    $0x6,%edx
    40001833:	0f 85 57 ff ff ff    	jne    40001790 <_ZN9CCounters18GetProcessorFamilyEv.part.0+0x90>
    40001839:	8d 48 f7             	lea    -0x9(%rax),%ecx
    4000183c:	81 f9 91 00 00 00    	cmp    $0x91,%ecx
    40001842:	77 7d                	ja     400018c1 <_ZN9CCounters18GetProcessorFamilyEv.part.0+0x1c1>
    40001844:	89 ce                	mov    %ecx,%esi
    40001846:	48 8d 0d d3 3b 00 00 	lea    0x3bd3(%rip),%rcx        # 40005420 <_IO_stdin_used+0x420>
    4000184d:	48 03 0c f1          	add    (%rcx,%rsi,8),%rcx
    40001851:	3e ff e1             	notrack jmp *%rcx
    40001854:	0f 1f 40 00          	nopl   0x0(%rax)
    40001858:	c7 47 54 01 00 00 00 	movl   $0x1,0x54(%rdi)
    4000185f:	e9 2c ff ff ff       	jmp    40001790 <_ZN9CCounters18GetProcessorFamilyEv.part.0+0x90>
    40001864:	0f 1f 40 00          	nopl   0x0(%rax)
    40001868:	c7 47 54 00 00 01 00 	movl   $0x10000,0x54(%rdi)
    4000186f:	e9 1c ff ff ff       	jmp    40001790 <_ZN9CCounters18GetProcessorFamilyEv.part.0+0x90>
    40001874:	c7 47 54 00 01 00 00 	movl   $0x100,0x54(%rdi)
    4000187b:	e9 10 ff ff ff       	jmp    40001790 <_ZN9CCounters18GetProcessorFamilyEv.part.0+0x90>
    40001880:	c7 47 54 80 00 00 00 	movl   $0x80,0x54(%rdi)
    40001887:	e9 04 ff ff ff       	jmp    40001790 <_ZN9CCounters18GetProcessorFamilyEv.part.0+0x90>
    4000188c:	c7 47 54 40 00 00 00 	movl   $0x40,0x54(%rdi)
    40001893:	e9 f8 fe ff ff       	jmp    40001790 <_ZN9CCounters18GetProcessorFamilyEv.part.0+0x90>
    40001898:	c7 47 54 20 00 00 00 	movl   $0x20,0x54(%rdi)
    4000189f:	e9 ec fe ff ff       	jmp    40001790 <_ZN9CCounters18GetProcessorFamilyEv.part.0+0x90>
    400018a4:	83 f8 5d             	cmp    $0x5d,%eax
    400018a7:	7e cb                	jle    40001874 <_ZN9CCounters18GetProcessorFamilyEv.part.0+0x174>
    400018a9:	83 f8 7d             	cmp    $0x7d,%eax
    400018ac:	7e 54                	jle    40001902 <_ZN9CCounters18GetProcessorFamilyEv.part.0+0x202>
    400018ae:	3d 96 00 00 00       	cmp    $0x96,%eax
    400018b3:	7e 29                	jle    400018de <_ZN9CCounters18GetProcessorFamilyEv.part.0+0x1de>
    400018b5:	c7 47 54 00 08 00 00 	movl   $0x800,0x54(%rdi)
    400018bc:	e9 cf fe ff ff       	jmp    40001790 <_ZN9CCounters18GetProcessorFamilyEv.part.0+0x90>
    400018c1:	83 f8 3b             	cmp    $0x3b,%eax
    400018c4:	7f de                	jg     400018a4 <_ZN9CCounters18GetProcessorFamilyEv.part.0+0x1a4>
    400018c6:	c7 47 54 02 00 00 00 	movl   $0x2,0x54(%rdi)
    400018cd:	e9 be fe ff ff       	jmp    40001790 <_ZN9CCounters18GetProcessorFamilyEv.part.0+0x90>
    400018d2:	c7 47 54 00 20 00 00 	movl   $0x2000,0x54(%rdi)
    400018d9:	e9 b2 fe ff ff       	jmp    40001790 <_ZN9CCounters18GetProcessorFamilyEv.part.0+0x90>
    400018de:	c7 47 54 00 04 00 00 	movl   $0x400,0x54(%rdi)
    400018e5:	e9 a6 fe ff ff       	jmp    40001790 <_ZN9CCounters18GetProcessorFamilyEv.part.0+0x90>
    400018ea:	c7 47 54 00 40 00 00 	movl   $0x4000,0x54(%rdi)
    400018f1:	e9 9a fe ff ff       	jmp    40001790 <_ZN9CCounters18GetProcessorFamilyEv.part.0+0x90>
    400018f6:	c7 47 54 00 80 00 00 	movl   $0x8000,0x54(%rdi)
    400018fd:	e9 8e fe ff ff       	jmp    40001790 <_ZN9CCounters18GetProcessorFamilyEv.part.0+0x90>
    40001902:	c7 47 54 00 02 00 00 	movl   $0x200,0x54(%rdi)
    40001909:	e9 82 fe ff ff       	jmp    40001790 <_ZN9CCounters18GetProcessorFamilyEv.part.0+0x90>
    4000190e:	c7 47 54 10 00 00 00 	movl   $0x10,0x54(%rdi)
    40001915:	e9 76 fe ff ff       	jmp    40001790 <_ZN9CCounters18GetProcessorFamilyEv.part.0+0x90>
    4000191a:	c7 47 54 04 00 00 00 	movl   $0x4,0x54(%rdi)
    40001921:	e9 6a fe ff ff       	jmp    40001790 <_ZN9CCounters18GetProcessorFamilyEv.part.0+0x90>
    40001926:	c7 47 54 00 10 00 00 	movl   $0x1000,0x54(%rdi)
    4000192d:	e9 5e fe ff ff       	jmp    40001790 <_ZN9CCounters18GetProcessorFamilyEv.part.0+0x90>
    40001932:	c7 47 54 00 00 04 00 	movl   $0x40000,0x54(%rdi)
    40001939:	e9 52 fe ff ff       	jmp    40001790 <_ZN9CCounters18GetProcessorFamilyEv.part.0+0x90>
    4000193e:	c7 47 54 00 00 00 00 	movl   $0x0,0x54(%rdi)
    40001945:	e9 46 fe ff ff       	jmp    40001790 <_ZN9CCounters18GetProcessorFamilyEv.part.0+0x90>
    4000194a:	66 0f 1f 44 00 00    	nopw   0x0(%rax,%rax,1)

0000000040001950 <_ZN9CCounters13StartCountersEi.part.0>:
    40001950:	f3 0f 1e fa          	endbr64 
    40001954:	f3 0f 1e fa          	endbr64 
    40001958:	49 bb ac 66 00 00 00 	movabs $0x66ac,%r11
    4000195f:	00 00 00 
    40001962:	48 63 f6             	movslq %esi,%rsi
    40001965:	41 57                	push   %r15
    40001967:	4c 8d 3d e6 ff ff ff 	lea    -0x1a(%rip),%r15        # 40001954 <_ZN9CCounters13StartCountersEi.part.0+0x4>
    4000196e:	48 69 f6 18 02 00 00 	imul   $0x218,%rsi,%rsi
    40001975:	4d 01 df             	add    %r11,%r15
    40001978:	48 8d 54 37 60       	lea    0x60(%rdi,%rsi,1),%rdx
    4000197d:	8b 82 10 02 00 00    	mov    0x210(%rdx),%eax
    40001983:	c1 e0 04             	shl    $0x4,%eax
    40001986:	85 c0                	test   %eax,%eax
    40001988:	7e 26                	jle    400019b0 <_ZN9CCounters13StartCountersEi.part.0+0x60>
    4000198a:	8b 7f 08             	mov    0x8(%rdi),%edi
    4000198d:	85 ff                	test   %edi,%edi
    4000198f:	74 1f                	je     400019b0 <_ZN9CCounters13StartCountersEi.part.0+0x60>
    40001991:	48 b9 f0 90 3f c0 ff 	movabs $0xffffffffc03f90f0,%rcx
    40001998:	ff ff ff 
    4000199b:	be 01 f9 00 00       	mov    $0xf901,%esi
    400019a0:	31 c0                	xor    %eax,%eax
    400019a2:	4c 01 f9             	add    %r15,%rcx
    400019a5:	41 5f                	pop    %r15
    400019a7:	ff e1                	jmp    *%rcx
    400019a9:	0f 1f 80 00 00 00 00 	nopl   0x0(%rax)
    400019b0:	41 5f                	pop    %r15
    400019b2:	c3                   	ret    
    400019b3:	66 66 2e 0f 1f 84 00 	data16 cs nopw 0x0(%rax,%rax,1)
    400019ba:	00 00 00 00 
    400019be:	66 90                	xchg   %ax,%ax

00000000400019c0 <_Z11ThreadProc1Pv>:
    400019c0:	f3 0f 1e fa          	endbr64 
    400019c4:	f3 0f 1e fa          	endbr64 
    400019c8:	49 bb 3c 66 00 00 00 	movabs $0x663c,%r11
    400019cf:	00 00 00 
    400019d2:	41 57                	push   %r15
    400019d4:	4c 8d 3d e9 ff ff ff 	lea    -0x17(%rip),%r15        # 400019c4 <_Z11ThreadProc1Pv+0x4>
    400019db:	41 56                	push   %r14
    400019dd:	4d 01 df             	add    %r11,%r15
    400019e0:	49 be 98 ff ff ff ff 	movabs $0xffffffffffffff98,%r14
    400019e7:	ff ff ff 
    400019ea:	41 55                	push   %r13
    400019ec:	41 54                	push   %r12
    400019ee:	55                   	push   %rbp
    400019ef:	53                   	push   %rbx
    400019f0:	48 81 ec a8 00 00 00 	sub    $0xa8,%rsp
    400019f7:	44 8b 2f             	mov    (%rdi),%r13d
    400019fa:	64 48 8b 04 25 28 00 	mov    %fs:0x28,%rax
    40001a01:	00 00 
    40001a03:	48 89 84 24 98 00 00 	mov    %rax,0x98(%rsp)
    40001a0a:	00 
    40001a0b:	31 c0                	xor    %eax,%eax
    40001a0d:	4b 8b 04 3e          	mov    (%r14,%r15,1),%rax
    40001a11:	44 39 28             	cmp    %r13d,(%rax)
    40001a14:	0f 86 de 01 00 00    	jbe    40001bf8 <_Z11ThreadProc1Pv+0x238>
    40001a1a:	44 89 eb             	mov    %r13d,%ebx
    40001a1d:	48 8d 6c 24 10       	lea    0x10(%rsp),%rbp
    40001a22:	b9 10 00 00 00       	mov    $0x10,%ecx
    40001a27:	48 b8 20 60 81 00 00 	movabs $0x816020,%rax
    40001a2e:	00 00 00 
    40001a31:	4c 01 f8             	add    %r15,%rax
    40001a34:	48 89 ef             	mov    %rbp,%rdi
    40001a37:	44 8b 24 98          	mov    (%rax,%rbx,4),%r12d
    40001a3b:	31 c0                	xor    %eax,%eax
    40001a3d:	f3 48 ab             	rep stos %rax,%es:(%rdi)
    40001a40:	49 63 c4             	movslq %r12d,%rax
    40001a43:	48 3d ff 03 00 00    	cmp    $0x3ff,%rax
    40001a49:	77 14                	ja     40001a5f <_Z11ThreadProc1Pv+0x9f>
    40001a4b:	48 c1 e8 06          	shr    $0x6,%rax
    40001a4f:	ba 01 00 00 00       	mov    $0x1,%edx
    40001a54:	44 89 e1             	mov    %r12d,%ecx
    40001a57:	48 d3 e2             	shl    %cl,%rdx
    40001a5a:	48 09 54 c5 00       	or     %rdx,0x0(%rbp,%rax,8)
    40001a5f:	48 b8 b0 90 3f c0 ff 	movabs $0xffffffffc03f90b0,%rax
    40001a66:	ff ff ff 
    40001a69:	4c 01 f8             	add    %r15,%rax
    40001a6c:	ff d0                	call   *%rax
    40001a6e:	48 89 ea             	mov    %rbp,%rdx
    40001a71:	be 80 00 00 00       	mov    $0x80,%esi
    40001a76:	89 c7                	mov    %eax,%edi
    40001a78:	48 b8 90 90 3f c0 ff 	movabs $0xffffffffc03f9090,%rax
    40001a7f:	ff ff ff 
    40001a82:	4c 01 f8             	add    %r15,%rax
    40001a85:	ff d0                	call   *%rax
    40001a87:	85 c0                	test   %eax,%eax
    40001a89:	0f 85 39 01 00 00    	jne    40001bc8 <_Z11ThreadProc1Pv+0x208>
    40001a8f:	49 bc a0 ff ff ff ff 	movabs $0xffffffffffffffa0,%r12
    40001a96:	ff ff ff 
    40001a99:	4b 8b 04 3c          	mov    (%r12,%r15,1),%rax
    40001a9d:	8b 10                	mov    (%rax),%edx
    40001a9f:	85 d2                	test   %edx,%edx
    40001aa1:	0f 85 f9 00 00 00    	jne    40001ba0 <_Z11ThreadProc1Pv+0x1e0>
    40001aa7:	48 b8 00 91 3f c0 ff 	movabs $0xffffffffc03f9100,%rax
    40001aae:	ff ff ff 
    40001ab1:	48 89 44 24 08       	mov    %rax,0x8(%rsp)
    40001ab6:	4c 01 f8             	add    %r15,%rax
    40001ab9:	ff d0                	call   *%rax
    40001abb:	4b 8b 04 3e          	mov    (%r14,%r15,1),%rax
    40001abf:	48 c7 44 24 10 00 00 	movq   $0x0,0x10(%rsp)
    40001ac6:	00 00 
    40001ac8:	8b 00                	mov    (%rax),%eax
    40001aca:	85 c0                	test   %eax,%eax
    40001acc:	0f 8e 56 01 00 00    	jle    40001c28 <_Z11ThreadProc1Pv+0x268>
    40001ad2:	83 e8 01             	sub    $0x1,%eax
    40001ad5:	48 89 ef             	mov    %rbp,%rdi
    40001ad8:	48 8d 44 04 11       	lea    0x11(%rsp,%rax,1),%rax
    40001add:	0f 1f 00             	nopl   (%rax)
    40001ae0:	c6 07 01             	movb   $0x1,(%rdi)
    40001ae3:	48 83 c7 01          	add    $0x1,%rdi
    40001ae7:	48 39 c7             	cmp    %rax,%rdi
    40001aea:	75 f4                	jne    40001ae0 <_Z11ThreadProc1Pv+0x120>
    40001aec:	48 8b 4c 24 10       	mov    0x10(%rsp),%rcx
    40001af1:	48 ba 40 61 81 00 00 	movabs $0x816140,%rdx
    40001af8:	00 00 00 
    40001afb:	4a 8d 04 3a          	lea    (%rdx,%r15,1),%rax
    40001aff:	c6 04 18 01          	movb   $0x1,(%rax,%rbx,1)
    40001b03:	0f 1f 44 00 00       	nopl   0x0(%rax,%rax,1)
    40001b08:	4a 8b 04 3a          	mov    (%rdx,%r15,1),%rax
    40001b0c:	48 39 c8             	cmp    %rcx,%rax
    40001b0f:	75 f7                	jne    40001b08 <_Z11ThreadProc1Pv+0x148>
    40001b11:	48 b8 00 80 ff ff ff 	movabs $0xffffffffffff8000,%rax
    40001b18:	ff ff ff 
    40001b1b:	44 89 ef             	mov    %r13d,%edi
    40001b1e:	4c 01 f8             	add    %r15,%rax
    40001b21:	ff d0                	call   *%rax
    40001b23:	48 8b 5c 24 08       	mov    0x8(%rsp),%rbx
    40001b28:	41 89 c1             	mov    %eax,%r9d
    40001b2b:	48 b8 d8 5f 81 00 00 	movabs $0x815fd8,%rax
    40001b32:	00 00 00 
    40001b35:	46 89 0c 38          	mov    %r9d,(%rax,%r15,1)
    40001b39:	4c 01 fb             	add    %r15,%rbx
    40001b3c:	ff d3                	call   *%rbx
    40001b3e:	4b 8b 04 3c          	mov    (%r12,%r15,1),%rax
    40001b42:	8b 00                	mov    (%rax),%eax
    40001b44:	85 c0                	test   %eax,%eax
    40001b46:	75 30                	jne    40001b78 <_Z11ThreadProc1Pv+0x1b8>
    40001b48:	48 8b 84 24 98 00 00 	mov    0x98(%rsp),%rax
    40001b4f:	00 
    40001b50:	64 48 33 04 25 28 00 	xor    %fs:0x28,%rax
    40001b57:	00 00 
    40001b59:	0f 85 d0 00 00 00    	jne    40001c2f <_Z11ThreadProc1Pv+0x26f>
    40001b5f:	48 81 c4 a8 00 00 00 	add    $0xa8,%rsp
    40001b66:	31 c0                	xor    %eax,%eax
    40001b68:	5b                   	pop    %rbx
    40001b69:	5d                   	pop    %rbp
    40001b6a:	41 5c                	pop    %r12
    40001b6c:	41 5d                	pop    %r13
    40001b6e:	41 5e                	pop    %r14
    40001b70:	41 5f                	pop    %r15
    40001b72:	c3                   	ret    
    40001b73:	0f 1f 44 00 00       	nopl   0x0(%rax,%rax,1)
    40001b78:	48 b8 60 53 80 00 00 	movabs $0x805360,%rax
    40001b7f:	00 00 00 
    40001b82:	44 89 ee             	mov    %r13d,%esi
    40001b85:	49 8d 3c 07          	lea    (%r15,%rax,1),%rdi
    40001b89:	48 b8 90 96 ff ff ff 	movabs $0xffffffffffff9690,%rax
    40001b90:	ff ff ff 
    40001b93:	4c 01 f8             	add    %r15,%rax
    40001b96:	ff d0                	call   *%rax
    40001b98:	eb ae                	jmp    40001b48 <_Z11ThreadProc1Pv+0x188>
    40001b9a:	66 0f 1f 44 00 00    	nopw   0x0(%rax,%rax,1)
    40001ba0:	48 b8 60 53 80 00 00 	movabs $0x805360,%rax
    40001ba7:	00 00 00 
    40001baa:	44 89 ee             	mov    %r13d,%esi
    40001bad:	49 8d 3c 07          	lea    (%r15,%rax,1),%rdi
    40001bb1:	48 b8 50 99 ff ff ff 	movabs $0xffffffffffff9950,%rax
    40001bb8:	ff ff ff 
    40001bbb:	4c 01 f8             	add    %r15,%rax
    40001bbe:	ff d0                	call   *%rax
    40001bc0:	e9 e2 fe ff ff       	jmp    40001aa7 <_Z11ThreadProc1Pv+0xe7>
    40001bc5:	0f 1f 00             	nopl   (%rax)
    40001bc8:	48 b8 70 d0 ff ff ff 	movabs $0xffffffffffffd070,%rax
    40001bcf:	ff ff ff 
    40001bd2:	44 89 e2             	mov    %r12d,%edx
    40001bd5:	bf 01 00 00 00       	mov    $0x1,%edi
    40001bda:	48 b9 30 90 3f c0 ff 	movabs $0xffffffffc03f9030,%rcx
    40001be1:	ff ff ff 
    40001be4:	49 8d 34 07          	lea    (%r15,%rax,1),%rsi
    40001be8:	4c 01 f9             	add    %r15,%rcx
    40001beb:	31 c0                	xor    %eax,%eax
    40001bed:	ff d1                	call   *%rcx
    40001bef:	e9 9b fe ff ff       	jmp    40001a8f <_Z11ThreadProc1Pv+0xcf>
    40001bf4:	0f 1f 40 00          	nopl   0x0(%rax)
    40001bf8:	48 b8 50 d0 ff ff ff 	movabs $0xffffffffffffd050,%rax
    40001bff:	ff ff ff 
    40001c02:	44 89 ea             	mov    %r13d,%edx
    40001c05:	bf 01 00 00 00       	mov    $0x1,%edi
    40001c0a:	48 b9 30 90 3f c0 ff 	movabs $0xffffffffc03f9030,%rcx
    40001c11:	ff ff ff 
    40001c14:	49 8d 34 07          	lea    (%r15,%rax,1),%rsi
    40001c18:	4c 01 f9             	add    %r15,%rcx
    40001c1b:	31 c0                	xor    %eax,%eax
    40001c1d:	ff d1                	call   *%rcx
    40001c1f:	e9 24 ff ff ff       	jmp    40001b48 <_Z11ThreadProc1Pv+0x188>
    40001c24:	0f 1f 40 00          	nopl   0x0(%rax)
    40001c28:	31 c9                	xor    %ecx,%ecx
    40001c2a:	e9 c2 fe ff ff       	jmp    40001af1 <_Z11ThreadProc1Pv+0x131>
    40001c2f:	48 b8 c0 90 3f c0 ff 	movabs $0xffffffffc03f90c0,%rax
    40001c36:	ff ff ff 
    40001c39:	4c 01 f8             	add    %r15,%rax
    40001c3c:	ff d0                	call   *%rax
    40001c3e:	66 90                	xchg   %ax,%ax

0000000040001c40 <_ZN12CMSRInOutQueC1Ev>:
    40001c40:	f3 0f 1e fa          	endbr64 
    40001c44:	f3 0f 1e fa          	endbr64 
    40001c48:	c7 87 10 02 00 00 00 	movl   $0x0,0x210(%rdi)
    40001c4f:	00 00 00 
    40001c52:	48 8d 87 10 02 00 00 	lea    0x210(%rdi),%rax
    40001c59:	0f 1f 80 00 00 00 00 	nopl   0x0(%rax)
    40001c60:	c7 07 01 00 00 00    	movl   $0x1,(%rdi)
    40001c66:	48 83 c7 10          	add    $0x10,%rdi
    40001c6a:	48 39 c7             	cmp    %rax,%rdi
    40001c6d:	75 f1                	jne    40001c60 <_ZN12CMSRInOutQueC1Ev+0x20>
    40001c6f:	c3                   	ret    

0000000040001c70 <_ZN12CMSRInOutQue3putE12EMSR_COMMANDjjj>:
    40001c70:	f3 0f 1e fa          	endbr64 
    40001c74:	f3 0f 1e fa          	endbr64 
    40001c78:	44 8b 8f 10 02 00 00 	mov    0x210(%rdi),%r9d
    40001c7f:	41 83 f9 1f          	cmp    $0x1f,%r9d
    40001c83:	7f 2b                	jg     40001cb0 <_ZN12CMSRInOutQue3putE12EMSR_COMMANDjjj+0x40>
    40001c85:	49 63 c1             	movslq %r9d,%rax
    40001c88:	41 83 c1 01          	add    $0x1,%r9d
    40001c8c:	48 c1 e0 04          	shl    $0x4,%rax
    40001c90:	48 01 f8             	add    %rdi,%rax
    40001c93:	89 30                	mov    %esi,(%rax)
    40001c95:	89 50 04             	mov    %edx,0x4(%rax)
    40001c98:	89 48 08             	mov    %ecx,0x8(%rax)
    40001c9b:	44 89 40 0c          	mov    %r8d,0xc(%rax)
    40001c9f:	31 c0                	xor    %eax,%eax
    40001ca1:	44 89 8f 10 02 00 00 	mov    %r9d,0x210(%rdi)
    40001ca8:	c3                   	ret    
    40001ca9:	0f 1f 80 00 00 00 00 	nopl   0x0(%rax)
    40001cb0:	b8 f6 ff ff ff       	mov    $0xfffffff6,%eax
    40001cb5:	c3                   	ret    
    40001cb6:	66 2e 0f 1f 84 00 00 	cs nopw 0x0(%rax,%rax,1)
    40001cbd:	00 00 00 

0000000040001cc0 <_ZN9CCountersC1Ev>:
    40001cc0:	f3 0f 1e fa          	endbr64 
    40001cc4:	f3 0f 1e fa          	endbr64 
    40001cc8:	48 8d 05 f5 ff ff ff 	lea    -0xb(%rip),%rax        # 40001cc4 <_ZN9CCountersC1Ev+0x4>
    40001ccf:	c7 47 08 00 00 00 00 	movl   $0x0,0x8(%rdi)
    40001cd6:	49 bb 3c 63 00 00 00 	movabs $0x633c,%r11
    40001cdd:	00 00 00 
    40001ce0:	48 ba 54 d2 ff ff ff 	movabs $0xffffffffffffd254,%rdx
    40001ce7:	ff ff ff 
    40001cea:	4c 01 d8             	add    %r11,%rax
    40001ced:	48 8d 4f 60          	lea    0x60(%rdi),%rcx
    40001cf1:	48 8d b7 60 86 00 00 	lea    0x8660(%rdi),%rsi
    40001cf8:	48 01 d0             	add    %rdx,%rax
    40001cfb:	48 8d 97 70 02 00 00 	lea    0x270(%rdi),%rdx
    40001d02:	48 89 07             	mov    %rax,(%rdi)
    40001d05:	0f 1f 00             	nopl   (%rax)
    40001d08:	c7 02 00 00 00 00    	movl   $0x0,(%rdx)
    40001d0e:	48 89 c8             	mov    %rcx,%rax
    40001d11:	0f 1f 80 00 00 00 00 	nopl   0x0(%rax)
    40001d18:	c7 00 01 00 00 00    	movl   $0x1,(%rax)
    40001d1e:	48 83 c0 10          	add    $0x10,%rax
    40001d22:	48 39 d0             	cmp    %rdx,%rax
    40001d25:	75 f1                	jne    40001d18 <_ZN9CCountersC1Ev+0x58>
    40001d27:	48 81 c1 18 02 00 00 	add    $0x218,%rcx
    40001d2e:	48 8d 90 18 02 00 00 	lea    0x218(%rax),%rdx
    40001d35:	48 39 f1             	cmp    %rsi,%rcx
    40001d38:	75 ce                	jne    40001d08 <_ZN9CCountersC1Ev+0x48>
    40001d3a:	48 8d 97 70 88 00 00 	lea    0x8870(%rdi),%rdx
    40001d41:	48 8d b7 60 0c 01 00 	lea    0x10c60(%rdi),%rsi
    40001d48:	0f 1f 84 00 00 00 00 	nopl   0x0(%rax,%rax,1)
    40001d4f:	00 
    40001d50:	c7 02 00 00 00 00    	movl   $0x0,(%rdx)
    40001d56:	48 89 c8             	mov    %rcx,%rax
    40001d59:	0f 1f 80 00 00 00 00 	nopl   0x0(%rax)
    40001d60:	c7 00 01 00 00 00    	movl   $0x1,(%rax)
    40001d66:	48 83 c0 10          	add    $0x10,%rax
    40001d6a:	48 39 d0             	cmp    %rdx,%rax
    40001d6d:	75 f1                	jne    40001d60 <_ZN9CCountersC1Ev+0xa0>
    40001d6f:	48 81 c1 18 02 00 00 	add    $0x218,%rcx
    40001d76:	48 8d 90 18 02 00 00 	lea    0x218(%rax),%rdx
    40001d7d:	48 39 ce             	cmp    %rcx,%rsi
    40001d80:	75 ce                	jne    40001d50 <_ZN9CCountersC1Ev+0x90>
    40001d82:	c7 87 64 0c 01 00 00 	movl   $0x0,0x10c64(%rdi)
    40001d89:	00 00 00 
    40001d8c:	48 c7 87 68 0c 01 00 	movq   $0x0,0x10c68(%rdi)
    40001d93:	00 00 00 00 
    40001d97:	48 c7 47 10 00 00 00 	movq   $0x0,0x10(%rdi)
    40001d9e:	00 
    40001d9f:	48 c7 47 18 00 00 00 	movq   $0x0,0x18(%rdi)
    40001da6:	00 
    40001da7:	48 c7 47 20 00 00 00 	movq   $0x0,0x20(%rdi)
    40001dae:	00 
    40001daf:	48 c7 47 28 00 00 00 	movq   $0x0,0x28(%rdi)
    40001db6:	00 
    40001db7:	48 c7 47 30 00 00 00 	movq   $0x0,0x30(%rdi)
    40001dbe:	00 
    40001dbf:	48 c7 47 38 00 00 00 	movq   $0x0,0x38(%rdi)
    40001dc6:	00 
    40001dc7:	48 c7 47 40 00 00 00 	movq   $0x0,0x40(%rdi)
    40001dce:	00 
    40001dcf:	48 c7 47 48 00 00 00 	movq   $0x0,0x48(%rdi)
    40001dd6:	00 
    40001dd7:	48 c7 47 50 00 00 00 	movq   $0x0,0x50(%rdi)
    40001dde:	00 
    40001ddf:	c7 47 58 00 00 00 00 	movl   $0x0,0x58(%rdi)
    40001de6:	c3                   	ret    
    40001de7:	90                   	nop
    40001de8:	0f 1f 84 00 00 00 00 	nopl   0x0(%rax,%rax,1)
    40001def:	00 

0000000040001df0 <_ZN9CCounters13LockProcessorEv>:
    40001df0:	f3 0f 1e fa          	endbr64 
    40001df4:	f3 0f 1e fa          	endbr64 
    40001df8:	48 8d 05 f5 ff ff ff 	lea    -0xb(%rip),%rax        # 40001df4 <_ZN9CCounters13LockProcessorEv+0x4>
    40001dff:	49 bb 0c 62 00 00 00 	movabs $0x620c,%r11
    40001e06:	00 00 00 
    40001e09:	48 ba 98 ff ff ff ff 	movabs $0xffffffffffffff98,%rdx
    40001e10:	ff ff ff 
    40001e13:	4c 01 d8             	add    %r11,%rax
    40001e16:	48 8b 14 10          	mov    (%rax,%rdx,1),%rdx
    40001e1a:	8b 12                	mov    (%rdx),%edx
    40001e1c:	85 d2                	test   %edx,%edx
    40001e1e:	0f 8e 4c 01 00 00    	jle    40001f70 <_ZN9CCounters13LockProcessorEv+0x180>
    40001e24:	53                   	push   %rbx
    40001e25:	48 8d b7 70 02 00 00 	lea    0x270(%rdi),%rsi
    40001e2c:	44 8d 5a ff          	lea    -0x1(%rdx),%r11d
    40001e30:	45 31 c0             	xor    %r8d,%r8d
    40001e33:	49 ba 20 60 81 00 00 	movabs $0x816020,%r10
    40001e3a:	00 00 00 
    40001e3d:	49 01 c2             	add    %rax,%r10
    40001e40:	eb 09                	jmp    40001e4b <_ZN9CCounters13LockProcessorEv+0x5b>
    40001e42:	66 0f 1f 44 00 00    	nopw   0x0(%rax,%rax,1)
    40001e48:	49 89 c0             	mov    %rax,%r8
    40001e4b:	43 8b 1c 82          	mov    (%r10,%r8,4),%ebx
    40001e4f:	49 63 c0             	movslq %r8d,%rax
    40001e52:	85 db                	test   %ebx,%ebx
    40001e54:	0f 88 f9 00 00 00    	js     40001f53 <_ZN9CCounters13LockProcessorEv+0x163>
    40001e5a:	8b 16                	mov    (%rsi),%edx
    40001e5c:	83 fa 1f             	cmp    $0x1f,%edx
    40001e5f:	0f 8f 0c 01 00 00    	jg     40001f71 <_ZN9CCounters13LockProcessorEv+0x181>
    40001e65:	4c 69 c8 18 02 00 00 	imul   $0x218,%rax,%r9
    40001e6c:	48 63 ca             	movslq %edx,%rcx
    40001e6f:	83 c2 01             	add    $0x1,%edx
    40001e72:	48 c1 e1 04          	shl    $0x4,%rcx
    40001e76:	4c 01 c9             	add    %r9,%rcx
    40001e79:	48 01 f9             	add    %rdi,%rcx
    40001e7c:	48 c7 41 60 09 00 00 	movq   $0x9,0x60(%rcx)
    40001e83:	00 
    40001e84:	89 59 68             	mov    %ebx,0x68(%rcx)
    40001e87:	c7 41 6c 00 00 00 00 	movl   $0x0,0x6c(%rcx)
    40001e8e:	8b 8e 00 86 00 00    	mov    0x8600(%rsi),%ecx
    40001e94:	89 16                	mov    %edx,(%rsi)
    40001e96:	83 f9 1f             	cmp    $0x1f,%ecx
    40001e99:	0f 8f e9 00 00 00    	jg     40001f88 <_ZN9CCounters13LockProcessorEv+0x198>
    40001e9f:	4c 69 c8 18 02 00 00 	imul   $0x218,%rax,%r9
    40001ea6:	48 63 d1             	movslq %ecx,%rdx
    40001ea9:	83 c1 01             	add    $0x1,%ecx
    40001eac:	48 c1 e2 04          	shl    $0x4,%rdx
    40001eb0:	4c 01 ca             	add    %r9,%rdx
    40001eb3:	48 01 fa             	add    %rdi,%rdx
    40001eb6:	48 c7 82 60 86 00 00 	movq   $0x9,0x8660(%rdx)
    40001ebd:	09 00 00 00 
    40001ec1:	89 9a 68 86 00 00    	mov    %ebx,0x8668(%rdx)
    40001ec7:	c7 82 6c 86 00 00 00 	movl   $0x0,0x866c(%rdx)
    40001ece:	00 00 00 
    40001ed1:	8b 16                	mov    (%rsi),%edx
    40001ed3:	89 8e 00 86 00 00    	mov    %ecx,0x8600(%rsi)
    40001ed9:	83 fa 1f             	cmp    $0x1f,%edx
    40001edc:	7f 31                	jg     40001f0f <_ZN9CCounters13LockProcessorEv+0x11f>
    40001ede:	48 69 d8 18 02 00 00 	imul   $0x218,%rax,%rbx
    40001ee5:	4c 63 ca             	movslq %edx,%r9
    40001ee8:	83 c2 01             	add    $0x1,%edx
    40001eeb:	49 c1 e1 04          	shl    $0x4,%r9
    40001eef:	49 01 d9             	add    %rbx,%r9
    40001ef2:	49 01 f9             	add    %rdi,%r9
    40001ef5:	49 c7 41 60 06 00 00 	movq   $0x6,0x60(%r9)
    40001efc:	00 
    40001efd:	41 c7 41 68 00 00 00 	movl   $0x0,0x68(%r9)
    40001f04:	00 
    40001f05:	41 c7 41 6c 00 00 00 	movl   $0x0,0x6c(%r9)
    40001f0c:	00 
    40001f0d:	89 16                	mov    %edx,(%rsi)
    40001f0f:	83 f9 1f             	cmp    $0x1f,%ecx
    40001f12:	7f 3f                	jg     40001f53 <_ZN9CCounters13LockProcessorEv+0x163>
    40001f14:	48 69 d0 18 02 00 00 	imul   $0x218,%rax,%rdx
    40001f1b:	4c 63 c9             	movslq %ecx,%r9
    40001f1e:	83 c1 01             	add    $0x1,%ecx
    40001f21:	4c 89 c8             	mov    %r9,%rax
    40001f24:	48 c1 e0 04          	shl    $0x4,%rax
    40001f28:	48 01 d0             	add    %rdx,%rax
    40001f2b:	48 01 f8             	add    %rdi,%rax
    40001f2e:	48 c7 80 60 86 00 00 	movq   $0x7,0x8660(%rax)
    40001f35:	07 00 00 00 
    40001f39:	c7 80 68 86 00 00 00 	movl   $0x0,0x8668(%rax)
    40001f40:	00 00 00 
    40001f43:	c7 80 6c 86 00 00 00 	movl   $0x0,0x866c(%rax)
    40001f4a:	00 00 00 
    40001f4d:	89 8e 00 86 00 00    	mov    %ecx,0x8600(%rsi)
    40001f53:	49 8d 40 01          	lea    0x1(%r8),%rax
    40001f57:	48 81 c6 18 02 00 00 	add    $0x218,%rsi
    40001f5e:	4d 39 d8             	cmp    %r11,%r8
    40001f61:	0f 85 e1 fe ff ff    	jne    40001e48 <_ZN9CCounters13LockProcessorEv+0x58>
    40001f67:	5b                   	pop    %rbx
    40001f68:	c3                   	ret    
    40001f69:	0f 1f 80 00 00 00 00 	nopl   0x0(%rax)
    40001f70:	c3                   	ret    
    40001f71:	8b 8e 00 86 00 00    	mov    0x8600(%rsi),%ecx
    40001f77:	83 f9 1f             	cmp    $0x1f,%ecx
    40001f7a:	0f 8e 1f ff ff ff    	jle    40001e9f <_ZN9CCounters13LockProcessorEv+0xaf>
    40001f80:	eb d1                	jmp    40001f53 <_ZN9CCounters13LockProcessorEv+0x163>
    40001f82:	66 0f 1f 44 00 00    	nopw   0x0(%rax,%rax,1)
    40001f88:	83 fa 1f             	cmp    $0x1f,%edx
    40001f8b:	0f 8e 4d ff ff ff    	jle    40001ede <_ZN9CCounters13LockProcessorEv+0xee>
    40001f91:	eb c0                	jmp    40001f53 <_ZN9CCounters13LockProcessorEv+0x163>
    40001f93:	90                   	nop
    40001f94:	66 66 2e 0f 1f 84 00 	data16 cs nopw 0x0(%rax,%rax,1)
    40001f9b:	00 00 00 00 
    40001f9f:	90                   	nop

0000000040001fa0 <_ZN9CCounters11StartDriverEv>:
    40001fa0:	f3 0f 1e fa          	endbr64 
    40001fa4:	f3 0f 1e fa          	endbr64 
    40001fa8:	48 8d 05 f5 ff ff ff 	lea    -0xb(%rip),%rax        # 40001fa4 <_ZN9CCounters11StartDriverEv+0x4>
    40001faf:	49 bb 5c 60 00 00 00 	movabs $0x605c,%r11
    40001fb6:	00 00 00 
    40001fb9:	48 ba a0 ff ff ff ff 	movabs $0xffffffffffffffa0,%rdx
    40001fc0:	ff ff ff 
    40001fc3:	4c 01 d8             	add    %r11,%rax
    40001fc6:	48 8b 14 10          	mov    (%rax,%rdx,1),%rdx
    40001fca:	8b 12                	mov    (%rdx),%edx
    40001fcc:	85 d2                	test   %edx,%edx
    40001fce:	75 08                	jne    40001fd8 <_ZN9CCounters11StartDriverEv+0x38>
    40001fd0:	31 c0                	xor    %eax,%eax
    40001fd2:	c3                   	ret    
    40001fd3:	0f 1f 44 00 00       	nopl   0x0(%rax,%rax,1)
    40001fd8:	48 ba f0 95 ff ff ff 	movabs $0xffffffffffff95f0,%rdx
    40001fdf:	ff ff ff 
    40001fe2:	48 01 d0             	add    %rdx,%rax
    40001fe5:	ff e0                	jmp    *%rax
    40001fe7:	90                   	nop
    40001fe8:	0f 1f 84 00 00 00 00 	nopl   0x0(%rax,%rax,1)
    40001fef:	00 

0000000040001ff0 <_ZN9CCounters7CleanUpEv>:
    40001ff0:	f3 0f 1e fa          	endbr64 
    40001ff4:	f3 0f 1e fa          	endbr64 
    40001ff8:	4c 8d 15 f5 ff ff ff 	lea    -0xb(%rip),%r10        # 40001ff4 <_ZN9CCounters7CleanUpEv+0x4>
    40001fff:	41 57                	push   %r15
    40002001:	49 bb 0c 60 00 00 00 	movabs $0x600c,%r11
    40002008:	00 00 00 
    4000200b:	48 b8 98 ff ff ff ff 	movabs $0xffffffffffffff98,%rax
    40002012:	ff ff ff 
    40002015:	4d 01 da             	add    %r11,%r10
    40002018:	41 56                	push   %r14
    4000201a:	49 8b 04 02          	mov    (%r10,%rax,1),%rax
    4000201e:	41 55                	push   %r13
    40002020:	41 54                	push   %r12
    40002022:	55                   	push   %rbp
    40002023:	53                   	push   %rbx
    40002024:	44 8b 28             	mov    (%rax),%r13d
    40002027:	48 89 7c 24 e8       	mov    %rdi,-0x18(%rsp)
    4000202c:	45 85 ed             	test   %r13d,%r13d
    4000202f:	0f 8e e3 00 00 00    	jle    40002118 <_ZN9CCounters7CleanUpEv+0x128>
    40002035:	48 b8 d0 55 80 00 00 	movabs $0x8055d0,%rax
    4000203c:	00 00 00 
    4000203f:	44 8b 7f 58          	mov    0x58(%rdi),%r15d
    40002043:	31 f6                	xor    %esi,%esi
    40002045:	48 bd e0 5f 81 00 00 	movabs $0x815fe0,%rbp
    4000204c:	00 00 00 
    4000204f:	4d 8d 0c 02          	lea    (%r10,%rax,1),%r9
    40002053:	4c 01 d5             	add    %r10,%rbp
    40002056:	48 b8 60 53 80 00 00 	movabs $0x805360,%rax
    4000205d:	00 00 00 
    40002060:	49 be 80 da ff ff ff 	movabs $0xffffffffffffda80,%r14
    40002067:	ff ff ff 
    4000206a:	48 89 44 24 f8       	mov    %rax,-0x8(%rsp)
    4000206f:	eb 27                	jmp    40002098 <_ZN9CCounters7CleanUpEv+0xa8>
    40002071:	0f 1f 80 00 00 00 00 	nopl   0x0(%rax)
    40002078:	f2 43 0f 10 04 32    	movsd  (%r10,%r14,1),%xmm0
    4000207e:	f2 0f 11 44 f5 00    	movsd  %xmm0,0x0(%rbp,%rsi,8)
    40002084:	48 83 c6 01          	add    $0x1,%rsi
    40002088:	49 81 c1 18 02 00 00 	add    $0x218,%r9
    4000208f:	41 39 f5             	cmp    %esi,%r13d
    40002092:	0f 8e 80 00 00 00    	jle    40002118 <_ZN9CCounters7CleanUpEv+0x128>
    40002098:	4c 63 e6             	movslq %esi,%r12
    4000209b:	41 81 ff 00 20 00 00 	cmp    $0x2000,%r15d
    400020a2:	75 d4                	jne    40002078 <_ZN9CCounters7CleanUpEv+0x88>
    400020a4:	48 8b 44 24 e8       	mov    -0x18(%rsp),%rax
    400020a9:	45 8b 81 00 86 00 00 	mov    0x8600(%r9),%r8d
    400020b0:	8b 98 70 0c 01 00    	mov    0x10c70(%rax),%ebx
    400020b6:	45 85 c0             	test   %r8d,%r8d
    400020b9:	0f 8e d4 01 00 00    	jle    40002293 <_ZN9CCounters7CleanUpEv+0x2a3>
    400020bf:	49 8d 91 f4 fd ff ff 	lea    -0x20c(%r9),%rdx
    400020c6:	31 c9                	xor    %ecx,%ecx
    400020c8:	48 89 d0             	mov    %rdx,%rax
    400020cb:	eb 0f                	jmp    400020dc <_ZN9CCounters7CleanUpEv+0xec>
    400020cd:	0f 1f 00             	nopl   (%rax)
    400020d0:	83 c1 01             	add    $0x1,%ecx
    400020d3:	48 83 c0 10          	add    $0x10,%rax
    400020d7:	44 39 c1             	cmp    %r8d,%ecx
    400020da:	74 4c                	je     40002128 <_ZN9CCounters7CleanUpEv+0x138>
    400020dc:	83 b8 fc 85 00 00 02 	cmpl   $0x2,0x85fc(%rax)
    400020e3:	75 eb                	jne    400020d0 <_ZN9CCounters7CleanUpEv+0xe0>
    400020e5:	3b 18                	cmp    (%rax),%ebx
    400020e7:	75 e7                	jne    400020d0 <_ZN9CCounters7CleanUpEv+0xe0>
    400020e9:	49 63 c4             	movslq %r12d,%rax
    400020ec:	48 63 c9             	movslq %ecx,%rcx
    400020ef:	48 8b 7c 24 f8       	mov    -0x8(%rsp),%rdi
    400020f4:	48 69 c0 18 02 00 00 	imul   $0x218,%rax,%rax
    400020fb:	48 c1 e1 04          	shl    $0x4,%rcx
    400020ff:	48 01 c8             	add    %rcx,%rax
    40002102:	4c 01 d0             	add    %r10,%rax
    40002105:	48 8b 84 07 68 86 00 	mov    0x8668(%rdi,%rax,1),%rax
    4000210c:	00 
    4000210d:	48 89 44 24 f0       	mov    %rax,-0x10(%rsp)
    40002112:	eb 1d                	jmp    40002131 <_ZN9CCounters7CleanUpEv+0x141>
    40002114:	0f 1f 40 00          	nopl   0x0(%rax)
    40002118:	5b                   	pop    %rbx
    40002119:	5d                   	pop    %rbp
    4000211a:	41 5c                	pop    %r12
    4000211c:	41 5d                	pop    %r13
    4000211e:	41 5e                	pop    %r14
    40002120:	41 5f                	pop    %r15
    40002122:	c3                   	ret    
    40002123:	0f 1f 44 00 00       	nopl   0x0(%rax,%rax,1)
    40002128:	48 c7 44 24 f0 00 00 	movq   $0x0,-0x10(%rsp)
    4000212f:	00 00 
    40002131:	48 8b 44 24 e8       	mov    -0x18(%rsp),%rax
    40002136:	41 8b 39             	mov    (%r9),%edi
    40002139:	44 8b 98 74 0c 01 00 	mov    0x10c74(%rax),%r11d
    40002140:	85 ff                	test   %edi,%edi
    40002142:	7e 5f                	jle    400021a3 <_ZN9CCounters7CleanUpEv+0x1b3>
    40002144:	49 8d 81 f0 fd ff ff 	lea    -0x210(%r9),%rax
    4000214b:	31 c9                	xor    %ecx,%ecx
    4000214d:	48 89 c2             	mov    %rax,%rdx
    40002150:	eb 15                	jmp    40002167 <_ZN9CCounters7CleanUpEv+0x177>
    40002152:	66 0f 1f 44 00 00    	nopw   0x0(%rax,%rax,1)
    40002158:	83 c1 01             	add    $0x1,%ecx
    4000215b:	48 83 c2 10          	add    $0x10,%rdx
    4000215f:	39 f9                	cmp    %edi,%ecx
    40002161:	0f 84 91 00 00 00    	je     400021f8 <_ZN9CCounters7CleanUpEv+0x208>
    40002167:	83 3a 02             	cmpl   $0x2,(%rdx)
    4000216a:	75 ec                	jne    40002158 <_ZN9CCounters7CleanUpEv+0x168>
    4000216c:	3b 5a 04             	cmp    0x4(%rdx),%ebx
    4000216f:	75 e7                	jne    40002158 <_ZN9CCounters7CleanUpEv+0x168>
    40002171:	49 63 d4             	movslq %r12d,%rdx
    40002174:	48 63 c9             	movslq %ecx,%rcx
    40002177:	48 69 d2 18 02 00 00 	imul   $0x218,%rdx,%rdx
    4000217e:	48 c1 e1 04          	shl    $0x4,%rcx
    40002182:	48 01 ca             	add    %rcx,%rdx
    40002185:	48 8b 4c 24 f8       	mov    -0x8(%rsp),%rcx
    4000218a:	4c 01 d2             	add    %r10,%rdx
    4000218d:	48 8b 54 11 68       	mov    0x68(%rcx,%rdx,1),%rdx
    40002192:	48 29 54 24 f0       	sub    %rdx,-0x10(%rsp)
    40002197:	49 8d 91 f4 fd ff ff 	lea    -0x20c(%r9),%rdx
    4000219e:	45 85 c0             	test   %r8d,%r8d
    400021a1:	7e 61                	jle    40002204 <_ZN9CCounters7CleanUpEv+0x214>
    400021a3:	31 c0                	xor    %eax,%eax
    400021a5:	eb 19                	jmp    400021c0 <_ZN9CCounters7CleanUpEv+0x1d0>
    400021a7:	66 0f 1f 84 00 00 00 	nopw   0x0(%rax,%rax,1)
    400021ae:	00 00 
    400021b0:	83 c0 01             	add    $0x1,%eax
    400021b3:	48 83 c2 10          	add    $0x10,%rdx
    400021b7:	44 39 c0             	cmp    %r8d,%eax
    400021ba:	0f 8d a0 00 00 00    	jge    40002260 <_ZN9CCounters7CleanUpEv+0x270>
    400021c0:	83 ba fc 85 00 00 02 	cmpl   $0x2,0x85fc(%rdx)
    400021c7:	75 e7                	jne    400021b0 <_ZN9CCounters7CleanUpEv+0x1c0>
    400021c9:	44 3b 1a             	cmp    (%rdx),%r11d
    400021cc:	75 e2                	jne    400021b0 <_ZN9CCounters7CleanUpEv+0x1c0>
    400021ce:	49 63 d4             	movslq %r12d,%rdx
    400021d1:	48 98                	cltq   
    400021d3:	48 8b 5c 24 f8       	mov    -0x8(%rsp),%rbx
    400021d8:	48 69 d2 18 02 00 00 	imul   $0x218,%rdx,%rdx
    400021df:	48 c1 e0 04          	shl    $0x4,%rax
    400021e3:	48 01 d0             	add    %rdx,%rax
    400021e6:	4c 01 d0             	add    %r10,%rax
    400021e9:	48 8b 94 03 68 86 00 	mov    0x8668(%rbx,%rax,1),%rdx
    400021f0:	00 
    400021f1:	eb 6f                	jmp    40002262 <_ZN9CCounters7CleanUpEv+0x272>
    400021f3:	0f 1f 44 00 00       	nopl   0x0(%rax,%rax,1)
    400021f8:	49 8d 91 f4 fd ff ff 	lea    -0x20c(%r9),%rdx
    400021ff:	45 85 c0             	test   %r8d,%r8d
    40002202:	7f 9f                	jg     400021a3 <_ZN9CCounters7CleanUpEv+0x1b3>
    40002204:	31 d2                	xor    %edx,%edx
    40002206:	66 2e 0f 1f 84 00 00 	cs nopw 0x0(%rax,%rax,1)
    4000220d:	00 00 00 
    40002210:	31 c9                	xor    %ecx,%ecx
    40002212:	eb 0f                	jmp    40002223 <_ZN9CCounters7CleanUpEv+0x233>
    40002214:	0f 1f 40 00          	nopl   0x0(%rax)
    40002218:	83 c1 01             	add    $0x1,%ecx
    4000221b:	48 83 c0 10          	add    $0x10,%rax
    4000221f:	39 f9                	cmp    %edi,%ecx
    40002221:	7d 4d                	jge    40002270 <_ZN9CCounters7CleanUpEv+0x280>
    40002223:	83 38 02             	cmpl   $0x2,(%rax)
    40002226:	75 f0                	jne    40002218 <_ZN9CCounters7CleanUpEv+0x228>
    40002228:	44 3b 58 04          	cmp    0x4(%rax),%r11d
    4000222c:	75 ea                	jne    40002218 <_ZN9CCounters7CleanUpEv+0x228>
    4000222e:	48 63 c1             	movslq %ecx,%rax
    40002231:	48 8b 5c 24 f8       	mov    -0x8(%rsp),%rbx
    40002236:	66 0f ef c0          	pxor   %xmm0,%xmm0
    4000223a:	48 c1 e0 04          	shl    $0x4,%rax
    4000223e:	48 89 c1             	mov    %rax,%rcx
    40002241:	49 69 c4 18 02 00 00 	imul   $0x218,%r12,%rax
    40002248:	48 01 c8             	add    %rcx,%rax
    4000224b:	4c 01 d0             	add    %r10,%rax
    4000224e:	48 2b 54 03 68       	sub    0x68(%rbx,%rax,1),%rdx
    40002253:	f2 48 0f 2a c2       	cvtsi2sd %rdx,%xmm0
    40002258:	eb 1f                	jmp    40002279 <_ZN9CCounters7CleanUpEv+0x289>
    4000225a:	66 0f 1f 44 00 00    	nopw   0x0(%rax,%rax,1)
    40002260:	31 d2                	xor    %edx,%edx
    40002262:	85 ff                	test   %edi,%edi
    40002264:	7e 0a                	jle    40002270 <_ZN9CCounters7CleanUpEv+0x280>
    40002266:	49 8d 81 f0 fd ff ff 	lea    -0x210(%r9),%rax
    4000226d:	eb a1                	jmp    40002210 <_ZN9CCounters7CleanUpEv+0x220>
    4000226f:	90                   	nop
    40002270:	66 0f ef c0          	pxor   %xmm0,%xmm0
    40002274:	f2 48 0f 2a c2       	cvtsi2sd %rdx,%xmm0
    40002279:	66 0f ef c9          	pxor   %xmm1,%xmm1
    4000227d:	f2 48 0f 2a 4c 24 f0 	cvtsi2sdq -0x10(%rsp),%xmm1
    40002284:	f2 0f 5e c1          	divsd  %xmm1,%xmm0
    40002288:	f2 0f 11 44 f5 00    	movsd  %xmm0,0x0(%rbp,%rsi,8)
    4000228e:	e9 f1 fd ff ff       	jmp    40002084 <_ZN9CCounters7CleanUpEv+0x94>
    40002293:	48 8b 44 24 e8       	mov    -0x18(%rsp),%rax
    40002298:	41 8b 39             	mov    (%r9),%edi
    4000229b:	66 0f ef c0          	pxor   %xmm0,%xmm0
    4000229f:	48 c7 44 24 f0 00 00 	movq   $0x0,-0x10(%rsp)
    400022a6:	00 00 
    400022a8:	44 8b 98 74 0c 01 00 	mov    0x10c74(%rax),%r11d
    400022af:	85 ff                	test   %edi,%edi
    400022b1:	0f 8f 8d fe ff ff    	jg     40002144 <_ZN9CCounters7CleanUpEv+0x154>
    400022b7:	eb c0                	jmp    40002279 <_ZN9CCounters7CleanUpEv+0x289>
    400022b9:	90                   	nop
    400022ba:	66 0f 1f 44 00 00    	nopw   0x0(%rax,%rax,1)

00000000400022c0 <_ZN9CCounters4Put1Ei12EMSR_COMMANDjjj>:
    400022c0:	f3 0f 1e fa          	endbr64 
    400022c4:	f3 0f 1e fa          	endbr64 
    400022c8:	85 f6                	test   %esi,%esi
    400022ca:	7e 64                	jle    40002330 <_ZN9CCounters4Put1Ei12EMSR_COMMANDjjj+0x70>
    400022cc:	55                   	push   %rbp
    400022cd:	48 8d af 70 02 00 00 	lea    0x270(%rdi),%rbp
    400022d4:	53                   	push   %rbx
    400022d5:	31 db                	xor    %ebx,%ebx
    400022d7:	66 0f 1f 84 00 00 00 	nopw   0x0(%rax,%rax,1)
    400022de:	00 00 
    400022e0:	44 8b 55 00          	mov    0x0(%rbp),%r10d
    400022e4:	41 83 fa 1f          	cmp    $0x1f,%r10d
    400022e8:	7f 2d                	jg     40002317 <_ZN9CCounters4Put1Ei12EMSR_COMMANDjjj+0x57>
    400022ea:	4c 63 db             	movslq %ebx,%r11
    400022ed:	49 63 c2             	movslq %r10d,%rax
    400022f0:	41 83 c2 01          	add    $0x1,%r10d
    400022f4:	4d 69 db 18 02 00 00 	imul   $0x218,%r11,%r11
    400022fb:	48 c1 e0 04          	shl    $0x4,%rax
    400022ff:	4c 01 d8             	add    %r11,%rax
    40002302:	48 01 f8             	add    %rdi,%rax
    40002305:	89 50 60             	mov    %edx,0x60(%rax)
    40002308:	89 48 64             	mov    %ecx,0x64(%rax)
    4000230b:	44 89 40 68          	mov    %r8d,0x68(%rax)
    4000230f:	44 89 48 6c          	mov    %r9d,0x6c(%rax)
    40002313:	44 89 55 00          	mov    %r10d,0x0(%rbp)
    40002317:	83 c3 01             	add    $0x1,%ebx
    4000231a:	48 81 c5 18 02 00 00 	add    $0x218,%rbp
    40002321:	39 de                	cmp    %ebx,%esi
    40002323:	75 bb                	jne    400022e0 <_ZN9CCounters4Put1Ei12EMSR_COMMANDjjj+0x20>
    40002325:	5b                   	pop    %rbx
    40002326:	5d                   	pop    %rbp
    40002327:	c3                   	ret    
    40002328:	0f 1f 84 00 00 00 00 	nopl   0x0(%rax,%rax,1)
    4000232f:	00 
    40002330:	c3                   	ret    
    40002331:	90                   	nop
    40002332:	66 66 2e 0f 1f 84 00 	data16 cs nopw 0x0(%rax,%rax,1)
    40002339:	00 00 00 00 
    4000233d:	0f 1f 00             	nopl   (%rax)

0000000040002340 <_ZN9CCounters4Put2Ei12EMSR_COMMANDjjj>:
    40002340:	f3 0f 1e fa          	endbr64 
    40002344:	f3 0f 1e fa          	endbr64 
    40002348:	85 f6                	test   %esi,%esi
    4000234a:	7e 6c                	jle    400023b8 <_ZN9CCounters4Put2Ei12EMSR_COMMANDjjj+0x78>
    4000234c:	55                   	push   %rbp
    4000234d:	48 8d af 70 88 00 00 	lea    0x8870(%rdi),%rbp
    40002354:	53                   	push   %rbx
    40002355:	31 db                	xor    %ebx,%ebx
    40002357:	66 0f 1f 84 00 00 00 	nopw   0x0(%rax,%rax,1)
    4000235e:	00 00 
    40002360:	44 8b 55 00          	mov    0x0(%rbp),%r10d
    40002364:	41 83 fa 1f          	cmp    $0x1f,%r10d
    40002368:	7f 39                	jg     400023a3 <_ZN9CCounters4Put2Ei12EMSR_COMMANDjjj+0x63>
    4000236a:	4c 63 db             	movslq %ebx,%r11
    4000236d:	49 63 c2             	movslq %r10d,%rax
    40002370:	41 83 c2 01          	add    $0x1,%r10d
    40002374:	4d 69 db 18 02 00 00 	imul   $0x218,%r11,%r11
    4000237b:	48 c1 e0 04          	shl    $0x4,%rax
    4000237f:	4c 01 d8             	add    %r11,%rax
    40002382:	48 01 f8             	add    %rdi,%rax
    40002385:	89 90 60 86 00 00    	mov    %edx,0x8660(%rax)
    4000238b:	89 88 64 86 00 00    	mov    %ecx,0x8664(%rax)
    40002391:	44 89 80 68 86 00 00 	mov    %r8d,0x8668(%rax)
    40002398:	44 89 88 6c 86 00 00 	mov    %r9d,0x866c(%rax)
    4000239f:	44 89 55 00          	mov    %r10d,0x0(%rbp)
    400023a3:	83 c3 01             	add    $0x1,%ebx
    400023a6:	48 81 c5 18 02 00 00 	add    $0x218,%rbp
    400023ad:	39 de                	cmp    %ebx,%esi
    400023af:	75 af                	jne    40002360 <_ZN9CCounters4Put2Ei12EMSR_COMMANDjjj+0x20>
    400023b1:	5b                   	pop    %rbx
    400023b2:	5d                   	pop    %rbp
    400023b3:	c3                   	ret    
    400023b4:	0f 1f 40 00          	nopl   0x0(%rax)
    400023b8:	c3                   	ret    
    400023b9:	90                   	nop
    400023ba:	66 0f 1f 44 00 00    	nopw   0x0(%rax,%rax,1)

00000000400023c0 <_ZN9CCounters5read1Eji>:
    400023c0:	f3 0f 1e fa          	endbr64 
    400023c4:	f3 0f 1e fa          	endbr64 
    400023c8:	48 63 d2             	movslq %edx,%rdx
    400023cb:	48 69 c2 18 02 00 00 	imul   $0x218,%rdx,%rax
    400023d2:	48 8d 44 07 60       	lea    0x60(%rdi,%rax,1),%rax
    400023d7:	44 8b 80 10 02 00 00 	mov    0x210(%rax),%r8d
    400023de:	45 85 c0             	test   %r8d,%r8d
    400023e1:	7e 3d                	jle    40002420 <_ZN9CCounters5read1Eji+0x60>
    400023e3:	31 c9                	xor    %ecx,%ecx
    400023e5:	eb 15                	jmp    400023fc <_ZN9CCounters5read1Eji+0x3c>
    400023e7:	66 0f 1f 84 00 00 00 	nopw   0x0(%rax,%rax,1)
    400023ee:	00 00 
    400023f0:	83 c1 01             	add    $0x1,%ecx
    400023f3:	48 83 c0 10          	add    $0x10,%rax
    400023f7:	44 39 c1             	cmp    %r8d,%ecx
    400023fa:	74 24                	je     40002420 <_ZN9CCounters5read1Eji+0x60>
    400023fc:	83 38 02             	cmpl   $0x2,(%rax)
    400023ff:	75 ef                	jne    400023f0 <_ZN9CCounters5read1Eji+0x30>
    40002401:	39 70 04             	cmp    %esi,0x4(%rax)
    40002404:	75 ea                	jne    400023f0 <_ZN9CCounters5read1Eji+0x30>
    40002406:	48 69 c2 18 02 00 00 	imul   $0x218,%rdx,%rax
    4000240d:	48 63 c9             	movslq %ecx,%rcx
    40002410:	48 c1 e1 04          	shl    $0x4,%rcx
    40002414:	48 01 c8             	add    %rcx,%rax
    40002417:	48 8b 44 07 68       	mov    0x68(%rdi,%rax,1),%rax
    4000241c:	c3                   	ret    
    4000241d:	0f 1f 00             	nopl   (%rax)
    40002420:	31 c0                	xor    %eax,%eax
    40002422:	c3                   	ret    
    40002423:	90                   	nop
    40002424:	66 66 2e 0f 1f 84 00 	data16 cs nopw 0x0(%rax,%rax,1)
    4000242b:	00 00 00 00 
    4000242f:	90                   	nop

0000000040002430 <_ZN9CCounters5read2Eji>:
    40002430:	f3 0f 1e fa          	endbr64 
    40002434:	f3 0f 1e fa          	endbr64 
    40002438:	48 63 d2             	movslq %edx,%rdx
    4000243b:	48 69 c2 18 02 00 00 	imul   $0x218,%rdx,%rax
    40002442:	44 8b 84 07 70 88 00 	mov    0x8870(%rdi,%rax,1),%r8d
    40002449:	00 
    4000244a:	45 85 c0             	test   %r8d,%r8d
    4000244d:	7e 49                	jle    40002498 <_ZN9CCounters5read2Eji+0x68>
    4000244f:	48 8d 44 07 64       	lea    0x64(%rdi,%rax,1),%rax
    40002454:	31 c9                	xor    %ecx,%ecx
    40002456:	eb 14                	jmp    4000246c <_ZN9CCounters5read2Eji+0x3c>
    40002458:	0f 1f 84 00 00 00 00 	nopl   0x0(%rax,%rax,1)
    4000245f:	00 
    40002460:	83 c1 01             	add    $0x1,%ecx
    40002463:	48 83 c0 10          	add    $0x10,%rax
    40002467:	44 39 c1             	cmp    %r8d,%ecx
    4000246a:	74 2c                	je     40002498 <_ZN9CCounters5read2Eji+0x68>
    4000246c:	83 b8 fc 85 00 00 02 	cmpl   $0x2,0x85fc(%rax)
    40002473:	75 eb                	jne    40002460 <_ZN9CCounters5read2Eji+0x30>
    40002475:	39 30                	cmp    %esi,(%rax)
    40002477:	75 e7                	jne    40002460 <_ZN9CCounters5read2Eji+0x30>
    40002479:	48 69 c2 18 02 00 00 	imul   $0x218,%rdx,%rax
    40002480:	48 63 c9             	movslq %ecx,%rcx
    40002483:	48 c1 e1 04          	shl    $0x4,%rcx
    40002487:	48 01 c8             	add    %rcx,%rax
    4000248a:	48 8b 84 07 68 86 00 	mov    0x8668(%rdi,%rax,1),%rax
    40002491:	00 
    40002492:	c3                   	ret    
    40002493:	0f 1f 44 00 00       	nopl   0x0(%rax,%rax,1)
    40002498:	31 c0                	xor    %eax,%eax
    4000249a:	c3                   	ret    
    4000249b:	90                   	nop
    4000249c:	0f 1f 40 00          	nopl   0x0(%rax)

00000000400024a0 <_ZN9CCounters13StartCountersEi>:
    400024a0:	f3 0f 1e fa          	endbr64 
    400024a4:	f3 0f 1e fa          	endbr64 
    400024a8:	48 8d 05 f5 ff ff ff 	lea    -0xb(%rip),%rax        # 400024a4 <_ZN9CCounters13StartCountersEi+0x4>
    400024af:	49 bb 5c 5b 00 00 00 	movabs $0x5b5c,%r11
    400024b6:	00 00 00 
    400024b9:	48 ba a0 ff ff ff ff 	movabs $0xffffffffffffffa0,%rdx
    400024c0:	ff ff ff 
    400024c3:	4c 01 d8             	add    %r11,%rax
    400024c6:	48 8b 14 10          	mov    (%rax,%rdx,1),%rdx
    400024ca:	8b 12                	mov    (%rdx),%edx
    400024cc:	85 d2                	test   %edx,%edx
    400024ce:	74 10                	je     400024e0 <_ZN9CCounters13StartCountersEi+0x40>
    400024d0:	48 ba 50 99 ff ff ff 	movabs $0xffffffffffff9950,%rdx
    400024d7:	ff ff ff 
    400024da:	48 01 d0             	add    %rdx,%rax
    400024dd:	ff e0                	jmp    *%rax
    400024df:	90                   	nop
    400024e0:	c3                   	ret    
    400024e1:	90                   	nop
    400024e2:	66 66 2e 0f 1f 84 00 	data16 cs nopw 0x0(%rax,%rax,1)
    400024e9:	00 00 00 00 
    400024ed:	0f 1f 00             	nopl   (%rax)

00000000400024f0 <_ZN9CCounters12StopCountersEi>:
    400024f0:	f3 0f 1e fa          	endbr64 
    400024f4:	f3 0f 1e fa          	endbr64 
    400024f8:	48 8d 05 f5 ff ff ff 	lea    -0xb(%rip),%rax        # 400024f4 <_ZN9CCounters12StopCountersEi+0x4>
    400024ff:	49 bb 0c 5b 00 00 00 	movabs $0x5b0c,%r11
    40002506:	00 00 00 
    40002509:	48 ba a0 ff ff ff ff 	movabs $0xffffffffffffffa0,%rdx
    40002510:	ff ff ff 
    40002513:	4c 01 d8             	add    %r11,%rax
    40002516:	48 8b 14 10          	mov    (%rax,%rdx,1),%rdx
    4000251a:	8b 12                	mov    (%rdx),%edx
    4000251c:	85 d2                	test   %edx,%edx
    4000251e:	74 10                	je     40002530 <_ZN9CCounters12StopCountersEi+0x40>
    40002520:	48 ba 90 96 ff ff ff 	movabs $0xffffffffffff9690,%rdx
    40002527:	ff ff ff 
    4000252a:	48 01 d0             	add    %rdx,%rax
    4000252d:	ff e0                	jmp    *%rax
    4000252f:	90                   	nop
    40002530:	c3                   	ret    
    40002531:	90                   	nop
    40002532:	66 66 2e 0f 1f 84 00 	data16 cs nopw 0x0(%rax,%rax,1)
    40002539:	00 00 00 00 
    4000253d:	0f 1f 00             	nopl   (%rax)

0000000040002540 <_ZN9CCounters18GetProcessorVendorEv>:
    40002540:	f3 0f 1e fa          	endbr64 
    40002544:	f3 0f 1e fa          	endbr64 
    40002548:	49 bb bc 5a 00 00 00 	movabs $0x5abc,%r11
    4000254f:	00 00 00 
    40002552:	41 57                	push   %r15
    40002554:	31 c0                	xor    %eax,%eax
    40002556:	4c 8d 3d e7 ff ff ff 	lea    -0x19(%rip),%r15        # 40002544 <_ZN9CCounters18GetProcessorVendorEv+0x4>
    4000255d:	53                   	push   %rbx
    4000255e:	89 c1                	mov    %eax,%ecx
    40002560:	4d 01 df             	add    %r11,%r15
    40002563:	0f a2                	cpuid  
    40002565:	81 f9 6e 74 65 6c    	cmp    $0x6c65746e,%ecx
    4000256b:	74 3b                	je     400025a8 <_ZN9CCounters18GetProcessorVendorEv+0x68>
    4000256d:	31 c0                	xor    %eax,%eax
    4000256f:	81 f9 63 41 4d 44    	cmp    $0x444d4163,%ecx
    40002575:	0f 94 c0             	sete   %al
    40002578:	01 c0                	add    %eax,%eax
    4000257a:	89 47 50             	mov    %eax,0x50(%rdi)
    4000257d:	81 fb 43 65 6e 74    	cmp    $0x746e6543,%ebx
    40002583:	75 07                	jne    4000258c <_ZN9CCounters18GetProcessorVendorEv+0x4c>
    40002585:	c7 47 50 03 00 00 00 	movl   $0x3,0x50(%rdi)
    4000258c:	48 b8 48 61 81 00 00 	movabs $0x816148,%rax
    40002593:	00 00 00 
    40002596:	41 8b 04 07          	mov    (%r15,%rax,1),%eax
    4000259a:	85 c0                	test   %eax,%eax
    4000259c:	75 1a                	jne    400025b8 <_ZN9CCounters18GetProcessorVendorEv+0x78>
    4000259e:	5b                   	pop    %rbx
    4000259f:	41 5f                	pop    %r15
    400025a1:	c3                   	ret    
    400025a2:	66 0f 1f 44 00 00    	nopw   0x0(%rax,%rax,1)
    400025a8:	c7 47 50 01 00 00 00 	movl   $0x1,0x50(%rdi)
    400025af:	eb cc                	jmp    4000257d <_ZN9CCounters18GetProcessorVendorEv+0x3d>
    400025b1:	0f 1f 80 00 00 00 00 	nopl   0x0(%rax)
    400025b8:	48 b8 60 d2 ff ff ff 	movabs $0xffffffffffffd260,%rax
    400025bf:	ff ff ff 
    400025c2:	8b 57 50             	mov    0x50(%rdi),%edx
    400025c5:	5b                   	pop    %rbx
    400025c6:	bf 01 00 00 00       	mov    $0x1,%edi
    400025cb:	48 b9 30 90 3f c0 ff 	movabs $0xffffffffc03f9030,%rcx
    400025d2:	ff ff ff 
    400025d5:	49 8d 34 07          	lea    (%r15,%rax,1),%rsi
    400025d9:	31 c0                	xor    %eax,%eax
    400025db:	4c 01 f9             	add    %r15,%rcx
    400025de:	41 5f                	pop    %r15
    400025e0:	ff e1                	jmp    *%rcx
    400025e2:	66 66 2e 0f 1f 84 00 	data16 cs nopw 0x0(%rax,%rax,1)
    400025e9:	00 00 00 00 
    400025ed:	0f 1f 00             	nopl   (%rax)

00000000400025f0 <_ZN9CCounters18GetProcessorFamilyEv>:
    400025f0:	f3 0f 1e fa          	endbr64 
    400025f4:	f3 0f 1e fa          	endbr64 
    400025f8:	31 c9                	xor    %ecx,%ecx
    400025fa:	48 8d 35 f3 ff ff ff 	lea    -0xd(%rip),%rsi        # 400025f4 <_ZN9CCounters18GetProcessorFamilyEv+0x4>
    40002601:	53                   	push   %rbx
    40002602:	49 bb 0c 5a 00 00 00 	movabs $0x5a0c,%r11
    40002609:	00 00 00 
    4000260c:	89 c8                	mov    %ecx,%eax
    4000260e:	c7 47 54 00 00 00 00 	movl   $0x0,0x54(%rdi)
    40002615:	4c 01 de             	add    %r11,%rsi
    40002618:	0f a2                	cpuid  
    4000261a:	85 c0                	test   %eax,%eax
    4000261c:	74 12                	je     40002630 <_ZN9CCounters18GetProcessorFamilyEv+0x40>
    4000261e:	48 b8 00 97 ff ff ff 	movabs $0xffffffffffff9700,%rax
    40002625:	ff ff ff 
    40002628:	5b                   	pop    %rbx
    40002629:	48 01 f0             	add    %rsi,%rax
    4000262c:	ff e0                	jmp    *%rax
    4000262e:	66 90                	xchg   %ax,%ax
    40002630:	5b                   	pop    %rbx
    40002631:	c3                   	ret    
    40002632:	66 66 2e 0f 1f 84 00 	data16 cs nopw 0x0(%rax,%rax,1)
    40002639:	00 00 00 00 
    4000263d:	0f 1f 00             	nopl   (%rax)

0000000040002640 <_ZN9CCounters12GetPMCSchemeEv>:
    40002640:	f3 0f 1e fa          	endbr64 
    40002644:	f3 0f 1e fa          	endbr64 
    40002648:	49 bb bc 59 00 00 00 	movabs $0x59bc,%r11
    4000264f:	00 00 00 
    40002652:	41 57                	push   %r15
    40002654:	4c 8d 3d e9 ff ff ff 	lea    -0x17(%rip),%r15        # 40002644 <_ZN9CCounters12GetPMCSchemeEv+0x4>
    4000265b:	55                   	push   %rbp
    4000265c:	4d 01 df             	add    %r11,%r15
    4000265f:	48 89 fd             	mov    %rdi,%rbp
    40002662:	53                   	push   %rbx
    40002663:	8b 47 50             	mov    0x50(%rdi),%eax
    40002666:	c7 47 58 00 00 00 00 	movl   $0x0,0x58(%rdi)
    4000266d:	48 c7 87 64 0c 01 00 	movq   $0x2,0x10c64(%rdi)
    40002674:	02 00 00 00 
    40002678:	83 f8 02             	cmp    $0x2,%eax
    4000267b:	0f 84 2f 01 00 00    	je     400027b0 <_ZN9CCounters12GetPMCSchemeEv+0x170>
    40002681:	83 f8 03             	cmp    $0x3,%eax
    40002684:	75 4a                	jne    400026d0 <_ZN9CCounters12GetPMCSchemeEv+0x90>
    40002686:	c7 47 58 00 00 10 00 	movl   $0x100000,0x58(%rdi)
    4000268d:	48 b8 48 61 81 00 00 	movabs $0x816148,%rax
    40002694:	00 00 00 
    40002697:	48 bb 30 90 3f c0 ff 	movabs $0xffffffffc03f9030,%rbx
    4000269e:	ff ff ff 
    400026a1:	41 8b 04 07          	mov    (%r15,%rax,1),%eax
    400026a5:	85 c0                	test   %eax,%eax
    400026a7:	0f 84 fa 00 00 00    	je     400027a7 <_ZN9CCounters12GetPMCSchemeEv+0x167>
    400026ad:	4a 8d 0c 3b          	lea    (%rbx,%r15,1),%rcx
    400026b1:	8b 55 58             	mov    0x58(%rbp),%edx
    400026b4:	5b                   	pop    %rbx
    400026b5:	bf 01 00 00 00       	mov    $0x1,%edi
    400026ba:	48 b8 8b d2 ff ff ff 	movabs $0xffffffffffffd28b,%rax
    400026c1:	ff ff ff 
    400026c4:	5d                   	pop    %rbp
    400026c5:	49 8d 34 07          	lea    (%r15,%rax,1),%rsi
    400026c9:	31 c0                	xor    %eax,%eax
    400026cb:	41 5f                	pop    %r15
    400026cd:	ff e1                	jmp    *%rcx
    400026cf:	90                   	nop
    400026d0:	83 f8 01             	cmp    $0x1,%eax
    400026d3:	75 b8                	jne    4000268d <_ZN9CCounters12GetPMCSchemeEv+0x4d>
    400026d5:	31 f6                	xor    %esi,%esi
    400026d7:	89 f0                	mov    %esi,%eax
    400026d9:	89 f1                	mov    %esi,%ecx
    400026db:	0f a2                	cpuid  
    400026dd:	83 f8 09             	cmp    $0x9,%eax
    400026e0:	0f 8e 8a 00 00 00    	jle    40002770 <_ZN9CCounters12GetPMCSchemeEv+0x130>
    400026e6:	b8 0a 00 00 00       	mov    $0xa,%eax
    400026eb:	89 f1                	mov    %esi,%ecx
    400026ed:	0f a2                	cpuid  
    400026ef:	89 c1                	mov    %eax,%ecx
    400026f1:	81 e1 ff 00 00 00    	and    $0xff,%ecx
    400026f7:	74 77                	je     40002770 <_ZN9CCounters12GetPMCSchemeEv+0x130>
    400026f9:	0f b6 c4             	movzbl %ah,%eax
    400026fc:	83 e9 01             	sub    $0x1,%ecx
    400026ff:	bf 20 00 00 00       	mov    $0x20,%edi
    40002704:	89 85 64 0c 01 00    	mov    %eax,0x10c64(%rbp)
    4000270a:	89 d0                	mov    %edx,%eax
    4000270c:	d3 e7                	shl    %cl,%edi
    4000270e:	83 e0 1f             	and    $0x1f,%eax
    40002711:	89 7d 58             	mov    %edi,0x58(%rbp)
    40002714:	89 85 68 0c 01 00    	mov    %eax,0x10c68(%rbp)
    4000271a:	48 b8 48 61 81 00 00 	movabs $0x816148,%rax
    40002721:	00 00 00 
    40002724:	41 8b 0c 07          	mov    (%r15,%rax,1),%ecx
    40002728:	85 ff                	test   %edi,%edi
    4000272a:	74 52                	je     4000277e <_ZN9CCounters12GetPMCSchemeEv+0x13e>
    4000272c:	85 c9                	test   %ecx,%ecx
    4000272e:	74 77                	je     400027a7 <_ZN9CCounters12GetPMCSchemeEv+0x167>
    40002730:	48 b8 6d d2 ff ff ff 	movabs $0xffffffffffffd26d,%rax
    40002737:	ff ff ff 
    4000273a:	8b 8d 68 0c 01 00    	mov    0x10c68(%rbp),%ecx
    40002740:	bf 01 00 00 00       	mov    $0x1,%edi
    40002745:	48 bb 30 90 3f c0 ff 	movabs $0xffffffffc03f9030,%rbx
    4000274c:	ff ff ff 
    4000274f:	49 8d 34 07          	lea    (%r15,%rax,1),%rsi
    40002753:	8b 95 64 0c 01 00    	mov    0x10c64(%rbp),%edx
    40002759:	31 c0                	xor    %eax,%eax
    4000275b:	4e 8d 04 3b          	lea    (%rbx,%r15,1),%r8
    4000275f:	41 ff d0             	call   *%r8
    40002762:	e9 46 ff ff ff       	jmp    400026ad <_ZN9CCounters12GetPMCSchemeEv+0x6d>
    40002767:	66 0f 1f 84 00 00 00 	nopw   0x0(%rax,%rax,1)
    4000276e:	00 00 
    40002770:	48 b8 48 61 81 00 00 	movabs $0x816148,%rax
    40002777:	00 00 00 
    4000277a:	41 8b 0c 07          	mov    (%r15,%rax,1),%ecx
    4000277e:	8b 45 54             	mov    0x54(%rbp),%eax
    40002781:	83 f8 20             	cmp    $0x20,%eax
    40002784:	0f 87 8e 00 00 00    	ja     40002818 <_ZN9CCounters12GetPMCSchemeEv+0x1d8>
    4000278a:	85 c0                	test   %eax,%eax
    4000278c:	74 15                	je     400027a3 <_ZN9CCounters12GetPMCSchemeEv+0x163>
    4000278e:	83 f8 20             	cmp    $0x20,%eax
    40002791:	77 10                	ja     400027a3 <_ZN9CCounters12GetPMCSchemeEv+0x163>
    40002793:	89 c2                	mov    %eax,%edx
    40002795:	48 8d 05 14 31 00 00 	lea    0x3114(%rip),%rax        # 400058b0 <_IO_stdin_used+0x8b0>
    4000279c:	48 03 04 d0          	add    (%rax,%rdx,8),%rax
    400027a0:	3e ff e0             	notrack jmp *%rax
    400027a3:	85 c9                	test   %ecx,%ecx
    400027a5:	75 89                	jne    40002730 <_ZN9CCounters12GetPMCSchemeEv+0xf0>
    400027a7:	5b                   	pop    %rbx
    400027a8:	5d                   	pop    %rbp
    400027a9:	41 5f                	pop    %r15
    400027ab:	c3                   	ret    
    400027ac:	0f 1f 40 00          	nopl   0x0(%rax)
    400027b0:	31 f6                	xor    %esi,%esi
    400027b2:	b8 06 00 00 00       	mov    $0x6,%eax
    400027b7:	c7 47 58 00 10 00 00 	movl   $0x1000,0x58(%rdi)
    400027be:	c7 87 64 0c 01 00 04 	movl   $0x4,0x10c64(%rdi)
    400027c5:	00 00 00 
    400027c8:	89 f1                	mov    %esi,%ecx
    400027ca:	0f a2                	cpuid  
    400027cc:	83 e1 01             	and    $0x1,%ecx
    400027cf:	0f 84 b8 fe ff ff    	je     4000268d <_ZN9CCounters12GetPMCSchemeEv+0x4d>
    400027d5:	b8 01 00 00 80       	mov    $0x80000001,%eax
    400027da:	89 f1                	mov    %esi,%ecx
    400027dc:	0f a2                	cpuid  
    400027de:	81 e1 00 00 00 10    	and    $0x10000000,%ecx
    400027e4:	0f 84 a3 fe ff ff    	je     4000268d <_ZN9CCounters12GetPMCSchemeEv+0x4d>
    400027ea:	48 b8 10 00 00 00 e8 	movabs $0xc00000e800000010,%rax
    400027f1:	00 00 c0 
    400027f4:	c7 47 58 00 20 00 00 	movl   $0x2000,0x58(%rdi)
    400027fb:	c7 87 64 0c 01 00 06 	movl   $0x6,0x10c64(%rdi)
    40002802:	00 00 00 
    40002805:	48 89 87 70 0c 01 00 	mov    %rax,0x10c70(%rdi)
    4000280c:	e9 7c fe ff ff       	jmp    4000268d <_ZN9CCounters12GetPMCSchemeEv+0x4d>
    40002811:	0f 1f 80 00 00 00 00 	nopl   0x0(%rax)
    40002818:	8d 90 00 f0 ff ff    	lea    -0x1000(%rax),%edx
    4000281e:	81 e2 ff ef ff ff    	and    $0xffffefff,%edx
    40002824:	74 09                	je     4000282f <_ZN9CCounters12GetPMCSchemeEv+0x1ef>
    40002826:	83 f8 40             	cmp    $0x40,%eax
    40002829:	0f 85 74 ff ff ff    	jne    400027a3 <_ZN9CCounters12GetPMCSchemeEv+0x163>
    4000282f:	c7 45 58 80 00 00 00 	movl   $0x80,0x58(%rbp)
    40002836:	e9 f1 fe ff ff       	jmp    4000272c <_ZN9CCounters12GetPMCSchemeEv+0xec>
    4000283b:	c7 45 58 40 00 00 00 	movl   $0x40,0x58(%rbp)
    40002842:	e9 e5 fe ff ff       	jmp    4000272c <_ZN9CCounters12GetPMCSchemeEv+0xec>
    40002847:	c7 45 58 20 00 00 00 	movl   $0x20,0x58(%rbp)
    4000284e:	e9 d9 fe ff ff       	jmp    4000272c <_ZN9CCounters12GetPMCSchemeEv+0xec>
    40002853:	c7 45 58 02 00 00 00 	movl   $0x2,0x58(%rbp)
    4000285a:	e9 cd fe ff ff       	jmp    4000272c <_ZN9CCounters12GetPMCSchemeEv+0xec>
    4000285f:	c7 45 58 10 00 00 00 	movl   $0x10,0x58(%rbp)
    40002866:	e9 c1 fe ff ff       	jmp    4000272c <_ZN9CCounters12GetPMCSchemeEv+0xec>
    4000286b:	c7 45 58 01 00 00 00 	movl   $0x1,0x58(%rbp)
    40002872:	e9 b5 fe ff ff       	jmp    4000272c <_ZN9CCounters12GetPMCSchemeEv+0xec>
    40002877:	90                   	nop
    40002878:	0f 1f 84 00 00 00 00 	nopl   0x0(%rax,%rax,1)
    4000287f:	00 

0000000040002880 <_ZN9CCounters13DefineCounterER18SCounterDefinition>:
    40002880:	f3 0f 1e fa          	endbr64 
    40002884:	f3 0f 1e fa          	endbr64 
    40002888:	48 8d 15 f5 ff ff ff 	lea    -0xb(%rip),%rdx        # 40002884 <_ZN9CCounters13DefineCounterER18SCounterDefinition+0x4>
    4000288f:	44 8b 57 54          	mov    0x54(%rdi),%r10d
    40002893:	49 bb 7c 57 00 00 00 	movabs $0x577c,%r11
    4000289a:	00 00 00 
    4000289d:	48 b8 98 d0 ff ff ff 	movabs $0xffffffffffffd098,%rax
    400028a4:	ff ff ff 
    400028a7:	4c 01 da             	add    %r11,%rdx
    400028aa:	48 01 d0             	add    %rdx,%rax
    400028ad:	44 85 56 08          	test   %r10d,0x8(%rsi)
    400028b1:	0f 84 59 01 00 00    	je     40002a10 <_ZN9CCounters13DefineCounterER18SCounterDefinition+0x190>
    400028b7:	41 57                	push   %r15
    400028b9:	49 bf e0 ff ff ff ff 	movabs $0xffffffffffffffe0,%r15
    400028c0:	ff ff ff 
    400028c3:	49 8b 04 17          	mov    (%r15,%rdx,1),%rax
    400028c7:	41 56                	push   %r14
    400028c9:	41 55                	push   %r13
    400028cb:	41 54                	push   %r12
    400028cd:	55                   	push   %rbp
    400028ce:	53                   	push   %rbx
    400028cf:	44 8b 00             	mov    (%rax),%r8d
    400028d2:	48 b8 c0 ff ff ff ff 	movabs $0xffffffffffffffc0,%rax
    400028d9:	ff ff ff 
    400028dc:	48 8b 0c 02          	mov    (%rdx,%rax,1),%rcx
    400028e0:	48 b8 99 d2 ff ff ff 	movabs $0xffffffffffffd299,%rax
    400028e7:	ff ff ff 
    400028ea:	48 01 d0             	add    %rdx,%rax
    400028ed:	44 3b 01             	cmp    (%rcx),%r8d
    400028f0:	0f 8d 8d 00 00 00    	jge    40002983 <_ZN9CCounters13DefineCounterER18SCounterDefinition+0x103>
    400028f6:	8b 46 0c             	mov    0xc(%rsi),%eax
    400028f9:	a9 00 00 00 40       	test   $0x40000000,%eax
    400028fe:	0f 85 14 01 00 00    	jne    40002a18 <_ZN9CCounters13DefineCounterER18SCounterDefinition+0x198>
    40002904:	44 8b 76 10          	mov    0x10(%rsi),%r14d
    40002908:	44 39 f0             	cmp    %r14d,%eax
    4000290b:	0f 8f 7f 0a 00 00    	jg     40003390 <_ZN9CCounters13DefineCounterER18SCounterDefinition+0xb10>
    40002911:	48 bb 88 ff ff ff ff 	movabs $0xffffffffffffff88,%rbx
    40002918:	ff ff ff 
    4000291b:	45 8d 48 ff          	lea    -0x1(%r8),%r9d
    4000291f:	49 bc c8 ff ff ff ff 	movabs $0xffffffffffffffc8,%r12
    40002926:	ff ff ff 
    40002929:	4c 8b 2c 13          	mov    (%rbx,%rdx,1),%r13
    4000292d:	48 89 5c 24 e8       	mov    %rbx,-0x18(%rsp)
    40002932:	49 c1 e1 02          	shl    $0x2,%r9
    40002936:	49 8b 1c 14          	mov    (%r12,%rdx,1),%rbx
    4000293a:	49 bc 00 da ff ff ff 	movabs $0xffffffffffffda00,%r12
    40002941:	ff ff ff 
    40002944:	4b 8d 4c 0d 04       	lea    0x4(%r13,%r9,1),%rcx
    40002949:	49 01 d4             	add    %rdx,%r12
    4000294c:	48 89 5c 24 f0       	mov    %rbx,-0x10(%rsp)
    40002951:	4e 8d 4c 0b 04       	lea    0x4(%rbx,%r9,1),%r9
    40002956:	45 85 c0             	test   %r8d,%r8d
    40002959:	7e 35                	jle    40002990 <_ZN9CCounters13DefineCounterER18SCounterDefinition+0x110>
    4000295b:	4d 89 eb             	mov    %r13,%r11
    4000295e:	eb 09                	jmp    40002969 <_ZN9CCounters13DefineCounterER18SCounterDefinition+0xe9>
    40002960:	49 83 c3 04          	add    $0x4,%r11
    40002964:	49 39 cb             	cmp    %rcx,%r11
    40002967:	74 27                	je     40002990 <_ZN9CCounters13DefineCounterER18SCounterDefinition+0x110>
    40002969:	41 39 03             	cmp    %eax,(%r11)
    4000296c:	75 f2                	jne    40002960 <_ZN9CCounters13DefineCounterER18SCounterDefinition+0xe0>
    4000296e:	83 c0 01             	add    $0x1,%eax
    40002971:	44 39 f0             	cmp    %r14d,%eax
    40002974:	7e e0                	jle    40002956 <_ZN9CCounters13DefineCounterER18SCounterDefinition+0xd6>
    40002976:	48 b8 08 d1 ff ff ff 	movabs $0xffffffffffffd108,%rax
    4000297d:	ff ff ff 
    40002980:	48 01 d0             	add    %rdx,%rax
    40002983:	5b                   	pop    %rbx
    40002984:	5d                   	pop    %rbp
    40002985:	41 5c                	pop    %r12
    40002987:	41 5d                	pop    %r13
    40002989:	41 5e                	pop    %r14
    4000298b:	41 5f                	pop    %r15
    4000298d:	c3                   	ret    
    4000298e:	66 90                	xchg   %ax,%ax
    40002990:	41 83 fa 08          	cmp    $0x8,%r10d
    40002994:	0f 85 06 0a 00 00    	jne    400033a0 <_ZN9CCounters13DefineCounterER18SCounterDefinition+0xb20>
    4000299a:	48 63 5e 14          	movslq 0x14(%rsi),%rbx
    4000299e:	83 f8 11             	cmp    $0x11,%eax
    400029a1:	0f 87 9a 0f 00 00    	ja     40003941 <_ZN9CCounters13DefineCounterER18SCounterDefinition+0x10c1>
    400029a7:	44 8d 58 fd          	lea    -0x3(%rax),%r11d
    400029ab:	83 f8 0f             	cmp    $0xf,%eax
    400029ae:	44 0f 46 d8          	cmovbe %eax,%r11d
    400029b2:	83 fb 07             	cmp    $0x7,%ebx
    400029b5:	0f 87 86 0f 00 00    	ja     40003941 <_ZN9CCounters13DefineCounterER18SCounterDefinition+0x10c1>
    400029bb:	44 89 dd             	mov    %r11d,%ebp
    400029be:	c1 ed 02             	shr    $0x2,%ebp
    400029c1:	48 8d 1c eb          	lea    (%rbx,%rbp,8),%rbx
    400029c5:	41 8b 1c 9c          	mov    (%r12,%rbx,4),%ebx
    400029c9:	85 db                	test   %ebx,%ebx
    400029cb:	78 0b                	js     400029d8 <_ZN9CCounters13DefineCounterER18SCounterDefinition+0x158>
    400029cd:	41 83 e3 02          	and    $0x2,%r11d
    400029d1:	41 83 fb 01          	cmp    $0x1,%r11d
    400029d5:	83 db ff             	sbb    $0xffffffff,%ebx
    400029d8:	45 85 c0             	test   %r8d,%r8d
    400029db:	0f 8e bf 09 00 00    	jle    400033a0 <_ZN9CCounters13DefineCounterER18SCounterDefinition+0xb20>
    400029e1:	4c 8b 5c 24 f0       	mov    -0x10(%rsp),%r11
    400029e6:	eb 15                	jmp    400029fd <_ZN9CCounters13DefineCounterER18SCounterDefinition+0x17d>
    400029e8:	0f 1f 84 00 00 00 00 	nopl   0x0(%rax,%rax,1)
    400029ef:	00 
    400029f0:	49 83 c3 04          	add    $0x4,%r11
    400029f4:	4d 39 cb             	cmp    %r9,%r11
    400029f7:	0f 84 a3 09 00 00    	je     400033a0 <_ZN9CCounters13DefineCounterER18SCounterDefinition+0xb20>
    400029fd:	41 39 1b             	cmp    %ebx,(%r11)
    40002a00:	75 ee                	jne    400029f0 <_ZN9CCounters13DefineCounterER18SCounterDefinition+0x170>
    40002a02:	e9 67 ff ff ff       	jmp    4000296e <_ZN9CCounters13DefineCounterER18SCounterDefinition+0xee>
    40002a07:	66 0f 1f 84 00 00 00 	nopw   0x0(%rax,%rax,1)
    40002a0e:	00 00 
    40002a10:	c3                   	ret    
    40002a11:	0f 1f 80 00 00 00 00 	nopl   0x0(%rax)
    40002a18:	49 63 d8             	movslq %r8d,%rbx
    40002a1b:	48 8d 4e 20          	lea    0x20(%rsi),%rcx
    40002a1f:	48 89 4c df 10       	mov    %rcx,0x10(%rdi,%rbx,8)
    40002a24:	8b 4f 58             	mov    0x58(%rdi),%ecx
    40002a27:	48 89 5c 24 f0       	mov    %rbx,-0x10(%rsp)
    40002a2c:	81 f9 00 01 00 00    	cmp    $0x100,%ecx
    40002a32:	0f 84 8d 09 00 00    	je     400033c5 <_ZN9CCounters13DefineCounterER18SCounterDefinition+0xb45>
    40002a38:	81 f9 00 01 00 00    	cmp    $0x100,%ecx
    40002a3e:	77 48                	ja     40002a88 <_ZN9CCounters13DefineCounterER18SCounterDefinition+0x208>
    40002a40:	83 f9 02             	cmp    $0x2,%ecx
    40002a43:	0f 84 d7 0a 00 00    	je     40003520 <_ZN9CCounters13DefineCounterER18SCounterDefinition+0xca0>
    40002a49:	0f 86 06 06 00 00    	jbe    40003055 <_ZN9CCounters13DefineCounterER18SCounterDefinition+0x7d5>
    40002a4f:	83 f9 20             	cmp    $0x20,%ecx
    40002a52:	0f 84 27 04 00 00    	je     40002e7f <_ZN9CCounters13DefineCounterER18SCounterDefinition+0x5ff>
    40002a58:	0f 86 18 04 00 00    	jbe    40002e76 <_ZN9CCounters13DefineCounterER18SCounterDefinition+0x5f6>
    40002a5e:	83 e9 40             	sub    $0x40,%ecx
    40002a61:	83 e1 bf             	and    $0xffffffbf,%ecx
    40002a64:	0f 84 be 07 00 00    	je     40003228 <_ZN9CCounters13DefineCounterER18SCounterDefinition+0x9a8>
    40002a6a:	48 b8 d0 d0 ff ff ff 	movabs $0xffffffffffffd0d0,%rax
    40002a71:	ff ff ff 
    40002a74:	5b                   	pop    %rbx
    40002a75:	5d                   	pop    %rbp
    40002a76:	48 01 d0             	add    %rdx,%rax
    40002a79:	41 5c                	pop    %r12
    40002a7b:	41 5d                	pop    %r13
    40002a7d:	41 5e                	pop    %r14
    40002a7f:	41 5f                	pop    %r15
    40002a81:	c3                   	ret    
    40002a82:	66 0f 1f 44 00 00    	nopw   0x0(%rax,%rax,1)
    40002a88:	81 f9 00 20 00 00    	cmp    $0x2000,%ecx
    40002a8e:	0f 84 9c 0d 00 00    	je     40003830 <_ZN9CCounters13DefineCounterER18SCounterDefinition+0xfb0>
    40002a94:	0f 86 f6 01 00 00    	jbe    40002c90 <_ZN9CCounters13DefineCounterER18SCounterDefinition+0x410>
    40002a9a:	81 f9 00 00 10 00    	cmp    $0x100000,%ecx
    40002aa0:	75 c8                	jne    40002a6a <_ZN9CCounters13DefineCounterER18SCounterDefinition+0x1ea>
    40002aa2:	48 b9 98 ff ff ff ff 	movabs $0xffffffffffffff98,%rcx
    40002aa9:	ff ff ff 
    40002aac:	44 8b 6e 18          	mov    0x18(%rsi),%r13d
    40002ab0:	48 bb 88 ff ff ff ff 	movabs $0xffffffffffffff88,%rbx
    40002ab7:	ff ff ff 
    40002aba:	8d a8 c1 00 00 00    	lea    0xc1(%rax),%ebp
    40002ac0:	48 8b 0c 0a          	mov    (%rdx,%rcx,1),%rcx
    40002ac4:	48 89 5c 24 e8       	mov    %rbx,-0x18(%rsp)
    40002ac9:	44 8d a0 86 01 00 00 	lea    0x186(%rax),%r12d
    40002ad0:	41 81 cd 00 00 41 00 	or     $0x410000,%r13d
    40002ad7:	44 8b 11             	mov    (%rcx),%r10d
    40002ada:	45 85 d2             	test   %r10d,%r10d
    40002add:	0f 8e 83 01 00 00    	jle    40002c66 <_ZN9CCounters13DefineCounterER18SCounterDefinition+0x3e6>
    40002ae3:	4c 8d 9f 70 02 00 00 	lea    0x270(%rdi),%r11
    40002aea:	31 db                	xor    %ebx,%ebx
    40002aec:	4d 89 de             	mov    %r11,%r14
    40002aef:	90                   	nop
    40002af0:	41 8b 36             	mov    (%r14),%esi
    40002af3:	83 fe 1f             	cmp    $0x1f,%esi
    40002af6:	7f 33                	jg     40002b2b <_ZN9CCounters13DefineCounterER18SCounterDefinition+0x2ab>
    40002af8:	4c 63 cb             	movslq %ebx,%r9
    40002afb:	48 63 ce             	movslq %esi,%rcx
    40002afe:	83 c6 01             	add    $0x1,%esi
    40002b01:	4d 69 c9 18 02 00 00 	imul   $0x218,%r9,%r9
    40002b08:	48 c1 e1 04          	shl    $0x4,%rcx
    40002b0c:	4c 01 c9             	add    %r9,%rcx
    40002b0f:	48 01 f9             	add    %rdi,%rcx
    40002b12:	c7 41 60 03 00 00 00 	movl   $0x3,0x60(%rcx)
    40002b19:	44 89 61 64          	mov    %r12d,0x64(%rcx)
    40002b1d:	44 89 69 68          	mov    %r13d,0x68(%rcx)
    40002b21:	c7 41 6c 00 00 00 00 	movl   $0x0,0x6c(%rcx)
    40002b28:	41 89 36             	mov    %esi,(%r14)
    40002b2b:	83 c3 01             	add    $0x1,%ebx
    40002b2e:	49 81 c6 18 02 00 00 	add    $0x218,%r14
    40002b35:	41 39 da             	cmp    %ebx,%r10d
    40002b38:	75 b6                	jne    40002af0 <_ZN9CCounters13DefineCounterER18SCounterDefinition+0x270>
    40002b3a:	48 8d 9f 70 88 00 00 	lea    0x8870(%rdi),%rbx
    40002b41:	45 31 ed             	xor    %r13d,%r13d
    40002b44:	49 89 de             	mov    %rbx,%r14
    40002b47:	66 0f 1f 84 00 00 00 	nopw   0x0(%rax,%rax,1)
    40002b4e:	00 00 
    40002b50:	41 8b 36             	mov    (%r14),%esi
    40002b53:	83 fe 1f             	cmp    $0x1f,%esi
    40002b56:	7f 42                	jg     40002b9a <_ZN9CCounters13DefineCounterER18SCounterDefinition+0x31a>
    40002b58:	4d 63 cd             	movslq %r13d,%r9
    40002b5b:	48 63 ce             	movslq %esi,%rcx
    40002b5e:	83 c6 01             	add    $0x1,%esi
    40002b61:	4d 69 c9 18 02 00 00 	imul   $0x218,%r9,%r9
    40002b68:	48 c1 e1 04          	shl    $0x4,%rcx
    40002b6c:	4c 01 c9             	add    %r9,%rcx
    40002b6f:	48 01 f9             	add    %rdi,%rcx
    40002b72:	c7 81 60 86 00 00 03 	movl   $0x3,0x8660(%rcx)
    40002b79:	00 00 00 
    40002b7c:	44 89 a1 64 86 00 00 	mov    %r12d,0x8664(%rcx)
    40002b83:	c7 81 68 86 00 00 00 	movl   $0x0,0x8668(%rcx)
    40002b8a:	00 00 00 
    40002b8d:	c7 81 6c 86 00 00 00 	movl   $0x0,0x866c(%rcx)
    40002b94:	00 00 00 
    40002b97:	41 89 36             	mov    %esi,(%r14)
    40002b9a:	41 83 c5 01          	add    $0x1,%r13d
    40002b9e:	49 81 c6 18 02 00 00 	add    $0x218,%r14
    40002ba5:	45 39 ea             	cmp    %r13d,%r10d
    40002ba8:	75 a6                	jne    40002b50 <_ZN9CCounters13DefineCounterER18SCounterDefinition+0x2d0>
    40002baa:	45 31 c9             	xor    %r9d,%r9d
    40002bad:	0f 1f 00             	nopl   (%rax)
    40002bb0:	41 8b 33             	mov    (%r11),%esi
    40002bb3:	83 fe 1f             	cmp    $0x1f,%esi
    40002bb6:	7f 35                	jg     40002bed <_ZN9CCounters13DefineCounterER18SCounterDefinition+0x36d>
    40002bb8:	4d 63 e1             	movslq %r9d,%r12
    40002bbb:	48 63 ce             	movslq %esi,%rcx
    40002bbe:	83 c6 01             	add    $0x1,%esi
    40002bc1:	4d 69 e4 18 02 00 00 	imul   $0x218,%r12,%r12
    40002bc8:	48 c1 e1 04          	shl    $0x4,%rcx
    40002bcc:	4c 01 e1             	add    %r12,%rcx
    40002bcf:	48 01 f9             	add    %rdi,%rcx
    40002bd2:	c7 41 60 03 00 00 00 	movl   $0x3,0x60(%rcx)
    40002bd9:	89 69 64             	mov    %ebp,0x64(%rcx)
    40002bdc:	c7 41 68 00 00 00 00 	movl   $0x0,0x68(%rcx)
    40002be3:	c7 41 6c 00 00 00 00 	movl   $0x0,0x6c(%rcx)
    40002bea:	41 89 33             	mov    %esi,(%r11)
    40002bed:	41 83 c1 01          	add    $0x1,%r9d
    40002bf1:	49 81 c3 18 02 00 00 	add    $0x218,%r11
    40002bf8:	45 39 ca             	cmp    %r9d,%r10d
    40002bfb:	75 b3                	jne    40002bb0 <_ZN9CCounters13DefineCounterER18SCounterDefinition+0x330>
    40002bfd:	45 31 c9             	xor    %r9d,%r9d
    40002c00:	8b 33                	mov    (%rbx),%esi
    40002c02:	83 fe 1f             	cmp    $0x1f,%esi
    40002c05:	7f 40                	jg     40002c47 <_ZN9CCounters13DefineCounterER18SCounterDefinition+0x3c7>
    40002c07:	4d 63 d9             	movslq %r9d,%r11
    40002c0a:	48 63 ce             	movslq %esi,%rcx
    40002c0d:	83 c6 01             	add    $0x1,%esi
    40002c10:	4d 69 db 18 02 00 00 	imul   $0x218,%r11,%r11
    40002c17:	48 c1 e1 04          	shl    $0x4,%rcx
    40002c1b:	4c 01 d9             	add    %r11,%rcx
    40002c1e:	48 01 f9             	add    %rdi,%rcx
    40002c21:	c7 81 60 86 00 00 03 	movl   $0x3,0x8660(%rcx)
    40002c28:	00 00 00 
    40002c2b:	89 a9 64 86 00 00    	mov    %ebp,0x8664(%rcx)
    40002c31:	c7 81 68 86 00 00 00 	movl   $0x0,0x8668(%rcx)
    40002c38:	00 00 00 
    40002c3b:	c7 81 6c 86 00 00 00 	movl   $0x0,0x866c(%rcx)
    40002c42:	00 00 00 
    40002c45:	89 33                	mov    %esi,(%rbx)
    40002c47:	41 83 c1 01          	add    $0x1,%r9d
    40002c4b:	48 81 c3 18 02 00 00 	add    $0x218,%rbx
    40002c52:	45 39 ca             	cmp    %r9d,%r10d
    40002c55:	75 a9                	jne    40002c00 <_ZN9CCounters13DefineCounterER18SCounterDefinition+0x380>
    40002c57:	48 bf 88 ff ff ff ff 	movabs $0xffffffffffffff88,%rdi
    40002c5e:	ff ff ff 
    40002c61:	48 89 7c 24 e8       	mov    %rdi,-0x18(%rsp)
    40002c66:	48 8b 7c 24 e8       	mov    -0x18(%rsp),%rdi
    40002c6b:	49 8b 0c 17          	mov    (%r15,%rdx,1),%rcx
    40002c6f:	41 83 c0 01          	add    $0x1,%r8d
    40002c73:	48 8b 14 17          	mov    (%rdi,%rdx,1),%rdx
    40002c77:	48 8b 7c 24 f0       	mov    -0x10(%rsp),%rdi
    40002c7c:	44 89 01             	mov    %r8d,(%rcx)
    40002c7f:	89 04 ba             	mov    %eax,(%rdx,%rdi,4)
    40002c82:	31 c0                	xor    %eax,%eax
    40002c84:	5b                   	pop    %rbx
    40002c85:	5d                   	pop    %rbp
    40002c86:	41 5c                	pop    %r12
    40002c88:	41 5d                	pop    %r13
    40002c8a:	41 5e                	pop    %r14
    40002c8c:	41 5f                	pop    %r15
    40002c8e:	c3                   	ret    
    40002c8f:	90                   	nop
    40002c90:	81 f9 00 02 00 00    	cmp    $0x200,%ecx
    40002c96:	0f 84 8c 05 00 00    	je     40003228 <_ZN9CCounters13DefineCounterER18SCounterDefinition+0x9a8>
    40002c9c:	81 f9 00 10 00 00    	cmp    $0x1000,%ecx
    40002ca2:	0f 85 c2 fd ff ff    	jne    40002a6a <_ZN9CCounters13DefineCounterER18SCounterDefinition+0x1ea>
    40002ca8:	44 8b 6e 1c          	mov    0x1c(%rsi),%r13d
    40002cac:	8d a8 00 00 01 c0    	lea    -0x3fff0000(%rax),%ebp
    40002cb2:	48 b9 98 ff ff ff ff 	movabs $0xffffffffffffff98,%rcx
    40002cb9:	ff ff ff 
    40002cbc:	8d 98 04 00 01 c0    	lea    -0x3ffefffc(%rax),%ebx
    40002cc2:	48 8b 0c 0a          	mov    (%rdx,%rcx,1),%rcx
    40002cc6:	41 c1 e5 08          	shl    $0x8,%r13d
    40002cca:	44 0b 6e 18          	or     0x18(%rsi),%r13d
    40002cce:	48 be 88 ff ff ff ff 	movabs $0xffffffffffffff88,%rsi
    40002cd5:	ff ff ff 
    40002cd8:	44 8b 11             	mov    (%rcx),%r10d
    40002cdb:	48 89 74 24 e8       	mov    %rsi,-0x18(%rsp)
    40002ce0:	41 81 cd 00 00 41 00 	or     $0x410000,%r13d
    40002ce7:	45 85 d2             	test   %r10d,%r10d
    40002cea:	0f 8e 76 ff ff ff    	jle    40002c66 <_ZN9CCounters13DefineCounterER18SCounterDefinition+0x3e6>
    40002cf0:	4c 8d a7 70 02 00 00 	lea    0x270(%rdi),%r12
    40002cf7:	45 31 db             	xor    %r11d,%r11d
    40002cfa:	4d 89 e6             	mov    %r12,%r14
    40002cfd:	0f 1f 00             	nopl   (%rax)
    40002d00:	41 8b 36             	mov    (%r14),%esi
    40002d03:	83 fe 1f             	cmp    $0x1f,%esi
    40002d06:	7f 32                	jg     40002d3a <_ZN9CCounters13DefineCounterER18SCounterDefinition+0x4ba>
    40002d08:	4d 63 cb             	movslq %r11d,%r9
    40002d0b:	48 63 ce             	movslq %esi,%rcx
    40002d0e:	83 c6 01             	add    $0x1,%esi
    40002d11:	4d 69 c9 18 02 00 00 	imul   $0x218,%r9,%r9
    40002d18:	48 c1 e1 04          	shl    $0x4,%rcx
    40002d1c:	4c 01 c9             	add    %r9,%rcx
    40002d1f:	48 01 f9             	add    %rdi,%rcx
    40002d22:	c7 41 60 03 00 00 00 	movl   $0x3,0x60(%rcx)
    40002d29:	89 69 64             	mov    %ebp,0x64(%rcx)
    40002d2c:	44 89 69 68          	mov    %r13d,0x68(%rcx)
    40002d30:	c7 41 6c 00 00 00 00 	movl   $0x0,0x6c(%rcx)
    40002d37:	41 89 36             	mov    %esi,(%r14)
    40002d3a:	41 83 c3 01          	add    $0x1,%r11d
    40002d3e:	49 81 c6 18 02 00 00 	add    $0x218,%r14
    40002d45:	45 39 da             	cmp    %r11d,%r10d
    40002d48:	75 b6                	jne    40002d00 <_ZN9CCounters13DefineCounterER18SCounterDefinition+0x480>
    40002d4a:	4c 8d 9f 70 88 00 00 	lea    0x8870(%rdi),%r11
    40002d51:	45 31 ed             	xor    %r13d,%r13d
    40002d54:	4d 89 de             	mov    %r11,%r14
    40002d57:	66 0f 1f 84 00 00 00 	nopw   0x0(%rax,%rax,1)
    40002d5e:	00 00 
    40002d60:	41 8b 36             	mov    (%r14),%esi
    40002d63:	83 fe 1f             	cmp    $0x1f,%esi
    40002d66:	7f 41                	jg     40002da9 <_ZN9CCounters13DefineCounterER18SCounterDefinition+0x529>
    40002d68:	4d 63 cd             	movslq %r13d,%r9
    40002d6b:	48 63 ce             	movslq %esi,%rcx
    40002d6e:	83 c6 01             	add    $0x1,%esi
    40002d71:	4d 69 c9 18 02 00 00 	imul   $0x218,%r9,%r9
    40002d78:	48 c1 e1 04          	shl    $0x4,%rcx
    40002d7c:	4c 01 c9             	add    %r9,%rcx
    40002d7f:	48 01 f9             	add    %rdi,%rcx
    40002d82:	c7 81 60 86 00 00 03 	movl   $0x3,0x8660(%rcx)
    40002d89:	00 00 00 
    40002d8c:	89 a9 64 86 00 00    	mov    %ebp,0x8664(%rcx)
    40002d92:	c7 81 68 86 00 00 00 	movl   $0x0,0x8668(%rcx)
    40002d99:	00 00 00 
    40002d9c:	c7 81 6c 86 00 00 00 	movl   $0x0,0x866c(%rcx)
    40002da3:	00 00 00 
    40002da6:	41 89 36             	mov    %esi,(%r14)
    40002da9:	41 83 c5 01          	add    $0x1,%r13d
    40002dad:	49 81 c6 18 02 00 00 	add    $0x218,%r14
    40002db4:	45 39 ea             	cmp    %r13d,%r10d
    40002db7:	75 a7                	jne    40002d60 <_ZN9CCounters13DefineCounterER18SCounterDefinition+0x4e0>
    40002db9:	45 31 c9             	xor    %r9d,%r9d
    40002dbc:	0f 1f 40 00          	nopl   0x0(%rax)
    40002dc0:	41 8b 34 24          	mov    (%r12),%esi
    40002dc4:	83 fe 1f             	cmp    $0x1f,%esi
    40002dc7:	7f 36                	jg     40002dff <_ZN9CCounters13DefineCounterER18SCounterDefinition+0x57f>
    40002dc9:	49 63 e9             	movslq %r9d,%rbp
    40002dcc:	48 63 ce             	movslq %esi,%rcx
    40002dcf:	83 c6 01             	add    $0x1,%esi
    40002dd2:	48 69 ed 18 02 00 00 	imul   $0x218,%rbp,%rbp
    40002dd9:	48 c1 e1 04          	shl    $0x4,%rcx
    40002ddd:	48 01 e9             	add    %rbp,%rcx
    40002de0:	48 01 f9             	add    %rdi,%rcx
    40002de3:	c7 41 60 03 00 00 00 	movl   $0x3,0x60(%rcx)
    40002dea:	89 59 64             	mov    %ebx,0x64(%rcx)
    40002ded:	c7 41 68 00 00 00 00 	movl   $0x0,0x68(%rcx)
    40002df4:	c7 41 6c 00 00 00 00 	movl   $0x0,0x6c(%rcx)
    40002dfb:	41 89 34 24          	mov    %esi,(%r12)
    40002dff:	41 83 c1 01          	add    $0x1,%r9d
    40002e03:	49 81 c4 18 02 00 00 	add    $0x218,%r12
    40002e0a:	45 39 ca             	cmp    %r9d,%r10d
    40002e0d:	75 b1                	jne    40002dc0 <_ZN9CCounters13DefineCounterER18SCounterDefinition+0x540>
    40002e0f:	45 31 c9             	xor    %r9d,%r9d
    40002e12:	66 0f 1f 44 00 00    	nopw   0x0(%rax,%rax,1)
    40002e18:	41 8b 33             	mov    (%r11),%esi
    40002e1b:	83 fe 1f             	cmp    $0x1f,%esi
    40002e1e:	7f 41                	jg     40002e61 <_ZN9CCounters13DefineCounterER18SCounterDefinition+0x5e1>
    40002e20:	49 63 e9             	movslq %r9d,%rbp
    40002e23:	48 63 ce             	movslq %esi,%rcx
    40002e26:	83 c6 01             	add    $0x1,%esi
    40002e29:	48 69 ed 18 02 00 00 	imul   $0x218,%rbp,%rbp
    40002e30:	48 c1 e1 04          	shl    $0x4,%rcx
    40002e34:	48 01 e9             	add    %rbp,%rcx
    40002e37:	48 01 f9             	add    %rdi,%rcx
    40002e3a:	c7 81 60 86 00 00 03 	movl   $0x3,0x8660(%rcx)
    40002e41:	00 00 00 
    40002e44:	89 99 64 86 00 00    	mov    %ebx,0x8664(%rcx)
    40002e4a:	c7 81 68 86 00 00 00 	movl   $0x0,0x8668(%rcx)
    40002e51:	00 00 00 
    40002e54:	c7 81 6c 86 00 00 00 	movl   $0x0,0x866c(%rcx)
    40002e5b:	00 00 00 
    40002e5e:	41 89 33             	mov    %esi,(%r11)
    40002e61:	41 83 c1 01          	add    $0x1,%r9d
    40002e65:	49 81 c3 18 02 00 00 	add    $0x218,%r11
    40002e6c:	45 39 ca             	cmp    %r9d,%r10d
    40002e6f:	75 a7                	jne    40002e18 <_ZN9CCounters13DefineCounterER18SCounterDefinition+0x598>
    40002e71:	e9 e1 fd ff ff       	jmp    40002c57 <_ZN9CCounters13DefineCounterER18SCounterDefinition+0x3d7>
    40002e76:	83 f9 10             	cmp    $0x10,%ecx
    40002e79:	0f 85 eb fb ff ff    	jne    40002a6a <_ZN9CCounters13DefineCounterER18SCounterDefinition+0x1ea>
    40002e7f:	49 b9 98 ff ff ff ff 	movabs $0xffffffffffffff98,%r9
    40002e86:	ff ff ff 
    40002e89:	48 bb 88 ff ff ff ff 	movabs $0xffffffffffffff88,%rbx
    40002e90:	ff ff ff 
    40002e93:	4e 8b 0c 0a          	mov    (%rdx,%r9,1),%r9
    40002e97:	48 89 5c 24 e8       	mov    %rbx,-0x18(%rsp)
    40002e9c:	45 8b 11             	mov    (%r9),%r10d
    40002e9f:	44 8b 4e 1c          	mov    0x1c(%rsi),%r9d
    40002ea3:	41 c1 e1 08          	shl    $0x8,%r9d
    40002ea7:	44 0b 4e 18          	or     0x18(%rsi),%r9d
    40002eab:	45 89 ce             	mov    %r9d,%r14d
    40002eae:	44 89 ce             	mov    %r9d,%esi
    40002eb1:	41 81 ce 00 40 41 00 	or     $0x414000,%r14d
    40002eb8:	83 f9 20             	cmp    $0x20,%ecx
    40002ebb:	0f 85 be 04 00 00    	jne    4000337f <_ZN9CCounters13DefineCounterER18SCounterDefinition+0xaff>
    40002ec1:	44 8d a0 c1 00 00 00 	lea    0xc1(%rax),%r12d
    40002ec8:	44 8d a8 86 01 00 00 	lea    0x186(%rax),%r13d
    40002ecf:	45 85 d2             	test   %r10d,%r10d
    40002ed2:	0f 8e 8e fd ff ff    	jle    40002c66 <_ZN9CCounters13DefineCounterER18SCounterDefinition+0x3e6>
    40002ed8:	4c 8d 9f 70 02 00 00 	lea    0x270(%rdi),%r11
    40002edf:	31 db                	xor    %ebx,%ebx
    40002ee1:	4c 89 dd             	mov    %r11,%rbp
    40002ee4:	0f 1f 40 00          	nopl   0x0(%rax)
    40002ee8:	8b 75 00             	mov    0x0(%rbp),%esi
    40002eeb:	83 fe 1f             	cmp    $0x1f,%esi
    40002eee:	7f 33                	jg     40002f23 <_ZN9CCounters13DefineCounterER18SCounterDefinition+0x6a3>
    40002ef0:	4c 63 cb             	movslq %ebx,%r9
    40002ef3:	48 63 ce             	movslq %esi,%rcx
    40002ef6:	83 c6 01             	add    $0x1,%esi
    40002ef9:	4d 69 c9 18 02 00 00 	imul   $0x218,%r9,%r9
    40002f00:	48 c1 e1 04          	shl    $0x4,%rcx
    40002f04:	4c 01 c9             	add    %r9,%rcx
    40002f07:	48 01 f9             	add    %rdi,%rcx
    40002f0a:	c7 41 60 03 00 00 00 	movl   $0x3,0x60(%rcx)
    40002f11:	44 89 69 64          	mov    %r13d,0x64(%rcx)
    40002f15:	44 89 71 68          	mov    %r14d,0x68(%rcx)
    40002f19:	c7 41 6c 00 00 00 00 	movl   $0x0,0x6c(%rcx)
    40002f20:	89 75 00             	mov    %esi,0x0(%rbp)
    40002f23:	83 c3 01             	add    $0x1,%ebx
    40002f26:	48 81 c5 18 02 00 00 	add    $0x218,%rbp
    40002f2d:	44 39 d3             	cmp    %r10d,%ebx
    40002f30:	75 b6                	jne    40002ee8 <_ZN9CCounters13DefineCounterER18SCounterDefinition+0x668>
    40002f32:	48 8d 9f 70 88 00 00 	lea    0x8870(%rdi),%rbx
    40002f39:	31 ed                	xor    %ebp,%ebp
    40002f3b:	49 89 de             	mov    %rbx,%r14
    40002f3e:	66 90                	xchg   %ax,%ax
    40002f40:	41 8b 36             	mov    (%r14),%esi
    40002f43:	83 fe 1f             	cmp    $0x1f,%esi
    40002f46:	7f 42                	jg     40002f8a <_ZN9CCounters13DefineCounterER18SCounterDefinition+0x70a>
    40002f48:	4c 63 cd             	movslq %ebp,%r9
    40002f4b:	48 63 ce             	movslq %esi,%rcx
    40002f4e:	83 c6 01             	add    $0x1,%esi
    40002f51:	4d 69 c9 18 02 00 00 	imul   $0x218,%r9,%r9
    40002f58:	48 c1 e1 04          	shl    $0x4,%rcx
    40002f5c:	4c 01 c9             	add    %r9,%rcx
    40002f5f:	48 01 f9             	add    %rdi,%rcx
    40002f62:	c7 81 60 86 00 00 03 	movl   $0x3,0x8660(%rcx)
    40002f69:	00 00 00 
    40002f6c:	44 89 a9 64 86 00 00 	mov    %r13d,0x8664(%rcx)
    40002f73:	c7 81 68 86 00 00 00 	movl   $0x0,0x8668(%rcx)
    40002f7a:	00 00 00 
    40002f7d:	c7 81 6c 86 00 00 00 	movl   $0x0,0x866c(%rcx)
    40002f84:	00 00 00 
    40002f87:	41 89 36             	mov    %esi,(%r14)
    40002f8a:	83 c5 01             	add    $0x1,%ebp
    40002f8d:	49 81 c6 18 02 00 00 	add    $0x218,%r14
    40002f94:	44 39 d5             	cmp    %r10d,%ebp
    40002f97:	75 a7                	jne    40002f40 <_ZN9CCounters13DefineCounterER18SCounterDefinition+0x6c0>
    40002f99:	45 31 c9             	xor    %r9d,%r9d
    40002f9c:	0f 1f 40 00          	nopl   0x0(%rax)
    40002fa0:	41 8b 33             	mov    (%r11),%esi
    40002fa3:	83 fe 1f             	cmp    $0x1f,%esi
    40002fa6:	7f 36                	jg     40002fde <_ZN9CCounters13DefineCounterER18SCounterDefinition+0x75e>
    40002fa8:	49 63 e9             	movslq %r9d,%rbp
    40002fab:	48 63 ce             	movslq %esi,%rcx
    40002fae:	83 c6 01             	add    $0x1,%esi
    40002fb1:	48 69 ed 18 02 00 00 	imul   $0x218,%rbp,%rbp
    40002fb8:	48 c1 e1 04          	shl    $0x4,%rcx
    40002fbc:	48 01 e9             	add    %rbp,%rcx
    40002fbf:	48 01 f9             	add    %rdi,%rcx
    40002fc2:	c7 41 60 03 00 00 00 	movl   $0x3,0x60(%rcx)
    40002fc9:	44 89 61 64          	mov    %r12d,0x64(%rcx)
    40002fcd:	c7 41 68 00 00 00 00 	movl   $0x0,0x68(%rcx)
    40002fd4:	c7 41 6c 00 00 00 00 	movl   $0x0,0x6c(%rcx)
    40002fdb:	41 89 33             	mov    %esi,(%r11)
    40002fde:	41 83 c1 01          	add    $0x1,%r9d
    40002fe2:	49 81 c3 18 02 00 00 	add    $0x218,%r11
    40002fe9:	45 39 d1             	cmp    %r10d,%r9d
    40002fec:	75 b2                	jne    40002fa0 <_ZN9CCounters13DefineCounterER18SCounterDefinition+0x720>
    40002fee:	45 31 c9             	xor    %r9d,%r9d
    40002ff1:	0f 1f 80 00 00 00 00 	nopl   0x0(%rax)
    40002ff8:	8b 33                	mov    (%rbx),%esi
    40002ffa:	83 fe 1f             	cmp    $0x1f,%esi
    40002ffd:	7f 41                	jg     40003040 <_ZN9CCounters13DefineCounterER18SCounterDefinition+0x7c0>
    40002fff:	4d 63 d9             	movslq %r9d,%r11
    40003002:	48 63 ce             	movslq %esi,%rcx
    40003005:	83 c6 01             	add    $0x1,%esi
    40003008:	4d 69 db 18 02 00 00 	imul   $0x218,%r11,%r11
    4000300f:	48 c1 e1 04          	shl    $0x4,%rcx
    40003013:	4c 01 d9             	add    %r11,%rcx
    40003016:	48 01 f9             	add    %rdi,%rcx
    40003019:	c7 81 60 86 00 00 03 	movl   $0x3,0x8660(%rcx)
    40003020:	00 00 00 
    40003023:	44 89 a1 64 86 00 00 	mov    %r12d,0x8664(%rcx)
    4000302a:	c7 81 68 86 00 00 00 	movl   $0x0,0x8668(%rcx)
    40003031:	00 00 00 
    40003034:	c7 81 6c 86 00 00 00 	movl   $0x0,0x866c(%rcx)
    4000303b:	00 00 00 
    4000303e:	89 33                	mov    %esi,(%rbx)
    40003040:	41 83 c1 01          	add    $0x1,%r9d
    40003044:	48 81 c3 18 02 00 00 	add    $0x218,%rbx
    4000304b:	45 39 d1             	cmp    %r10d,%r9d
    4000304e:	75 a8                	jne    40002ff8 <_ZN9CCounters13DefineCounterER18SCounterDefinition+0x778>
    40003050:	e9 11 fc ff ff       	jmp    40002c66 <_ZN9CCounters13DefineCounterER18SCounterDefinition+0x3e6>
    40003055:	83 f9 01             	cmp    $0x1,%ecx
    40003058:	0f 85 0c fa ff ff    	jne    40002a6a <_ZN9CCounters13DefineCounterER18SCounterDefinition+0x1ea>
    4000305e:	49 bc c8 ff ff ff ff 	movabs $0xffffffffffffffc8,%r12
    40003065:	ff ff ff 
    40003068:	44 8b 76 1c          	mov    0x1c(%rsi),%r14d
    4000306c:	41 c1 e6 06          	shl    $0x6,%r14d
    40003070:	44 0b 76 18          	or     0x18(%rsi),%r14d
    40003074:	83 f8 01             	cmp    $0x1,%eax
    40003077:	0f 84 8a 04 00 00    	je     40003507 <_ZN9CCounters13DefineCounterER18SCounterDefinition+0xc87>
    4000307d:	48 b9 98 ff ff ff ff 	movabs $0xffffffffffffff98,%rcx
    40003084:	ff ff ff 
    40003087:	45 31 d2             	xor    %r10d,%r10d
    4000308a:	4c 8d 9f 70 02 00 00 	lea    0x270(%rdi),%r11
    40003091:	49 bd 03 00 00 00 11 	movabs $0x1100000003,%r13
    40003098:	00 00 00 
    4000309b:	48 8b 0c 0a          	mov    (%rdx,%rcx,1),%rcx
    4000309f:	4c 89 db             	mov    %r11,%rbx
    400030a2:	44 8b 09             	mov    (%rcx),%r9d
    400030a5:	45 85 c9             	test   %r9d,%r9d
    400030a8:	0f 8e 5c 01 00 00    	jle    4000320a <_ZN9CCounters13DefineCounterER18SCounterDefinition+0x98a>
    400030ae:	66 90                	xchg   %ax,%ax
    400030b0:	8b 33                	mov    (%rbx),%esi
    400030b2:	83 fe 1f             	cmp    $0x1f,%esi
    400030b5:	7f 2b                	jg     400030e2 <_ZN9CCounters13DefineCounterER18SCounterDefinition+0x862>
    400030b7:	49 63 ea             	movslq %r10d,%rbp
    400030ba:	48 63 ce             	movslq %esi,%rcx
    400030bd:	83 c6 01             	add    $0x1,%esi
    400030c0:	48 69 ed 18 02 00 00 	imul   $0x218,%rbp,%rbp
    400030c7:	48 c1 e1 04          	shl    $0x4,%rcx
    400030cb:	48 01 e9             	add    %rbp,%rcx
    400030ce:	48 01 f9             	add    %rdi,%rcx
    400030d1:	4c 89 69 60          	mov    %r13,0x60(%rcx)
    400030d5:	44 89 71 68          	mov    %r14d,0x68(%rcx)
    400030d9:	c7 41 6c 00 00 00 00 	movl   $0x0,0x6c(%rcx)
    400030e0:	89 33                	mov    %esi,(%rbx)
    400030e2:	41 83 c2 01          	add    $0x1,%r10d
    400030e6:	48 81 c3 18 02 00 00 	add    $0x218,%rbx
    400030ed:	45 39 d1             	cmp    %r10d,%r9d
    400030f0:	75 be                	jne    400030b0 <_ZN9CCounters13DefineCounterER18SCounterDefinition+0x830>
    400030f2:	4c 8d 97 70 88 00 00 	lea    0x8870(%rdi),%r10
    400030f9:	31 db                	xor    %ebx,%ebx
    400030fb:	4c 89 d5             	mov    %r10,%rbp
    400030fe:	66 90                	xchg   %ax,%ax
    40003100:	8b 75 00             	mov    0x0(%rbp),%esi
    40003103:	83 fe 1f             	cmp    $0x1f,%esi
    40003106:	7f 42                	jg     4000314a <_ZN9CCounters13DefineCounterER18SCounterDefinition+0x8ca>
    40003108:	4c 63 eb             	movslq %ebx,%r13
    4000310b:	48 63 ce             	movslq %esi,%rcx
    4000310e:	83 c6 01             	add    $0x1,%esi
    40003111:	4d 69 ed 18 02 00 00 	imul   $0x218,%r13,%r13
    40003118:	48 c1 e1 04          	shl    $0x4,%rcx
    4000311c:	4c 01 e9             	add    %r13,%rcx
    4000311f:	49 bd 03 00 00 00 11 	movabs $0x1100000003,%r13
    40003126:	00 00 00 
    40003129:	48 01 f9             	add    %rdi,%rcx
    4000312c:	4c 89 a9 60 86 00 00 	mov    %r13,0x8660(%rcx)
    40003133:	c7 81 68 86 00 00 00 	movl   $0x0,0x8668(%rcx)
    4000313a:	00 00 00 
    4000313d:	c7 81 6c 86 00 00 00 	movl   $0x0,0x866c(%rcx)
    40003144:	00 00 00 
    40003147:	89 75 00             	mov    %esi,0x0(%rbp)
    4000314a:	83 c3 01             	add    $0x1,%ebx
    4000314d:	48 81 c5 18 02 00 00 	add    $0x218,%rbp
    40003154:	41 39 d9             	cmp    %ebx,%r9d
    40003157:	75 a7                	jne    40003100 <_ZN9CCounters13DefineCounterER18SCounterDefinition+0x880>
    40003159:	44 8d 68 12          	lea    0x12(%rax),%r13d
    4000315d:	31 ed                	xor    %ebp,%ebp
    4000315f:	90                   	nop
    40003160:	41 8b 33             	mov    (%r11),%esi
    40003163:	83 fe 1f             	cmp    $0x1f,%esi
    40003166:	7f 36                	jg     4000319e <_ZN9CCounters13DefineCounterER18SCounterDefinition+0x91e>
    40003168:	48 63 dd             	movslq %ebp,%rbx
    4000316b:	48 63 ce             	movslq %esi,%rcx
    4000316e:	83 c6 01             	add    $0x1,%esi
    40003171:	48 69 db 18 02 00 00 	imul   $0x218,%rbx,%rbx
    40003178:	48 c1 e1 04          	shl    $0x4,%rcx
    4000317c:	48 01 d9             	add    %rbx,%rcx
    4000317f:	48 01 f9             	add    %rdi,%rcx
    40003182:	c7 41 60 03 00 00 00 	movl   $0x3,0x60(%rcx)
    40003189:	44 89 69 64          	mov    %r13d,0x64(%rcx)
    4000318d:	c7 41 68 00 00 00 00 	movl   $0x0,0x68(%rcx)
    40003194:	c7 41 6c 00 00 00 00 	movl   $0x0,0x6c(%rcx)
    4000319b:	41 89 33             	mov    %esi,(%r11)
    4000319e:	83 c5 01             	add    $0x1,%ebp
    400031a1:	49 81 c3 18 02 00 00 	add    $0x218,%r11
    400031a8:	41 39 e9             	cmp    %ebp,%r9d
    400031ab:	75 b3                	jne    40003160 <_ZN9CCounters13DefineCounterER18SCounterDefinition+0x8e0>
    400031ad:	45 31 db             	xor    %r11d,%r11d
    400031b0:	41 8b 32             	mov    (%r10),%esi
    400031b3:	83 fe 1f             	cmp    $0x1f,%esi
    400031b6:	7f 42                	jg     400031fa <_ZN9CCounters13DefineCounterER18SCounterDefinition+0x97a>
    400031b8:	49 63 db             	movslq %r11d,%rbx
    400031bb:	48 63 ce             	movslq %esi,%rcx
    400031be:	83 c6 01             	add    $0x1,%esi
    400031c1:	48 69 db 18 02 00 00 	imul   $0x218,%rbx,%rbx
    400031c8:	48 c1 e1 04          	shl    $0x4,%rcx
    400031cc:	48 01 d9             	add    %rbx,%rcx
    400031cf:	48 01 f9             	add    %rdi,%rcx
    400031d2:	c7 81 60 86 00 00 03 	movl   $0x3,0x8660(%rcx)
    400031d9:	00 00 00 
    400031dc:	44 89 a9 64 86 00 00 	mov    %r13d,0x8664(%rcx)
    400031e3:	c7 81 68 86 00 00 00 	movl   $0x0,0x8668(%rcx)
    400031ea:	00 00 00 
    400031ed:	c7 81 6c 86 00 00 00 	movl   $0x0,0x866c(%rcx)
    400031f4:	00 00 00 
    400031f7:	41 89 32             	mov    %esi,(%r10)
    400031fa:	41 83 c3 01          	add    $0x1,%r11d
    400031fe:	49 81 c2 18 02 00 00 	add    $0x218,%r10
    40003205:	45 39 d9             	cmp    %r11d,%r9d
    40003208:	75 a6                	jne    400031b0 <_ZN9CCounters13DefineCounterER18SCounterDefinition+0x930>
    4000320a:	48 bf 88 ff ff ff ff 	movabs $0xffffffffffffff88,%rdi
    40003211:	ff ff ff 
    40003214:	49 8b 0c 14          	mov    (%r12,%rdx,1),%rcx
    40003218:	48 89 7c 24 e8       	mov    %rdi,-0x18(%rsp)
    4000321d:	44 89 31             	mov    %r14d,(%rcx)
    40003220:	e9 41 fa ff ff       	jmp    40002c66 <_ZN9CCounters13DefineCounterER18SCounterDefinition+0x3e6>
    40003225:	0f 1f 00             	nopl   (%rax)
    40003228:	48 bb 88 ff ff ff ff 	movabs $0xffffffffffffff88,%rbx
    4000322f:	ff ff ff 
    40003232:	48 89 5c 24 e8       	mov    %rbx,-0x18(%rsp)
    40003237:	a9 00 00 00 40       	test   $0x40000000,%eax
    4000323c:	0f 85 92 01 00 00    	jne    400033d4 <_ZN9CCounters13DefineCounterER18SCounterDefinition+0xb54>
    40003242:	48 b9 50 61 81 00 00 	movabs $0x816150,%rcx
    40003249:	00 00 00 
    4000324c:	44 8b 2c 0a          	mov    (%rdx,%rcx,1),%r13d
    40003250:	41 8d 5d 01          	lea    0x1(%r13),%ebx
    40003254:	89 1c 0a             	mov    %ebx,(%rdx,%rcx,1)
    40003257:	48 b9 98 ff ff ff ff 	movabs $0xffffffffffffff98,%rcx
    4000325e:	ff ff ff 
    40003261:	48 8b 0c 0a          	mov    (%rdx,%rcx,1),%rcx
    40003265:	44 8b 11             	mov    (%rcx),%r10d
    40003268:	45 85 ed             	test   %r13d,%r13d
    4000326b:	0f 85 03 01 00 00    	jne    40003374 <_ZN9CCounters13DefineCounterER18SCounterDefinition+0xaf4>
    40003271:	8b 8f 68 0c 01 00    	mov    0x10c68(%rdi),%ecx
    40003277:	41 b9 01 00 00 00    	mov    $0x1,%r9d
    4000327d:	45 89 ce             	mov    %r9d,%r14d
    40003280:	41 d3 e6             	shl    %cl,%r14d
    40003283:	8b 8f 64 0c 01 00    	mov    0x10c64(%rdi),%ecx
    40003289:	45 8d 5e ff          	lea    -0x1(%r14),%r11d
    4000328d:	41 d3 e1             	shl    %cl,%r9d
    40003290:	41 8d 49 ff          	lea    -0x1(%r9),%ecx
    40003294:	45 85 d2             	test   %r10d,%r10d
    40003297:	0f 8e d7 00 00 00    	jle    40003374 <_ZN9CCounters13DefineCounterER18SCounterDefinition+0xaf4>
    4000329d:	89 44 24 fc          	mov    %eax,-0x4(%rsp)
    400032a1:	45 89 d9             	mov    %r11d,%r9d
    400032a4:	4c 8d a7 70 02 00 00 	lea    0x270(%rdi),%r12
    400032ab:	31 ed                	xor    %ebp,%ebp
    400032ad:	44 89 44 24 f8       	mov    %r8d,-0x8(%rsp)
    400032b2:	41 89 cb             	mov    %ecx,%r11d
    400032b5:	49 be 03 00 00 00 8f 	movabs $0x38f00000003,%r14
    400032bc:	03 00 00 
    400032bf:	90                   	nop
    400032c0:	41 8b 0c 24          	mov    (%r12),%ecx
    400032c4:	83 f9 1f             	cmp    $0x1f,%ecx
    400032c7:	7f 2a                	jg     400032f3 <_ZN9CCounters13DefineCounterER18SCounterDefinition+0xa73>
    400032c9:	4c 63 c5             	movslq %ebp,%r8
    400032cc:	48 63 c1             	movslq %ecx,%rax
    400032cf:	83 c1 01             	add    $0x1,%ecx
    400032d2:	4d 69 c0 18 02 00 00 	imul   $0x218,%r8,%r8
    400032d9:	48 c1 e0 04          	shl    $0x4,%rax
    400032dd:	4c 01 c0             	add    %r8,%rax
    400032e0:	48 01 f8             	add    %rdi,%rax
    400032e3:	4c 89 70 60          	mov    %r14,0x60(%rax)
    400032e7:	44 89 58 68          	mov    %r11d,0x68(%rax)
    400032eb:	44 89 48 6c          	mov    %r9d,0x6c(%rax)
    400032ef:	41 89 0c 24          	mov    %ecx,(%r12)
    400032f3:	83 c5 01             	add    $0x1,%ebp
    400032f6:	49 81 c4 18 02 00 00 	add    $0x218,%r12
    400032fd:	44 39 d5             	cmp    %r10d,%ebp
    40003300:	75 be                	jne    400032c0 <_ZN9CCounters13DefineCounterER18SCounterDefinition+0xa40>
    40003302:	44 8b 44 24 f8       	mov    -0x8(%rsp),%r8d
    40003307:	8b 44 24 fc          	mov    -0x4(%rsp),%eax
    4000330b:	4c 8d 9f 70 88 00 00 	lea    0x8870(%rdi),%r11
    40003312:	48 bd 03 00 00 00 8f 	movabs $0x38f00000003,%rbp
    40003319:	03 00 00 
    4000331c:	eb 05                	jmp    40003323 <_ZN9CCounters13DefineCounterER18SCounterDefinition+0xaa3>
    4000331e:	66 90                	xchg   %ax,%ax
    40003320:	83 c3 01             	add    $0x1,%ebx
    40003323:	45 8b 0b             	mov    (%r11),%r9d
    40003326:	41 83 f9 1f          	cmp    $0x1f,%r9d
    4000332a:	7f 39                	jg     40003365 <_ZN9CCounters13DefineCounterER18SCounterDefinition+0xae5>
    4000332c:	4d 63 e5             	movslq %r13d,%r12
    4000332f:	49 63 c9             	movslq %r9d,%rcx
    40003332:	41 83 c1 01          	add    $0x1,%r9d
    40003336:	4d 69 e4 18 02 00 00 	imul   $0x218,%r12,%r12
    4000333d:	48 c1 e1 04          	shl    $0x4,%rcx
    40003341:	4c 01 e1             	add    %r12,%rcx
    40003344:	48 01 f9             	add    %rdi,%rcx
    40003347:	48 89 a9 60 86 00 00 	mov    %rbp,0x8660(%rcx)
    4000334e:	c7 81 68 86 00 00 00 	movl   $0x0,0x8668(%rcx)
    40003355:	00 00 00 
    40003358:	c7 81 6c 86 00 00 00 	movl   $0x0,0x866c(%rcx)
    4000335f:	00 00 00 
    40003362:	45 89 0b             	mov    %r9d,(%r11)
    40003365:	41 89 dd             	mov    %ebx,%r13d
    40003368:	49 81 c3 18 02 00 00 	add    $0x218,%r11
    4000336f:	44 39 d3             	cmp    %r10d,%ebx
    40003372:	75 ac                	jne    40003320 <_ZN9CCounters13DefineCounterER18SCounterDefinition+0xaa0>
    40003374:	8b 4e 1c             	mov    0x1c(%rsi),%ecx
    40003377:	c1 e1 08             	shl    $0x8,%ecx
    4000337a:	0b 4e 18             	or     0x18(%rsi),%ecx
    4000337d:	89 ce                	mov    %ecx,%esi
    4000337f:	81 ce 00 00 41 00    	or     $0x410000,%esi
    40003385:	41 89 f6             	mov    %esi,%r14d
    40003388:	e9 34 fb ff ff       	jmp    40002ec1 <_ZN9CCounters13DefineCounterER18SCounterDefinition+0x641>
    4000338d:	0f 1f 00             	nopl   (%rax)
    40003390:	89 46 10             	mov    %eax,0x10(%rsi)
    40003393:	41 89 c6             	mov    %eax,%r14d
    40003396:	e9 76 f5 ff ff       	jmp    40002911 <_ZN9CCounters13DefineCounterER18SCounterDefinition+0x91>
    4000339b:	0f 1f 44 00 00       	nopl   0x0(%rax,%rax,1)
    400033a0:	49 63 d8             	movslq %r8d,%rbx
    400033a3:	48 8d 4e 20          	lea    0x20(%rsi),%rcx
    400033a7:	48 89 4c df 10       	mov    %rcx,0x10(%rdi,%rbx,8)
    400033ac:	8b 4f 58             	mov    0x58(%rdi),%ecx
    400033af:	48 89 5c 24 f0       	mov    %rbx,-0x10(%rsp)
    400033b4:	81 f9 00 01 00 00    	cmp    $0x100,%ecx
    400033ba:	0f 85 78 f6 ff ff    	jne    40002a38 <_ZN9CCounters13DefineCounterER18SCounterDefinition+0x1b8>
    400033c0:	e9 72 fe ff ff       	jmp    40003237 <_ZN9CCounters13DefineCounterER18SCounterDefinition+0x9b7>
    400033c5:	48 bb 88 ff ff ff ff 	movabs $0xffffffffffffff88,%rbx
    400033cc:	ff ff ff 
    400033cf:	48 89 5c 24 e8       	mov    %rbx,-0x18(%rsp)
    400033d4:	48 b9 4c 61 81 00 00 	movabs $0x81614c,%rcx
    400033db:	00 00 00 
    400033de:	48 63 34 0a          	movslq (%rdx,%rcx,1),%rsi
    400033e2:	44 8d 5e 01          	lea    0x1(%rsi),%r11d
    400033e6:	44 89 1c 0a          	mov    %r11d,(%rdx,%rcx,1)
    400033ea:	85 f6                	test   %esi,%esi
    400033ec:	0f 85 74 f8 ff ff    	jne    40002c66 <_ZN9CCounters13DefineCounterER18SCounterDefinition+0x3e6>
    400033f2:	44 8b 97 68 0c 01 00 	mov    0x10c68(%rdi),%r10d
    400033f9:	45 85 d2             	test   %r10d,%r10d
    400033fc:	0f 8e 65 05 00 00    	jle    40003967 <_ZN9CCounters13DefineCounterER18SCounterDefinition+0x10e7>
    40003402:	41 c1 e2 02          	shl    $0x2,%r10d
    40003406:	45 31 ed             	xor    %r13d,%r13d
    40003409:	31 c9                	xor    %ecx,%ecx
    4000340b:	bb 02 00 00 00       	mov    $0x2,%ebx
    40003410:	41 89 d9             	mov    %ebx,%r9d
    40003413:	41 d3 e1             	shl    %cl,%r9d
    40003416:	83 c1 04             	add    $0x4,%ecx
    40003419:	45 09 cd             	or     %r9d,%r13d
    4000341c:	41 39 ca             	cmp    %ecx,%r10d
    4000341f:	75 ef                	jne    40003410 <_ZN9CCounters13DefineCounterER18SCounterDefinition+0xb90>
    40003421:	48 b9 98 ff ff ff ff 	movabs $0xffffffffffffff98,%rcx
    40003428:	ff ff ff 
    4000342b:	48 8b 0c 0a          	mov    (%rdx,%rcx,1),%rcx
    4000342f:	44 8b 21             	mov    (%rcx),%r12d
    40003432:	45 85 e4             	test   %r12d,%r12d
    40003435:	0f 8e 2b f8 ff ff    	jle    40002c66 <_ZN9CCounters13DefineCounterER18SCounterDefinition+0x3e6>
    4000343b:	48 8d af 70 02 00 00 	lea    0x270(%rdi),%rbp
    40003442:	31 db                	xor    %ebx,%ebx
    40003444:	49 be 03 00 00 00 8d 	movabs $0x38d00000003,%r14
    4000344b:	03 00 00 
    4000344e:	66 90                	xchg   %ax,%ax
    40003450:	44 8b 4d 00          	mov    0x0(%rbp),%r9d
    40003454:	41 83 f9 1f          	cmp    $0x1f,%r9d
    40003458:	7f 2e                	jg     40003488 <_ZN9CCounters13DefineCounterER18SCounterDefinition+0xc08>
    4000345a:	4c 63 d3             	movslq %ebx,%r10
    4000345d:	49 63 c9             	movslq %r9d,%rcx
    40003460:	41 83 c1 01          	add    $0x1,%r9d
    40003464:	4d 69 d2 18 02 00 00 	imul   $0x218,%r10,%r10
    4000346b:	48 c1 e1 04          	shl    $0x4,%rcx
    4000346f:	4c 01 d1             	add    %r10,%rcx
    40003472:	48 01 f9             	add    %rdi,%rcx
    40003475:	4c 89 71 60          	mov    %r14,0x60(%rcx)
    40003479:	44 89 69 68          	mov    %r13d,0x68(%rcx)
    4000347d:	c7 41 6c 00 00 00 00 	movl   $0x0,0x6c(%rcx)
    40003484:	44 89 4d 00          	mov    %r9d,0x0(%rbp)
    40003488:	83 c3 01             	add    $0x1,%ebx
    4000348b:	48 81 c5 18 02 00 00 	add    $0x218,%rbp
    40003492:	41 39 dc             	cmp    %ebx,%r12d
    40003495:	75 b9                	jne    40003450 <_ZN9CCounters13DefineCounterER18SCounterDefinition+0xbd0>
    40003497:	4c 8d 97 70 88 00 00 	lea    0x8870(%rdi),%r10
    4000349e:	48 bb 03 00 00 00 8d 	movabs $0x38d00000003,%rbx
    400034a5:	03 00 00 
    400034a8:	eb 0a                	jmp    400034b4 <_ZN9CCounters13DefineCounterER18SCounterDefinition+0xc34>
    400034aa:	66 0f 1f 44 00 00    	nopw   0x0(%rax,%rax,1)
    400034b0:	41 83 c3 01          	add    $0x1,%r11d
    400034b4:	45 8b 0a             	mov    (%r10),%r9d
    400034b7:	41 83 f9 1f          	cmp    $0x1f,%r9d
    400034bb:	7f 36                	jg     400034f3 <_ZN9CCounters13DefineCounterER18SCounterDefinition+0xc73>
    400034bd:	48 69 f6 18 02 00 00 	imul   $0x218,%rsi,%rsi
    400034c4:	49 63 c9             	movslq %r9d,%rcx
    400034c7:	41 83 c1 01          	add    $0x1,%r9d
    400034cb:	48 c1 e1 04          	shl    $0x4,%rcx
    400034cf:	48 01 f1             	add    %rsi,%rcx
    400034d2:	48 01 f9             	add    %rdi,%rcx
    400034d5:	48 89 99 60 86 00 00 	mov    %rbx,0x8660(%rcx)
    400034dc:	c7 81 68 86 00 00 00 	movl   $0x0,0x8668(%rcx)
    400034e3:	00 00 00 
    400034e6:	c7 81 6c 86 00 00 00 	movl   $0x0,0x866c(%rcx)
    400034ed:	00 00 00 
    400034f0:	45 89 0a             	mov    %r9d,(%r10)
    400034f3:	49 63 f3             	movslq %r11d,%rsi
    400034f6:	49 81 c2 18 02 00 00 	add    $0x218,%r10
    400034fd:	45 39 dc             	cmp    %r11d,%r12d
    40003500:	75 ae                	jne    400034b0 <_ZN9CCounters13DefineCounterER18SCounterDefinition+0xc30>
    40003502:	e9 5f f7 ff ff       	jmp    40002c66 <_ZN9CCounters13DefineCounterER18SCounterDefinition+0x3e6>
    40003507:	49 8b 0c 14          	mov    (%r12,%rdx,1),%rcx
    4000350b:	41 c1 e6 10          	shl    $0x10,%r14d
    4000350f:	44 0b 31             	or     (%rcx),%r14d
    40003512:	e9 66 fb ff ff       	jmp    4000307d <_ZN9CCounters13DefineCounterER18SCounterDefinition+0x7fd>
    40003517:	66 0f 1f 84 00 00 00 	nopw   0x0(%rax,%rax,1)
    4000351e:	00 00 
    40003520:	4c 63 4e 14          	movslq 0x14(%rsi),%r9
    40003524:	83 f8 11             	cmp    $0x11,%eax
    40003527:	0f 87 42 04 00 00    	ja     4000396f <_ZN9CCounters13DefineCounterER18SCounterDefinition+0x10ef>
    4000352d:	8d 48 fd             	lea    -0x3(%rax),%ecx
    40003530:	83 f8 0f             	cmp    $0xf,%eax
    40003533:	0f 46 c8             	cmovbe %eax,%ecx
    40003536:	41 83 f9 07          	cmp    $0x7,%r9d
    4000353a:	0f 87 2f 04 00 00    	ja     4000396f <_ZN9CCounters13DefineCounterER18SCounterDefinition+0x10ef>
    40003540:	41 89 ca             	mov    %ecx,%r10d
    40003543:	41 c1 ea 02          	shr    $0x2,%r10d
    40003547:	4f 8d 14 d1          	lea    (%r9,%r10,8),%r10
    4000354b:	49 b9 00 da ff ff ff 	movabs $0xffffffffffffda00,%r9
    40003552:	ff ff ff 
    40003555:	49 01 d1             	add    %rdx,%r9
    40003558:	47 8b 2c 91          	mov    (%r9,%r10,4),%r13d
    4000355c:	45 85 ed             	test   %r13d,%r13d
    4000355f:	78 0a                	js     4000356b <_ZN9CCounters13DefineCounterER18SCounterDefinition+0xceb>
    40003561:	83 e1 02             	and    $0x2,%ecx
    40003564:	83 f9 01             	cmp    $0x1,%ecx
    40003567:	41 83 dd ff          	sbb    $0xffffffff,%r13d
    4000356b:	44 8b 76 1c          	mov    0x1c(%rsi),%r14d
    4000356f:	8b 4e 18             	mov    0x18(%rsi),%ecx
    40003572:	41 c1 e6 09          	shl    $0x9,%r14d
    40003576:	c1 e1 19             	shl    $0x19,%ecx
    40003579:	41 09 ce             	or     %ecx,%r14d
    4000357c:	48 b9 98 ff ff ff ff 	movabs $0xffffffffffffff98,%rcx
    40003583:	ff ff ff 
    40003586:	48 8b 0c 0a          	mov    (%rdx,%rcx,1),%rcx
    4000358a:	41 83 ce 3c          	or     $0x3c,%r14d
    4000358e:	44 8b 09             	mov    (%rcx),%r9d
    40003591:	45 85 c9             	test   %r9d,%r9d
    40003594:	0f 8e b1 03 00 00    	jle    4000394b <_ZN9CCounters13DefineCounterER18SCounterDefinition+0x10cb>
    4000359a:	4c 8d 9f 70 02 00 00 	lea    0x270(%rdi),%r11
    400035a1:	31 ed                	xor    %ebp,%ebp
    400035a3:	4d 89 dc             	mov    %r11,%r12
    400035a6:	66 2e 0f 1f 84 00 00 	cs nopw 0x0(%rax,%rax,1)
    400035ad:	00 00 00 
    400035b0:	45 8b 14 24          	mov    (%r12),%r10d
    400035b4:	41 83 fa 1f          	cmp    $0x1f,%r10d
    400035b8:	7f 35                	jg     400035ef <_ZN9CCounters13DefineCounterER18SCounterDefinition+0xd6f>
    400035ba:	48 63 dd             	movslq %ebp,%rbx
    400035bd:	49 63 ca             	movslq %r10d,%rcx
    400035c0:	41 83 c2 01          	add    $0x1,%r10d
    400035c4:	48 69 db 18 02 00 00 	imul   $0x218,%rbx,%rbx
    400035cb:	48 c1 e1 04          	shl    $0x4,%rcx
    400035cf:	48 01 d9             	add    %rbx,%rcx
    400035d2:	48 01 f9             	add    %rdi,%rcx
    400035d5:	c7 41 60 03 00 00 00 	movl   $0x3,0x60(%rcx)
    400035dc:	44 89 69 64          	mov    %r13d,0x64(%rcx)
    400035e0:	44 89 71 68          	mov    %r14d,0x68(%rcx)
    400035e4:	c7 41 6c 00 00 00 00 	movl   $0x0,0x6c(%rcx)
    400035eb:	45 89 14 24          	mov    %r10d,(%r12)
    400035ef:	83 c5 01             	add    $0x1,%ebp
    400035f2:	49 81 c4 18 02 00 00 	add    $0x218,%r12
    400035f9:	41 39 e9             	cmp    %ebp,%r9d
    400035fc:	75 b2                	jne    400035b0 <_ZN9CCounters13DefineCounterER18SCounterDefinition+0xd30>
    400035fe:	48 8d 9f 70 88 00 00 	lea    0x8870(%rdi),%rbx
    40003605:	45 31 e4             	xor    %r12d,%r12d
    40003608:	49 89 de             	mov    %rbx,%r14
    4000360b:	0f 1f 44 00 00       	nopl   0x0(%rax,%rax,1)
    40003610:	45 8b 16             	mov    (%r14),%r10d
    40003613:	41 83 fa 1f          	cmp    $0x1f,%r10d
    40003617:	7f 43                	jg     4000365c <_ZN9CCounters13DefineCounterER18SCounterDefinition+0xddc>
    40003619:	49 63 ec             	movslq %r12d,%rbp
    4000361c:	49 63 ca             	movslq %r10d,%rcx
    4000361f:	41 83 c2 01          	add    $0x1,%r10d
    40003623:	48 69 ed 18 02 00 00 	imul   $0x218,%rbp,%rbp
    4000362a:	48 c1 e1 04          	shl    $0x4,%rcx
    4000362e:	48 01 e9             	add    %rbp,%rcx
    40003631:	48 01 f9             	add    %rdi,%rcx
    40003634:	c7 81 60 86 00 00 03 	movl   $0x3,0x8660(%rcx)
    4000363b:	00 00 00 
    4000363e:	44 89 a9 64 86 00 00 	mov    %r13d,0x8664(%rcx)
    40003645:	c7 81 68 86 00 00 00 	movl   $0x0,0x8668(%rcx)
    4000364c:	00 00 00 
    4000364f:	c7 81 6c 86 00 00 00 	movl   $0x0,0x866c(%rcx)
    40003656:	00 00 00 
    40003659:	45 89 16             	mov    %r10d,(%r14)
    4000365c:	41 83 c4 01          	add    $0x1,%r12d
    40003660:	49 81 c6 18 02 00 00 	add    $0x218,%r14
    40003667:	45 39 e1             	cmp    %r12d,%r9d
    4000366a:	75 a4                	jne    40003610 <_ZN9CCounters13DefineCounterER18SCounterDefinition+0xd90>
    4000366c:	48 b9 c8 ff ff ff ff 	movabs $0xffffffffffffffc8,%rcx
    40003673:	ff ff ff 
    40003676:	4c 8b 74 24 f0       	mov    -0x10(%rsp),%r14
    4000367b:	4d 89 dc             	mov    %r11,%r12
    4000367e:	31 ed                	xor    %ebp,%ebp
    40003680:	48 8b 0c 0a          	mov    (%rdx,%rcx,1),%rcx
    40003684:	46 89 2c b1          	mov    %r13d,(%rcx,%r14,4)
    40003688:	44 8b 76 14          	mov    0x14(%rsi),%r14d
    4000368c:	44 8d a8 60 03 00 00 	lea    0x360(%rax),%r13d
    40003693:	41 c1 e6 0d          	shl    $0xd,%r14d
    40003697:	41 81 ce 00 10 03 00 	or     $0x31000,%r14d
    4000369e:	66 90                	xchg   %ax,%ax
    400036a0:	41 8b 34 24          	mov    (%r12),%esi
    400036a4:	83 fe 1f             	cmp    $0x1f,%esi
    400036a7:	7f 34                	jg     400036dd <_ZN9CCounters13DefineCounterER18SCounterDefinition+0xe5d>
    400036a9:	4c 63 d5             	movslq %ebp,%r10
    400036ac:	48 63 ce             	movslq %esi,%rcx
    400036af:	83 c6 01             	add    $0x1,%esi
    400036b2:	4d 69 d2 18 02 00 00 	imul   $0x218,%r10,%r10
    400036b9:	48 c1 e1 04          	shl    $0x4,%rcx
    400036bd:	4c 01 d1             	add    %r10,%rcx
    400036c0:	48 01 f9             	add    %rdi,%rcx
    400036c3:	c7 41 60 03 00 00 00 	movl   $0x3,0x60(%rcx)
    400036ca:	44 89 69 64          	mov    %r13d,0x64(%rcx)
    400036ce:	44 89 71 68          	mov    %r14d,0x68(%rcx)
    400036d2:	c7 41 6c 00 00 00 00 	movl   $0x0,0x6c(%rcx)
    400036d9:	41 89 34 24          	mov    %esi,(%r12)
    400036dd:	83 c5 01             	add    $0x1,%ebp
    400036e0:	49 81 c4 18 02 00 00 	add    $0x218,%r12
    400036e7:	41 39 e9             	cmp    %ebp,%r9d
    400036ea:	75 b4                	jne    400036a0 <_ZN9CCounters13DefineCounterER18SCounterDefinition+0xe20>
    400036ec:	48 89 dd             	mov    %rbx,%rbp
    400036ef:	45 31 d2             	xor    %r10d,%r10d
    400036f2:	66 0f 1f 44 00 00    	nopw   0x0(%rax,%rax,1)
    400036f8:	8b 75 00             	mov    0x0(%rbp),%esi
    400036fb:	83 fe 1f             	cmp    $0x1f,%esi
    400036fe:	7f 42                	jg     40003742 <_ZN9CCounters13DefineCounterER18SCounterDefinition+0xec2>
    40003700:	4d 63 e2             	movslq %r10d,%r12
    40003703:	48 63 ce             	movslq %esi,%rcx
    40003706:	83 c6 01             	add    $0x1,%esi
    40003709:	4d 69 e4 18 02 00 00 	imul   $0x218,%r12,%r12
    40003710:	48 c1 e1 04          	shl    $0x4,%rcx
    40003714:	4c 01 e1             	add    %r12,%rcx
    40003717:	48 01 f9             	add    %rdi,%rcx
    4000371a:	c7 81 60 86 00 00 03 	movl   $0x3,0x8660(%rcx)
    40003721:	00 00 00 
    40003724:	44 89 a9 64 86 00 00 	mov    %r13d,0x8664(%rcx)
    4000372b:	c7 81 68 86 00 00 00 	movl   $0x0,0x8668(%rcx)
    40003732:	00 00 00 
    40003735:	c7 81 6c 86 00 00 00 	movl   $0x0,0x866c(%rcx)
    4000373c:	00 00 00 
    4000373f:	89 75 00             	mov    %esi,0x0(%rbp)
    40003742:	41 83 c2 01          	add    $0x1,%r10d
    40003746:	48 81 c5 18 02 00 00 	add    $0x218,%rbp
    4000374d:	45 39 d1             	cmp    %r10d,%r9d
    40003750:	75 a6                	jne    400036f8 <_ZN9CCounters13DefineCounterER18SCounterDefinition+0xe78>
    40003752:	8d b0 00 03 00 00    	lea    0x300(%rax),%esi
    40003758:	31 ed                	xor    %ebp,%ebp
    4000375a:	66 0f 1f 44 00 00    	nopw   0x0(%rax,%rax,1)
    40003760:	45 8b 13             	mov    (%r11),%r10d
    40003763:	41 83 fa 1f          	cmp    $0x1f,%r10d
    40003767:	7f 36                	jg     4000379f <_ZN9CCounters13DefineCounterER18SCounterDefinition+0xf1f>
    40003769:	4c 63 e5             	movslq %ebp,%r12
    4000376c:	49 63 ca             	movslq %r10d,%rcx
    4000376f:	41 83 c2 01          	add    $0x1,%r10d
    40003773:	4d 69 e4 18 02 00 00 	imul   $0x218,%r12,%r12
    4000377a:	48 c1 e1 04          	shl    $0x4,%rcx
    4000377e:	4c 01 e1             	add    %r12,%rcx
    40003781:	48 01 f9             	add    %rdi,%rcx
    40003784:	c7 41 60 03 00 00 00 	movl   $0x3,0x60(%rcx)
    4000378b:	89 71 64             	mov    %esi,0x64(%rcx)
    4000378e:	c7 41 68 00 00 00 00 	movl   $0x0,0x68(%rcx)
    40003795:	c7 41 6c 00 00 00 00 	movl   $0x0,0x6c(%rcx)
    4000379c:	45 89 13             	mov    %r10d,(%r11)
    4000379f:	83 c5 01             	add    $0x1,%ebp
    400037a2:	49 81 c3 18 02 00 00 	add    $0x218,%r11
    400037a9:	41 39 e9             	cmp    %ebp,%r9d
    400037ac:	75 b2                	jne    40003760 <_ZN9CCounters13DefineCounterER18SCounterDefinition+0xee0>
    400037ae:	45 31 db             	xor    %r11d,%r11d
    400037b1:	0f 1f 80 00 00 00 00 	nopl   0x0(%rax)
    400037b8:	44 8b 13             	mov    (%rbx),%r10d
    400037bb:	41 83 fa 1f          	cmp    $0x1f,%r10d
    400037bf:	7f 42                	jg     40003803 <_ZN9CCounters13DefineCounterER18SCounterDefinition+0xf83>
    400037c1:	49 63 eb             	movslq %r11d,%rbp
    400037c4:	49 63 ca             	movslq %r10d,%rcx
    400037c7:	41 83 c2 01          	add    $0x1,%r10d
    400037cb:	48 69 ed 18 02 00 00 	imul   $0x218,%rbp,%rbp
    400037d2:	48 c1 e1 04          	shl    $0x4,%rcx
    400037d6:	48 01 e9             	add    %rbp,%rcx
    400037d9:	48 01 f9             	add    %rdi,%rcx
    400037dc:	c7 81 60 86 00 00 03 	movl   $0x3,0x8660(%rcx)
    400037e3:	00 00 00 
    400037e6:	89 b1 64 86 00 00    	mov    %esi,0x8664(%rcx)
    400037ec:	c7 81 68 86 00 00 00 	movl   $0x0,0x8668(%rcx)
    400037f3:	00 00 00 
    400037f6:	c7 81 6c 86 00 00 00 	movl   $0x0,0x866c(%rcx)
    400037fd:	00 00 00 
    40003800:	44 89 13             	mov    %r10d,(%rbx)
    40003803:	41 83 c3 01          	add    $0x1,%r11d
    40003807:	48 81 c3 18 02 00 00 	add    $0x218,%rbx
    4000380e:	45 39 d9             	cmp    %r11d,%r9d
    40003811:	75 a5                	jne    400037b8 <_ZN9CCounters13DefineCounterER18SCounterDefinition+0xf38>
    40003813:	48 bf 88 ff ff ff ff 	movabs $0xffffffffffffff88,%rdi
    4000381a:	ff ff ff 
    4000381d:	0d 00 00 00 80       	or     $0x80000000,%eax
    40003822:	48 89 7c 24 e8       	mov    %rdi,-0x18(%rsp)
    40003827:	e9 3a f4 ff ff       	jmp    40002c66 <_ZN9CCounters13DefineCounterER18SCounterDefinition+0x3e6>
    4000382c:	0f 1f 40 00          	nopl   0x0(%rax)
    40003830:	48 b9 98 ff ff ff ff 	movabs $0xffffffffffffff98,%rcx
    40003837:	ff ff ff 
    4000383a:	8b 5e 1c             	mov    0x1c(%rsi),%ebx
    4000383d:	44 8d 8c 00 00 02 01 	lea    -0x3ffefe00(%rax,%rax,1),%r9d
    40003844:	c0 
    40003845:	48 8b 0c 0a          	mov    (%rdx,%rcx,1),%rcx
    40003849:	c1 e3 08             	shl    $0x8,%ebx
    4000384c:	0b 5e 18             	or     0x18(%rsi),%ebx
    4000384f:	8b 31                	mov    (%rcx),%esi
    40003851:	81 cb 00 00 41 00    	or     $0x410000,%ebx
    40003857:	48 b9 88 ff ff ff ff 	movabs $0xffffffffffffff88,%rcx
    4000385e:	ff ff ff 
    40003861:	48 89 4c 24 e8       	mov    %rcx,-0x18(%rsp)
    40003866:	85 f6                	test   %esi,%esi
    40003868:	0f 8e f8 f3 ff ff    	jle    40002c66 <_ZN9CCounters13DefineCounterER18SCounterDefinition+0x3e6>
    4000386e:	48 8d af 70 02 00 00 	lea    0x270(%rdi),%rbp
    40003875:	45 31 db             	xor    %r11d,%r11d
    40003878:	0f 1f 84 00 00 00 00 	nopl   0x0(%rax,%rax,1)
    4000387f:	00 
    40003880:	44 8b 55 00          	mov    0x0(%rbp),%r10d
    40003884:	41 83 fa 1f          	cmp    $0x1f,%r10d
    40003888:	7f 34                	jg     400038be <_ZN9CCounters13DefineCounterER18SCounterDefinition+0x103e>
    4000388a:	4d 63 e3             	movslq %r11d,%r12
    4000388d:	49 63 ca             	movslq %r10d,%rcx
    40003890:	41 83 c2 01          	add    $0x1,%r10d
    40003894:	4d 69 e4 18 02 00 00 	imul   $0x218,%r12,%r12
    4000389b:	48 c1 e1 04          	shl    $0x4,%rcx
    4000389f:	4c 01 e1             	add    %r12,%rcx
    400038a2:	48 01 f9             	add    %rdi,%rcx
    400038a5:	c7 41 60 03 00 00 00 	movl   $0x3,0x60(%rcx)
    400038ac:	44 89 49 64          	mov    %r9d,0x64(%rcx)
    400038b0:	89 59 68             	mov    %ebx,0x68(%rcx)
    400038b3:	c7 41 6c 00 00 00 00 	movl   $0x0,0x6c(%rcx)
    400038ba:	44 89 55 00          	mov    %r10d,0x0(%rbp)
    400038be:	41 83 c3 01          	add    $0x1,%r11d
    400038c2:	48 81 c5 18 02 00 00 	add    $0x218,%rbp
    400038c9:	44 39 de             	cmp    %r11d,%esi
    400038cc:	75 b2                	jne    40003880 <_ZN9CCounters13DefineCounterER18SCounterDefinition+0x1000>
    400038ce:	48 8d 9f 70 88 00 00 	lea    0x8870(%rdi),%rbx
    400038d5:	45 31 db             	xor    %r11d,%r11d
    400038d8:	0f 1f 84 00 00 00 00 	nopl   0x0(%rax,%rax,1)
    400038df:	00 
    400038e0:	44 8b 13             	mov    (%rbx),%r10d
    400038e3:	41 83 fa 1f          	cmp    $0x1f,%r10d
    400038e7:	7f 43                	jg     4000392c <_ZN9CCounters13DefineCounterER18SCounterDefinition+0x10ac>
    400038e9:	49 63 eb             	movslq %r11d,%rbp
    400038ec:	49 63 ca             	movslq %r10d,%rcx
    400038ef:	41 83 c2 01          	add    $0x1,%r10d
    400038f3:	48 69 ed 18 02 00 00 	imul   $0x218,%rbp,%rbp
    400038fa:	48 c1 e1 04          	shl    $0x4,%rcx
    400038fe:	48 01 e9             	add    %rbp,%rcx
    40003901:	48 01 f9             	add    %rdi,%rcx
    40003904:	c7 81 60 86 00 00 03 	movl   $0x3,0x8660(%rcx)
    4000390b:	00 00 00 
    4000390e:	44 89 89 64 86 00 00 	mov    %r9d,0x8664(%rcx)
    40003915:	c7 81 68 86 00 00 00 	movl   $0x0,0x8668(%rcx)
    4000391c:	00 00 00 
    4000391f:	c7 81 6c 86 00 00 00 	movl   $0x0,0x866c(%rcx)
    40003926:	00 00 00 
    40003929:	44 89 13             	mov    %r10d,(%rbx)
    4000392c:	41 83 c3 01          	add    $0x1,%r11d
    40003930:	48 81 c3 18 02 00 00 	add    $0x218,%rbx
    40003937:	44 39 de             	cmp    %r11d,%esi
    4000393a:	75 a4                	jne    400038e0 <_ZN9CCounters13DefineCounterER18SCounterDefinition+0x1060>
    4000393c:	e9 16 f3 ff ff       	jmp    40002c57 <_ZN9CCounters13DefineCounterER18SCounterDefinition+0x3d7>
    40003941:	bb ff ff ff ff       	mov    $0xffffffff,%ebx
    40003946:	e9 8d f0 ff ff       	jmp    400029d8 <_ZN9CCounters13DefineCounterER18SCounterDefinition+0x158>
    4000394b:	48 b9 c8 ff ff ff ff 	movabs $0xffffffffffffffc8,%rcx
    40003952:	ff ff ff 
    40003955:	48 8b 7c 24 f0       	mov    -0x10(%rsp),%rdi
    4000395a:	48 8b 0c 0a          	mov    (%rdx,%rcx,1),%rcx
    4000395e:	44 89 2c b9          	mov    %r13d,(%rcx,%rdi,4)
    40003962:	e9 ac fe ff ff       	jmp    40003813 <_ZN9CCounters13DefineCounterER18SCounterDefinition+0xf93>
    40003967:	45 31 ed             	xor    %r13d,%r13d
    4000396a:	e9 b2 fa ff ff       	jmp    40003421 <_ZN9CCounters13DefineCounterER18SCounterDefinition+0xba1>
    4000396f:	41 83 cd ff          	or     $0xffffffff,%r13d
    40003973:	e9 f3 fb ff ff       	jmp    4000356b <_ZN9CCounters13DefineCounterER18SCounterDefinition+0xceb>
    40003978:	0f 1f 84 00 00 00 00 	nopl   0x0(%rax,%rax,1)
    4000397f:	00 

0000000040003980 <_ZN9CCounters13DefineCounterEi.part.0>:
    40003980:	f3 0f 1e fa          	endbr64 
    40003984:	f3 0f 1e fa          	endbr64 
    40003988:	8b 97 60 0c 01 00    	mov    0x10c60(%rdi),%edx
    4000398e:	4c 8d 05 ef ff ff ff 	lea    -0x11(%rip),%r8        # 40003984 <_ZN9CCounters13DefineCounterEi.part.0+0x4>
    40003995:	89 f0                	mov    %esi,%eax
    40003997:	49 bb 7c 46 00 00 00 	movabs $0x467c,%r11
    4000399e:	00 00 00 
    400039a1:	4d 01 d8             	add    %r11,%r8
    400039a4:	85 d2                	test   %edx,%edx
    400039a6:	7e 58                	jle    40003a00 <_ZN9CCounters13DefineCounterEi.part.0+0x80>
    400039a8:	83 ea 01             	sub    $0x1,%edx
    400039ab:	48 83 c2 01          	add    $0x1,%rdx
    400039af:	48 8d 0c 92          	lea    (%rdx,%rdx,4),%rcx
    400039b3:	48 8d 14 4a          	lea    (%rdx,%rcx,2),%rdx
    400039b7:	48 b9 e0 00 00 00 00 	movabs $0xe0,%rcx
    400039be:	00 00 00 
    400039c1:	49 8d 34 08          	lea    (%r8,%rcx,1),%rsi
    400039c5:	48 8d 14 96          	lea    (%rsi,%rdx,4),%rdx
    400039c9:	eb 0e                	jmp    400039d9 <_ZN9CCounters13DefineCounterEi.part.0+0x59>
    400039cb:	0f 1f 44 00 00       	nopl   0x0(%rax,%rax,1)
    400039d0:	48 83 c6 2c          	add    $0x2c,%rsi
    400039d4:	48 39 d6             	cmp    %rdx,%rsi
    400039d7:	74 27                	je     40003a00 <_ZN9CCounters13DefineCounterEi.part.0+0x80>
    400039d9:	39 06                	cmp    %eax,(%rsi)
    400039db:	75 f3                	jne    400039d0 <_ZN9CCounters13DefineCounterEi.part.0+0x50>
    400039dd:	8b 4e 04             	mov    0x4(%rsi),%ecx
    400039e0:	85 4f 58             	test   %ecx,0x58(%rdi)
    400039e3:	74 eb                	je     400039d0 <_ZN9CCounters13DefineCounterEi.part.0+0x50>
    400039e5:	8b 4e 08             	mov    0x8(%rsi),%ecx
    400039e8:	85 4f 54             	test   %ecx,0x54(%rdi)
    400039eb:	74 e3                	je     400039d0 <_ZN9CCounters13DefineCounterEi.part.0+0x50>
    400039ed:	48 b8 80 a8 ff ff ff 	movabs $0xffffffffffffa880,%rax
    400039f4:	ff ff ff 
    400039f7:	4c 01 c0             	add    %r8,%rax
    400039fa:	ff e0                	jmp    *%rax
    400039fc:	0f 1f 40 00          	nopl   0x0(%rax)
    40003a00:	48 b8 30 d1 ff ff ff 	movabs $0xffffffffffffd130,%rax
    40003a07:	ff ff ff 
    40003a0a:	4c 01 c0             	add    %r8,%rax
    40003a0d:	c3                   	ret    
    40003a0e:	66 90                	xchg   %ax,%ax

0000000040003a10 <_ZN9CCounters13DefineCounterEi>:
    40003a10:	f3 0f 1e fa          	endbr64 
    40003a14:	f3 0f 1e fa          	endbr64 
    40003a18:	48 8d 05 f5 ff ff ff 	lea    -0xb(%rip),%rax        # 40003a14 <_ZN9CCounters13DefineCounterEi+0x4>
    40003a1f:	49 bb ec 45 00 00 00 	movabs $0x45ec,%r11
    40003a26:	00 00 00 
    40003a29:	4c 01 d8             	add    %r11,%rax
    40003a2c:	85 f6                	test   %esi,%esi
    40003a2e:	74 10                	je     40003a40 <_ZN9CCounters13DefineCounterEi+0x30>
    40003a30:	48 ba 80 b9 ff ff ff 	movabs $0xffffffffffffb980,%rdx
    40003a37:	ff ff ff 
    40003a3a:	48 01 d0             	add    %rdx,%rax
    40003a3d:	ff e0                	jmp    *%rax
    40003a3f:	90                   	nop
    40003a40:	31 c0                	xor    %eax,%eax
    40003a42:	c3                   	ret    
    40003a43:	90                   	nop
    40003a44:	66 66 2e 0f 1f 84 00 	data16 cs nopw 0x0(%rax,%rax,1)
    40003a4b:	00 00 00 00 
    40003a4f:	90                   	nop

0000000040003a50 <_ZN9CCounters13QueueCountersEv>:
    40003a50:	f3 0f 1e fa          	endbr64 
    40003a54:	f3 0f 1e fa          	endbr64 
    40003a58:	49 bb ac 45 00 00 00 	movabs $0x45ac,%r11
    40003a5f:	00 00 00 
    40003a62:	41 57                	push   %r15
    40003a64:	4c 8d 3d e9 ff ff ff 	lea    -0x17(%rip),%r15        # 40003a54 <_ZN9CCounters13QueueCountersEv+0x4>
    40003a6b:	31 d2                	xor    %edx,%edx
    40003a6d:	48 b8 e0 00 00 00 00 	movabs $0xe0,%rax
    40003a74:	00 00 00 
    40003a77:	41 56                	push   %r14
    40003a79:	4d 01 df             	add    %r11,%r15
    40003a7c:	41 55                	push   %r13
    40003a7e:	4c 01 f8             	add    %r15,%rax
    40003a81:	41 54                	push   %r12
    40003a83:	49 89 fc             	mov    %rdi,%r12
    40003a86:	55                   	push   %rbp
    40003a87:	53                   	push   %rbx
    40003a88:	48 83 ec 18          	sub    $0x18,%rsp
    40003a8c:	eb 09                	jmp    40003a97 <_ZN9CCounters13QueueCountersEv+0x47>
    40003a8e:	66 90                	xchg   %ax,%ax
    40003a90:	83 c2 01             	add    $0x1,%edx
    40003a93:	48 83 c0 2c          	add    $0x2c,%rax
    40003a97:	8b 48 08             	mov    0x8(%rax),%ecx
    40003a9a:	85 c9                	test   %ecx,%ecx
    40003a9c:	75 f2                	jne    40003a90 <_ZN9CCounters13QueueCountersEv+0x40>
    40003a9e:	8b 28                	mov    (%rax),%ebp
    40003aa0:	85 ed                	test   %ebp,%ebp
    40003aa2:	75 ec                	jne    40003a90 <_ZN9CCounters13QueueCountersEv+0x40>
    40003aa4:	48 b8 40 a5 ff ff ff 	movabs $0xffffffffffffa540,%rax
    40003aab:	ff ff ff 
    40003aae:	41 89 94 24 60 0c 01 	mov    %edx,0x10c60(%r12)
    40003ab5:	00 
    40003ab6:	4c 89 e7             	mov    %r12,%rdi
    40003ab9:	4c 01 f8             	add    %r15,%rax
    40003abc:	ff d0                	call   *%rax
    40003abe:	89 e8                	mov    %ebp,%eax
    40003ac0:	89 e9                	mov    %ebp,%ecx
    40003ac2:	41 c7 44 24 54 00 00 	movl   $0x0,0x54(%r12)
    40003ac9:	00 00 
    40003acb:	0f a2                	cpuid  
    40003acd:	85 c0                	test   %eax,%eax
    40003acf:	74 12                	je     40003ae3 <_ZN9CCounters13QueueCountersEv+0x93>
    40003ad1:	48 b8 00 97 ff ff ff 	movabs $0xffffffffffff9700,%rax
    40003ad8:	ff ff ff 
    40003adb:	4c 89 e7             	mov    %r12,%rdi
    40003ade:	4c 01 f8             	add    %r15,%rax
    40003ae1:	ff d0                	call   *%rax
    40003ae3:	48 b8 40 a6 ff ff ff 	movabs $0xffffffffffffa640,%rax
    40003aea:	ff ff ff 
    40003aed:	4c 89 e7             	mov    %r12,%rdi
    40003af0:	4c 01 f8             	add    %r15,%rax
    40003af3:	ff d0                	call   *%rax
    40003af5:	48 b8 a0 ff ff ff ff 	movabs $0xffffffffffffffa0,%rax
    40003afc:	ff ff ff 
    40003aff:	49 8b 04 07          	mov    (%r15,%rax,1),%rax
    40003b03:	8b 10                	mov    (%rax),%edx
    40003b05:	85 d2                	test   %edx,%edx
    40003b07:	0f 84 a7 00 00 00    	je     40003bb4 <_ZN9CCounters13QueueCountersEv+0x164>
    40003b0d:	48 bb c0 ff ff ff ff 	movabs $0xffffffffffffffc0,%rbx
    40003b14:	ff ff ff 
    40003b17:	4a 8b 04 3b          	mov    (%rbx,%r15,1),%rax
    40003b1b:	8b 00                	mov    (%rax),%eax
    40003b1d:	85 c0                	test   %eax,%eax
    40003b1f:	0f 8e 84 00 00 00    	jle    40003ba9 <_ZN9CCounters13QueueCountersEv+0x159>
    40003b25:	48 b8 b8 ff ff ff ff 	movabs $0xffffffffffffffb8,%rax
    40003b2c:	ff ff ff 
    40003b2f:	45 31 f6             	xor    %r14d,%r14d
    40003b32:	4d 8b 2c 07          	mov    (%r15,%rax,1),%r13
    40003b36:	48 b8 80 b9 ff ff ff 	movabs $0xffffffffffffb980,%rax
    40003b3d:	ff ff ff 
    40003b40:	4c 01 f8             	add    %r15,%rax
    40003b43:	48 89 04 24          	mov    %rax,(%rsp)
    40003b47:	48 b8 ab d2 ff ff ff 	movabs $0xffffffffffffd2ab,%rax
    40003b4e:	ff ff ff 
    40003b51:	4c 01 f8             	add    %r15,%rax
    40003b54:	48 89 44 24 08       	mov    %rax,0x8(%rsp)
    40003b59:	0f 1f 80 00 00 00 00 	nopl   0x0(%rax)
    40003b60:	41 8b 75 00          	mov    0x0(%r13),%esi
    40003b64:	41 83 c6 01          	add    $0x1,%r14d
    40003b68:	85 f6                	test   %esi,%esi
    40003b6a:	74 30                	je     40003b9c <_ZN9CCounters13QueueCountersEv+0x14c>
    40003b6c:	48 8b 04 24          	mov    (%rsp),%rax
    40003b70:	4c 89 e7             	mov    %r12,%rdi
    40003b73:	ff d0                	call   *%rax
    40003b75:	48 89 c1             	mov    %rax,%rcx
    40003b78:	48 85 c0             	test   %rax,%rax
    40003b7b:	74 1f                	je     40003b9c <_ZN9CCounters13QueueCountersEv+0x14c>
    40003b7d:	48 8b 74 24 08       	mov    0x8(%rsp),%rsi
    40003b82:	44 89 f2             	mov    %r14d,%edx
    40003b85:	bf 01 00 00 00       	mov    $0x1,%edi
    40003b8a:	31 c0                	xor    %eax,%eax
    40003b8c:	49 b9 30 90 3f c0 ff 	movabs $0xffffffffc03f9030,%r9
    40003b93:	ff ff ff 
    40003b96:	4d 01 f9             	add    %r15,%r9
    40003b99:	41 ff d1             	call   *%r9
    40003b9c:	4a 8b 04 3b          	mov    (%rbx,%r15,1),%rax
    40003ba0:	49 83 c5 04          	add    $0x4,%r13
    40003ba4:	44 39 30             	cmp    %r14d,(%rax)
    40003ba7:	7f b7                	jg     40003b60 <_ZN9CCounters13QueueCountersEv+0x110>
    40003ba9:	41 81 7c 24 58 00 20 	cmpl   $0x2000,0x58(%r12)
    40003bb0:	00 00 
    40003bb2:	74 0f                	je     40003bc3 <_ZN9CCounters13QueueCountersEv+0x173>
    40003bb4:	48 83 c4 18          	add    $0x18,%rsp
    40003bb8:	5b                   	pop    %rbx
    40003bb9:	5d                   	pop    %rbp
    40003bba:	41 5c                	pop    %r12
    40003bbc:	41 5d                	pop    %r13
    40003bbe:	41 5e                	pop    %r14
    40003bc0:	41 5f                	pop    %r15
    40003bc2:	c3                   	ret    
    40003bc3:	48 b8 98 ff ff ff ff 	movabs $0xffffffffffffff98,%rax
    40003bca:	ff ff ff 
    40003bcd:	49 8b 04 07          	mov    (%r15,%rax,1),%rax
    40003bd1:	44 8b 00             	mov    (%rax),%r8d
    40003bd4:	45 85 c0             	test   %r8d,%r8d
    40003bd7:	7e db                	jle    40003bb4 <_ZN9CCounters13QueueCountersEv+0x164>
    40003bd9:	41 8b bc 24 70 0c 01 	mov    0x10c70(%r12),%edi
    40003be0:	00 
    40003be1:	41 8b b4 24 74 0c 01 	mov    0x10c74(%r12),%esi
    40003be8:	00 
    40003be9:	49 8d 8c 24 70 02 00 	lea    0x270(%r12),%rcx
    40003bf0:	00 
    40003bf1:	0f 1f 80 00 00 00 00 	nopl   0x0(%rax)
    40003bf8:	44 8b 09             	mov    (%rcx),%r9d
    40003bfb:	41 83 f9 1f          	cmp    $0x1f,%r9d
    40003bff:	7f 5f                	jg     40003c60 <_ZN9CCounters13QueueCountersEv+0x210>
    40003c01:	48 63 c5             	movslq %ebp,%rax
    40003c04:	49 63 d1             	movslq %r9d,%rdx
    40003c07:	4c 69 d0 18 02 00 00 	imul   $0x218,%rax,%r10
    40003c0e:	48 c1 e2 04          	shl    $0x4,%rdx
    40003c12:	4c 01 d2             	add    %r10,%rdx
    40003c15:	4c 01 e2             	add    %r12,%rdx
    40003c18:	c7 42 60 02 00 00 00 	movl   $0x2,0x60(%rdx)
    40003c1f:	89 7a 64             	mov    %edi,0x64(%rdx)
    40003c22:	89 6a 68             	mov    %ebp,0x68(%rdx)
    40003c25:	c7 42 6c 00 00 00 00 	movl   $0x0,0x6c(%rdx)
    40003c2c:	41 8d 51 01          	lea    0x1(%r9),%edx
    40003c30:	89 11                	mov    %edx,(%rcx)
    40003c32:	83 fa 20             	cmp    $0x20,%edx
    40003c35:	74 29                	je     40003c60 <_ZN9CCounters13QueueCountersEv+0x210>
    40003c37:	48 63 c2             	movslq %edx,%rax
    40003c3a:	41 83 c1 02          	add    $0x2,%r9d
    40003c3e:	48 c1 e0 04          	shl    $0x4,%rax
    40003c42:	4a 8d 04 10          	lea    (%rax,%r10,1),%rax
    40003c46:	4c 01 e0             	add    %r12,%rax
    40003c49:	c7 40 60 02 00 00 00 	movl   $0x2,0x60(%rax)
    40003c50:	89 70 64             	mov    %esi,0x64(%rax)
    40003c53:	89 68 68             	mov    %ebp,0x68(%rax)
    40003c56:	c7 40 6c 00 00 00 00 	movl   $0x0,0x6c(%rax)
    40003c5d:	44 89 09             	mov    %r9d,(%rcx)
    40003c60:	44 8b 89 00 86 00 00 	mov    0x8600(%rcx),%r9d
    40003c67:	41 83 f9 1f          	cmp    $0x1f,%r9d
    40003c6b:	7f 7f                	jg     40003cec <_ZN9CCounters13QueueCountersEv+0x29c>
    40003c6d:	48 63 c5             	movslq %ebp,%rax
    40003c70:	49 63 d1             	movslq %r9d,%rdx
    40003c73:	4c 69 d0 18 02 00 00 	imul   $0x218,%rax,%r10
    40003c7a:	48 c1 e2 04          	shl    $0x4,%rdx
    40003c7e:	4c 01 d2             	add    %r10,%rdx
    40003c81:	4c 01 e2             	add    %r12,%rdx
    40003c84:	c7 82 60 86 00 00 02 	movl   $0x2,0x8660(%rdx)
    40003c8b:	00 00 00 
    40003c8e:	89 ba 64 86 00 00    	mov    %edi,0x8664(%rdx)
    40003c94:	89 aa 68 86 00 00    	mov    %ebp,0x8668(%rdx)
    40003c9a:	c7 82 6c 86 00 00 00 	movl   $0x0,0x866c(%rdx)
    40003ca1:	00 00 00 
    40003ca4:	41 8d 51 01          	lea    0x1(%r9),%edx
    40003ca8:	89 91 00 86 00 00    	mov    %edx,0x8600(%rcx)
    40003cae:	83 fa 20             	cmp    $0x20,%edx
    40003cb1:	74 39                	je     40003cec <_ZN9CCounters13QueueCountersEv+0x29c>
    40003cb3:	48 63 c2             	movslq %edx,%rax
    40003cb6:	41 83 c1 02          	add    $0x2,%r9d
    40003cba:	48 c1 e0 04          	shl    $0x4,%rax
    40003cbe:	4a 8d 04 10          	lea    (%rax,%r10,1),%rax
    40003cc2:	4c 01 e0             	add    %r12,%rax
    40003cc5:	c7 80 60 86 00 00 02 	movl   $0x2,0x8660(%rax)
    40003ccc:	00 00 00 
    40003ccf:	89 b0 64 86 00 00    	mov    %esi,0x8664(%rax)
    40003cd5:	89 a8 68 86 00 00    	mov    %ebp,0x8668(%rax)
    40003cdb:	c7 80 6c 86 00 00 00 	movl   $0x0,0x866c(%rax)
    40003ce2:	00 00 00 
    40003ce5:	44 89 89 00 86 00 00 	mov    %r9d,0x8600(%rcx)
    40003cec:	83 c5 01             	add    $0x1,%ebp
    40003cef:	48 81 c1 18 02 00 00 	add    $0x218,%rcx
    40003cf6:	41 39 e8             	cmp    %ebp,%r8d
    40003cf9:	0f 85 f9 fe ff ff    	jne    40003bf8 <_ZN9CCounters13QueueCountersEv+0x1a8>
    40003cff:	48 83 c4 18          	add    $0x18,%rsp
    40003d03:	5b                   	pop    %rbx
    40003d04:	5d                   	pop    %rbp
    40003d05:	41 5c                	pop    %r12
    40003d07:	41 5d                	pop    %r13
    40003d09:	41 5e                	pop    %r14
    40003d0b:	41 5f                	pop    %r15
    40003d0d:	c3                   	ret    
    40003d0e:	66 90                	xchg   %ax,%ax

0000000040003d10 <_Z11setcountersiPPc>:
    40003d10:	f3 0f 1e fa          	endbr64 
    40003d14:	f3 0f 1e fa          	endbr64 
    40003d18:	49 bb ec 42 00 00 00 	movabs $0x42ec,%r11
    40003d1f:	00 00 00 
    40003d22:	41 57                	push   %r15
    40003d24:	4c 8d 3d e9 ff ff ff 	lea    -0x17(%rip),%r15        # 40003d14 <_Z11setcountersiPPc+0x4>
    40003d2b:	41 56                	push   %r14
    40003d2d:	4d 01 df             	add    %r11,%r15
    40003d30:	41 55                	push   %r13
    40003d32:	41 54                	push   %r12
    40003d34:	41 89 fc             	mov    %edi,%r12d
    40003d37:	55                   	push   %rbp
    40003d38:	48 89 f5             	mov    %rsi,%rbp
    40003d3b:	53                   	push   %rbx
    40003d3c:	48 bb 40 90 3f c0 ff 	movabs $0xffffffffc03f9040,%rbx
    40003d43:	ff ff ff 
    40003d46:	4c 01 fb             	add    %r15,%rbx
    40003d49:	48 81 ec 58 01 00 00 	sub    $0x158,%rsp
    40003d50:	4c 8b 6e 08          	mov    0x8(%rsi),%r13
    40003d54:	64 48 8b 04 25 28 00 	mov    %fs:0x28,%rax
    40003d5b:	00 00 
    40003d5d:	48 89 84 24 48 01 00 	mov    %rax,0x148(%rsp)
    40003d64:	00 
    40003d65:	31 c0                	xor    %eax,%eax
    40003d67:	48 b8 c8 d2 ff ff ff 	movabs $0xffffffffffffd2c8,%rax
    40003d6e:	ff ff ff 
    40003d71:	49 8d 34 07          	lea    (%r15,%rax,1),%rsi
    40003d75:	4c 89 ef             	mov    %r13,%rdi
    40003d78:	ff d3                	call   *%rbx
    40003d7a:	c7 44 24 30 01 00 00 	movl   $0x1,0x30(%rsp)
    40003d81:	00 
    40003d82:	48 85 c0             	test   %rax,%rax
    40003d85:	0f 84 b9 03 00 00    	je     40004144 <_Z11setcountersiPPc+0x434>
    40003d8b:	41 83 fc 02          	cmp    $0x2,%r12d
    40003d8f:	0f 8f fd 02 00 00    	jg     40004092 <_Z11setcountersiPPc+0x382>
    40003d95:	48 8d 54 24 40       	lea    0x40(%rsp),%rdx
    40003d9a:	31 c0                	xor    %eax,%eax
    40003d9c:	b9 10 00 00 00       	mov    $0x10,%ecx
    40003da1:	be 80 00 00 00       	mov    $0x80,%esi
    40003da6:	48 89 d7             	mov    %rdx,%rdi
    40003da9:	f3 48 ab             	rep stos %rax,%es:(%rdi)
    40003dac:	31 ff                	xor    %edi,%edi
    40003dae:	48 b8 10 91 3f c0 ff 	movabs $0xffffffffc03f9110,%rax
    40003db5:	ff ff ff 
    40003db8:	4c 01 f8             	add    %r15,%rax
    40003dbb:	ff d0                	call   *%rax
    40003dbd:	85 c0                	test   %eax,%eax
    40003dbf:	0f 85 55 03 00 00    	jne    4000411a <_Z11setcountersiPPc+0x40a>
    40003dc5:	49 bd 98 ff ff ff ff 	movabs $0xffffffffffffff98,%r13
    40003dcc:	ff ff ff 
    40003dcf:	48 8b 74 24 40       	mov    0x40(%rsp),%rsi
    40003dd4:	45 31 e4             	xor    %r12d,%r12d
    40003dd7:	48 bb 20 60 81 00 00 	movabs $0x816020,%rbx
    40003dde:	00 00 00 
    40003de1:	4b 8b 44 3d 00       	mov    0x0(%r13,%r15,1),%rax
    40003de6:	4a 8d 0c 3b          	lea    (%rbx,%r15,1),%rcx
    40003dea:	c7 00 40 00 00 00    	movl   $0x40,(%rax)
    40003df0:	31 c0                	xor    %eax,%eax
    40003df2:	eb 15                	jmp    40003e09 <_Z11setcountersiPPc+0xf9>
    40003df4:	0f 1f 40 00          	nopl   0x0(%rax)
    40003df8:	89 14 81             	mov    %edx,(%rcx,%rax,4)
    40003dfb:	48 83 c0 01          	add    $0x1,%rax
    40003dff:	41 83 c4 01          	add    $0x1,%r12d
    40003e03:	48 83 f8 40          	cmp    $0x40,%rax
    40003e07:	74 1a                	je     40003e23 <_Z11setcountersiPPc+0x113>
    40003e09:	48 0f a3 c6          	bt     %rax,%rsi
    40003e0d:	89 c2                	mov    %eax,%edx
    40003e0f:	72 e7                	jb     40003df8 <_Z11setcountersiPPc+0xe8>
    40003e11:	ba ff ff ff ff       	mov    $0xffffffff,%edx
    40003e16:	89 14 81             	mov    %edx,(%rcx,%rax,4)
    40003e19:	48 83 c0 01          	add    $0x1,%rax
    40003e1d:	48 83 f8 40          	cmp    $0x40,%rax
    40003e21:	75 e6                	jne    40003e09 <_Z11setcountersiPPc+0xf9>
    40003e23:	49 be 60 53 80 00 00 	movabs $0x805360,%r14
    40003e2a:	00 00 00 
    40003e2d:	48 b8 f0 9d ff ff ff 	movabs $0xffffffffffff9df0,%rax
    40003e34:	ff ff ff 
    40003e37:	4b 8d 3c 3e          	lea    (%r14,%r15,1),%rdi
    40003e3b:	4c 89 74 24 18       	mov    %r14,0x18(%rsp)
    40003e40:	4c 01 f8             	add    %r15,%rax
    40003e43:	ff d0                	call   *%rax
    40003e45:	4b 8d 3c 3e          	lea    (%r14,%r15,1),%rdi
    40003e49:	48 b8 50 ba ff ff ff 	movabs $0xffffffffffffba50,%rax
    40003e50:	ff ff ff 
    40003e53:	49 be a0 ff ff ff ff 	movabs $0xffffffffffffffa0,%r14
    40003e5a:	ff ff ff 
    40003e5d:	4c 01 f8             	add    %r15,%rax
    40003e60:	ff d0                	call   *%rax
    40003e62:	4b 8b 04 3e          	mov    (%r14,%r15,1),%rax
    40003e66:	8b 08                	mov    (%rax),%ecx
    40003e68:	85 c9                	test   %ecx,%ecx
    40003e6a:	0f 85 85 02 00 00    	jne    400040f5 <_Z11setcountersiPPc+0x3e5>
    40003e70:	48 bf 30 90 3f c0 ff 	movabs $0xffffffffc03f9030,%rdi
    40003e77:	ff ff ff 
    40003e7a:	4b 8b 44 3d 00       	mov    0x0(%r13,%r15,1),%rax
    40003e7f:	48 89 7c 24 10       	mov    %rdi,0x10(%rsp)
    40003e84:	8b 10                	mov    (%rax),%edx
    40003e86:	85 d2                	test   %edx,%edx
    40003e88:	0f 8e 1f 01 00 00    	jle    40003fad <_Z11setcountersiPPc+0x29d>
    40003e8e:	48 b8 90 96 ff ff ff 	movabs $0xffffffffffff9690,%rax
    40003e95:	ff ff ff 
    40003e98:	44 89 64 24 34       	mov    %r12d,0x34(%rsp)
    40003e9d:	31 ed                	xor    %ebp,%ebp
    40003e9f:	48 89 44 24 20       	mov    %rax,0x20(%rsp)
    40003ea4:	48 b8 50 99 ff ff ff 	movabs $0xffffffffffff9950,%rax
    40003eab:	ff ff ff 
    40003eae:	4c 01 f8             	add    %r15,%rax
    40003eb1:	48 89 44 24 38       	mov    %rax,0x38(%rsp)
    40003eb6:	48 b8 70 d0 ff ff ff 	movabs $0xffffffffffffd070,%rax
    40003ebd:	ff ff ff 
    40003ec0:	48 89 44 24 28       	mov    %rax,0x28(%rsp)
    40003ec5:	eb 1a                	jmp    40003ee1 <_Z11setcountersiPPc+0x1d1>
    40003ec7:	66 0f 1f 84 00 00 00 	nopw   0x0(%rax,%rax,1)
    40003ece:	00 00 
    40003ed0:	4b 8b 44 3d 00       	mov    0x0(%r13,%r15,1),%rax
    40003ed5:	48 83 c5 01          	add    $0x1,%rbp
    40003ed9:	39 28                	cmp    %ebp,(%rax)
    40003edb:	0f 8e c7 00 00 00    	jle    40003fa8 <_Z11setcountersiPPc+0x298>
    40003ee1:	4a 8d 04 3b          	lea    (%rbx,%r15,1),%rax
    40003ee5:	41 89 ec             	mov    %ebp,%r12d
    40003ee8:	44 8b 0c a8          	mov    (%rax,%rbp,4),%r9d
    40003eec:	45 85 c9             	test   %r9d,%r9d
    40003eef:	78 df                	js     40003ed0 <_Z11setcountersiPPc+0x1c0>
    40003ef1:	48 8d 94 24 c0 00 00 	lea    0xc0(%rsp),%rdx
    40003ef8:	00 
    40003ef9:	b9 10 00 00 00       	mov    $0x10,%ecx
    40003efe:	31 c0                	xor    %eax,%eax
    40003f00:	48 89 d7             	mov    %rdx,%rdi
    40003f03:	f3 48 ab             	rep stos %rax,%es:(%rdi)
    40003f06:	41 81 f9 ff 03 00 00 	cmp    $0x3ff,%r9d
    40003f0d:	7f 16                	jg     40003f25 <_Z11setcountersiPPc+0x215>
    40003f0f:	49 63 c1             	movslq %r9d,%rax
    40003f12:	be 01 00 00 00       	mov    $0x1,%esi
    40003f17:	44 89 c9             	mov    %r9d,%ecx
    40003f1a:	48 c1 e8 06          	shr    $0x6,%rax
    40003f1e:	48 d3 e6             	shl    %cl,%rsi
    40003f21:	48 09 34 c2          	or     %rsi,(%rdx,%rax,8)
    40003f25:	48 b8 b0 90 3f c0 ff 	movabs $0xffffffffc03f90b0,%rax
    40003f2c:	ff ff ff 
    40003f2f:	44 89 0c 24          	mov    %r9d,(%rsp)
    40003f33:	48 89 54 24 08       	mov    %rdx,0x8(%rsp)
    40003f38:	4c 01 f8             	add    %r15,%rax
    40003f3b:	ff d0                	call   *%rax
    40003f3d:	48 8b 54 24 08       	mov    0x8(%rsp),%rdx
    40003f42:	be 80 00 00 00       	mov    $0x80,%esi
    40003f47:	89 c7                	mov    %eax,%edi
    40003f49:	48 b8 90 90 3f c0 ff 	movabs $0xffffffffc03f9090,%rax
    40003f50:	ff ff ff 
    40003f53:	4c 01 f8             	add    %r15,%rax
    40003f56:	ff d0                	call   *%rax
    40003f58:	44 8b 0c 24          	mov    (%rsp),%r9d
    40003f5c:	85 c0                	test   %eax,%eax
    40003f5e:	0f 85 0c 01 00 00    	jne    40004070 <_Z11setcountersiPPc+0x360>
    40003f64:	4b 8b 04 3e          	mov    (%r14,%r15,1),%rax
    40003f68:	83 7c 24 30 01       	cmpl   $0x1,0x30(%rsp)
    40003f6d:	8b 00                	mov    (%rax),%eax
    40003f6f:	0f 84 d3 00 00 00    	je     40004048 <_Z11setcountersiPPc+0x338>
    40003f75:	85 c0                	test   %eax,%eax
    40003f77:	0f 84 53 ff ff ff    	je     40003ed0 <_Z11setcountersiPPc+0x1c0>
    40003f7d:	48 8b 44 24 18       	mov    0x18(%rsp),%rax
    40003f82:	44 89 e6             	mov    %r12d,%esi
    40003f85:	48 83 c5 01          	add    $0x1,%rbp
    40003f89:	4a 8d 3c 38          	lea    (%rax,%r15,1),%rdi
    40003f8d:	48 8b 44 24 20       	mov    0x20(%rsp),%rax
    40003f92:	4c 01 f8             	add    %r15,%rax
    40003f95:	ff d0                	call   *%rax
    40003f97:	4b 8b 44 3d 00       	mov    0x0(%r13,%r15,1),%rax
    40003f9c:	39 28                	cmp    %ebp,(%rax)
    40003f9e:	0f 8f 3d ff ff ff    	jg     40003ee1 <_Z11setcountersiPPc+0x1d1>
    40003fa4:	0f 1f 40 00          	nopl   0x0(%rax)
    40003fa8:	44 8b 64 24 34       	mov    0x34(%rsp),%r12d
    40003fad:	48 8b 44 24 18       	mov    0x18(%rsp),%rax
    40003fb2:	4a 8d 3c 38          	lea    (%rax,%r15,1),%rdi
    40003fb6:	48 b8 f0 9f ff ff ff 	movabs $0xffffffffffff9ff0,%rax
    40003fbd:	ff ff ff 
    40003fc0:	4c 01 f8             	add    %r15,%rax
    40003fc3:	ff d0                	call   *%rax
    40003fc5:	83 7c 24 30 01       	cmpl   $0x1,0x30(%rsp)
    40003fca:	0f 84 c9 01 00 00    	je     40004199 <_Z11setcountersiPPc+0x489>
    40003fd0:	48 8b 6c 24 10       	mov    0x10(%rsp),%rbp
    40003fd5:	44 89 e1             	mov    %r12d,%ecx
    40003fd8:	bf 01 00 00 00       	mov    $0x1,%edi
    40003fdd:	48 b8 e0 ff ff ff ff 	movabs $0xffffffffffffffe0,%rax
    40003fe4:	ff ff ff 
    40003fe7:	49 8b 04 07          	mov    (%r15,%rax,1),%rax
    40003feb:	4c 01 fd             	add    %r15,%rbp
    40003fee:	8b 10                	mov    (%rax),%edx
    40003ff0:	48 b8 b0 d1 ff ff ff 	movabs $0xffffffffffffd1b0,%rax
    40003ff7:	ff ff ff 
    40003ffa:	49 8d 34 07          	lea    (%r15,%rax,1),%rsi
    40003ffe:	31 c0                	xor    %eax,%eax
    40004000:	ff d5                	call   *%rbp
    40004002:	48 b8 d0 90 3f c0 ff 	movabs $0xffffffffc03f90d0,%rax
    40004009:	ff ff ff 
    4000400c:	bf 0a 00 00 00       	mov    $0xa,%edi
    40004011:	4c 01 f8             	add    %r15,%rax
    40004014:	ff d0                	call   *%rax
    40004016:	31 c0                	xor    %eax,%eax
    40004018:	48 8b 9c 24 48 01 00 	mov    0x148(%rsp),%rbx
    4000401f:	00 
    40004020:	64 48 33 1c 25 28 00 	xor    %fs:0x28,%rbx
    40004027:	00 00 
    40004029:	0f 85 27 02 00 00    	jne    40004256 <_Z11setcountersiPPc+0x546>
    4000402f:	48 81 c4 58 01 00 00 	add    $0x158,%rsp
    40004036:	5b                   	pop    %rbx
    40004037:	5d                   	pop    %rbp
    40004038:	41 5c                	pop    %r12
    4000403a:	41 5d                	pop    %r13
    4000403c:	41 5e                	pop    %r14
    4000403e:	41 5f                	pop    %r15
    40004040:	c3                   	ret    
    40004041:	0f 1f 80 00 00 00 00 	nopl   0x0(%rax)
    40004048:	85 c0                	test   %eax,%eax
    4000404a:	0f 84 80 fe ff ff    	je     40003ed0 <_Z11setcountersiPPc+0x1c0>
    40004050:	48 8b 44 24 18       	mov    0x18(%rsp),%rax
    40004055:	44 89 e6             	mov    %r12d,%esi
    40004058:	4a 8d 3c 38          	lea    (%rax,%r15,1),%rdi
    4000405c:	48 8b 44 24 38       	mov    0x38(%rsp),%rax
    40004061:	ff d0                	call   *%rax
    40004063:	e9 68 fe ff ff       	jmp    40003ed0 <_Z11setcountersiPPc+0x1c0>
    40004068:	0f 1f 84 00 00 00 00 	nopl   0x0(%rax,%rax,1)
    4000406f:	00 
    40004070:	48 8b 44 24 28       	mov    0x28(%rsp),%rax
    40004075:	48 8b 4c 24 10       	mov    0x10(%rsp),%rcx
    4000407a:	44 89 ca             	mov    %r9d,%edx
    4000407d:	bf 01 00 00 00       	mov    $0x1,%edi
    40004082:	49 8d 34 07          	lea    (%r15,%rax,1),%rsi
    40004086:	4c 01 f9             	add    %r15,%rcx
    40004089:	31 c0                	xor    %eax,%eax
    4000408b:	ff d1                	call   *%rcx
    4000408d:	e9 d2 fe ff ff       	jmp    40003f64 <_Z11setcountersiPPc+0x254>
    40004092:	83 7c 24 30 02       	cmpl   $0x2,0x30(%rsp)
    40004097:	41 bd 64 00 00 00    	mov    $0x64,%r13d
    4000409d:	b8 00 00 00 00       	mov    $0x0,%eax
    400040a2:	49 be b8 ff ff ff ff 	movabs $0xffffffffffffffb8,%r14
    400040a9:	ff ff ff 
    400040ac:	44 0f 45 e8          	cmovne %eax,%r13d
    400040b0:	31 db                	xor    %ebx,%ebx
    400040b2:	eb 19                	jmp    400040cd <_Z11setcountersiPPc+0x3bd>
    400040b4:	0f 1f 40 00          	nopl   0x0(%rax)
