
./x:     file format elf64-x86-64


Disassembly of section .interp:

0000000000400698 <.interp>:
  400698:	2f                   	(bad)  
  400699:	6c                   	insb   (%dx),%es:(%rdi)
  40069a:	69 62 36 34 2f 6c 64 	imul   $0x646c2f34,0x36(%rdx),%esp
  4006a1:	2d 6c 69 6e 75       	sub    $0x756e696c,%eax
  4006a6:	78 2d                	js     4006d5 <THREADDSIZE+0x400355>
  4006a8:	78 38                	js     4006e2 <THREADDSIZE+0x400362>
  4006aa:	36 2d 36 34 2e 73    	ss sub $0x732e3436,%eax
  4006b0:	6f                   	outsl  %ds:(%rsi),(%dx)
  4006b1:	2e 32 00             	cs xor (%rax),%al

Disassembly of section .note.gnu.build-id:

00000000004006b4 <.note.gnu.build-id>:
  4006b4:	04 00                	add    $0x0,%al
  4006b6:	00 00                	add    %al,(%rax)
  4006b8:	14 00                	adc    $0x0,%al
  4006ba:	00 00                	add    %al,(%rax)
  4006bc:	03 00                	add    (%rax),%eax
  4006be:	00 00                	add    %al,(%rax)
  4006c0:	47                   	rex.RXB
  4006c1:	4e 55                	rex.WRX push %rbp
  4006c3:	00 35 7f be ff 0c    	add    %dh,0xcffbe7f(%rip)        # d3fc548 <close@plt+0xcffb418>
  4006c9:	c8 98 51 a7          	enter  $0x5198,$0xa7
  4006cd:	bb 20 b5 ed 91       	mov    $0x91edb520,%ebx
  4006d2:	c3                   	ret    
  4006d3:	c7                   	(bad)  
  4006d4:	7f b0                	jg     400686 <THREADDSIZE+0x400306>
  4006d6:	55                   	push   %rbp
  4006d7:	14                   	.byte 0x14

Disassembly of section .note.ABI-tag:

00000000004006d8 <.note.ABI-tag>:
  4006d8:	04 00                	add    $0x0,%al
  4006da:	00 00                	add    %al,(%rax)
  4006dc:	10 00                	adc    %al,(%rax)
  4006de:	00 00                	add    %al,(%rax)
  4006e0:	01 00                	add    %eax,(%rax)
  4006e2:	00 00                	add    %al,(%rax)
  4006e4:	47                   	rex.RXB
  4006e5:	4e 55                	rex.WRX push %rbp
  4006e7:	00 00                	add    %al,(%rax)
  4006e9:	00 00                	add    %al,(%rax)
  4006eb:	00 03                	add    %al,(%rbx)
  4006ed:	00 00                	add    %al,(%rax)
  4006ef:	00 02                	add    %al,(%rdx)
  4006f1:	00 00                	add    %al,(%rax)
  4006f3:	00 00                	add    %al,(%rax)
  4006f5:	00 00                	add    %al,(%rax)
	...

Disassembly of section .gnu.hash:

00000000004006f8 <.gnu.hash>:
  4006f8:	01 00                	add    %eax,(%rax)
  4006fa:	00 00                	add    %al,(%rax)
  4006fc:	01 00                	add    %eax,(%rax)
  4006fe:	00 00                	add    %al,(%rax)
  400700:	01 00                	add    %eax,(%rax)
	...

Disassembly of section .dynsym:

0000000000400718 <.dynsym>:
	...
  400730:	92                   	xchg   %eax,%edx
  400731:	00 00                	add    %al,(%rax)
  400733:	00 12                	add    %dl,(%rdx)
	...
  400745:	00 00                	add    %al,(%rax)
  400747:	00 ea                	add    %ch,%dl
  400749:	00 00                	add    %al,(%rax)
  40074b:	00 12                	add    %dl,(%rdx)
	...
  40075d:	00 00                	add    %al,(%rax)
  40075f:	00 22                	add    %ah,(%rdx)
  400761:	01 00                	add    %eax,(%rax)
  400763:	00 12                	add    %dl,(%rdx)
	...
  400775:	00 00                	add    %al,(%rax)
  400777:	00 17                	add    %dl,(%rdi)
  400779:	00 00                	add    %al,(%rax)
  40077b:	00 12                	add    %dl,(%rdx)
	...
  40078d:	00 00                	add    %al,(%rax)
  40078f:	00 24 00             	add    %ah,(%rax,%rax,1)
  400792:	00 00                	add    %al,(%rax)
  400794:	12 00                	adc    (%rax),%al
	...
  4007a6:	00 00                	add    %al,(%rax)
  4007a8:	33 00                	xor    (%rax),%eax
  4007aa:	00 00                	add    %al,(%rax)
  4007ac:	12 00                	adc    (%rax),%al
	...
  4007be:	00 00                	add    %al,(%rax)
  4007c0:	cb                   	lret   
  4007c1:	00 00                	add    %al,(%rax)
  4007c3:	00 12                	add    %dl,(%rdx)
	...
  4007d5:	00 00                	add    %al,(%rax)
  4007d7:	00 dd                	add    %bl,%ch
  4007d9:	00 00                	add    %al,(%rax)
  4007db:	00 12                	add    %dl,(%rdx)
	...
  4007ed:	00 00                	add    %al,(%rax)
  4007ef:	00 f1                	add    %dh,%cl
  4007f1:	00 00                	add    %al,(%rax)
  4007f3:	00 12                	add    %dl,(%rdx)
	...
  400805:	00 00                	add    %al,(%rax)
  400807:	00 9f 00 00 00 12    	add    %bl,0x12000000(%rdi)
	...
  40081d:	00 00                	add    %al,(%rax)
  40081f:	00 b0 00 00 00 12    	add    %dh,0x12000000(%rax)
	...
  400835:	00 00                	add    %al,(%rax)
  400837:	00 b8 00 00 00 12    	add    %bh,0x12000000(%rax)
	...
  40084d:	00 00                	add    %al,(%rax)
  40084f:	00 0a                	add    %cl,(%rdx)
  400851:	01 00                	add    %eax,(%rax)
  400853:	00 12                	add    %dl,(%rdx)
	...
  400865:	00 00                	add    %al,(%rax)
  400867:	00 bf 00 00 00 12    	add    %bh,0x12000000(%rdi)
	...
  40087d:	00 00                	add    %al,(%rax)
  40087f:	00 f8                	add    %bh,%al
  400881:	00 00                	add    %al,(%rax)
  400883:	00 12                	add    %dl,(%rdx)
	...
  400895:	00 00                	add    %al,(%rax)
  400897:	00 56 00             	add    %dl,0x0(%rsi)
  40089a:	00 00                	add    %al,(%rax)
  40089c:	12 00                	adc    (%rax),%al
	...
  4008ae:	00 00                	add    %al,(%rax)
  4008b0:	79 00                	jns    4008b2 <THREADDSIZE+0x400532>
  4008b2:	00 00                	add    %al,(%rax)
  4008b4:	12 00                	adc    (%rax),%al
	...
  4008c6:	00 00                	add    %al,(%rax)
  4008c8:	10 01                	adc    %al,(%rcx)
  4008ca:	00 00                	add    %al,(%rax)
  4008cc:	12 00                	adc    (%rax),%al
	...
  4008de:	00 00                	add    %al,(%rax)
  4008e0:	47 00 00             	rex.RXB add %r8b,(%r8)
  4008e3:	00 20                	add    %ah,(%rax)
	...
  4008f5:	00 00                	add    %al,(%rax)
  4008f7:	00 11                	add    %dl,(%rcx)
  4008f9:	00 00                	add    %al,(%rax)
  4008fb:	00 12                	add    %dl,(%rdx)
	...

Disassembly of section .dynstr:

0000000000400910 <.dynstr>:
  400910:	00 6c 69 62          	add    %ch,0x62(%rcx,%rbp,2)
  400914:	70 74                	jo     40098a <THREADDSIZE+0x40060a>
  400916:	68 72 65 61 64       	push   $0x64616572
  40091b:	2e 73 6f             	jae,pn 40098d <THREADDSIZE+0x40060d>
  40091e:	2e 30 00             	cs xor %al,(%rax)
  400921:	63 6c 6f 73          	movsxd 0x73(%rdi,%rbp,2),%ebp
  400925:	65 00 70 74          	add    %dh,%gs:0x74(%rax)
  400929:	68 72 65 61 64       	push   $0x64616572
  40092e:	5f                   	pop    %rdi
  40092f:	6a 6f                	push   $0x6f
  400931:	69 6e 00 70 74 68 72 	imul   $0x72687470,0x0(%rsi),%ebp
  400938:	65 61                	gs (bad) 
  40093a:	64 5f                	fs pop %rdi
  40093c:	63 72 65             	movsxd 0x65(%rdx),%esi
  40093f:	61                   	(bad)  
  400940:	74 65                	je     4009a7 <THREADDSIZE+0x400627>
  400942:	00 6f 70             	add    %ch,0x70(%rdi)
  400945:	65 6e                	outsb  %gs:(%rsi),(%dx)
  400947:	00 6c 69 62          	add    %ch,0x62(%rcx,%rbp,2)
  40094b:	73 74                	jae    4009c1 <THREADDSIZE+0x400641>
  40094d:	64 63 2b             	movsxd %fs:(%rbx),%ebp
  400950:	2b 2e                	sub    (%rsi),%ebp
  400952:	73 6f                	jae    4009c3 <THREADDSIZE+0x400643>
  400954:	2e 36 00 5f 5f       	cs ss add %bl,0x5f(%rdi)
  400959:	67 6d                	insl   (%dx),%es:(%edi)
  40095b:	6f                   	outsl  %ds:(%rsi),(%dx)
  40095c:	6e                   	outsb  %ds:(%rsi),(%dx)
  40095d:	5f                   	pop    %rdi
  40095e:	73 74                	jae    4009d4 <THREADDSIZE+0x400654>
  400960:	61                   	(bad)  
  400961:	72 74                	jb     4009d7 <THREADDSIZE+0x400657>
  400963:	5f                   	pop    %rdi
  400964:	5f                   	pop    %rdi
  400965:	00 5f 5f             	add    %bl,0x5f(%rdi)
  400968:	67 78 78             	addr32 js 4009e3 <THREADDSIZE+0x400663>
  40096b:	5f                   	pop    %rdi
  40096c:	70 65                	jo     4009d3 <THREADDSIZE+0x400653>
  40096e:	72 73                	jb     4009e3 <THREADDSIZE+0x400663>
  400970:	6f                   	outsl  %ds:(%rsi),(%dx)
  400971:	6e                   	outsb  %ds:(%rsi),(%dx)
  400972:	61                   	(bad)  
  400973:	6c                   	insb   (%dx),%es:(%rdi)
  400974:	69 74 79 5f 76 30 00 	imul   $0x6c003076,0x5f(%rcx,%rdi,2),%esi
  40097b:	6c 
  40097c:	69 62 67 63 63 5f 73 	imul   $0x735f6363,0x67(%rdx),%esp
  400983:	2e 73 6f             	jae,pn 4009f5 <THREADDSIZE+0x400675>
  400986:	2e 31 00             	cs xor %eax,(%rax)
  400989:	5f                   	pop    %rdi
  40098a:	55                   	push   %rbp
  40098b:	6e                   	outsb  %ds:(%rsi),(%dx)
  40098c:	77 69                	ja     4009f7 <THREADDSIZE+0x400677>
  40098e:	6e                   	outsb  %ds:(%rsi),(%dx)
  40098f:	64 5f                	fs pop %rdi
  400991:	52                   	push   %rdx
  400992:	65 73 75             	gs jae 400a0a <THREADDSIZE+0x40068a>
  400995:	6d                   	insl   (%dx),%es:(%rdi)
  400996:	65 00 6c 69 62       	add    %ch,%gs:0x62(%rcx,%rbp,2)
  40099b:	63 2e                	movsxd (%rsi),%ebp
  40099d:	73 6f                	jae    400a0e <THREADDSIZE+0x40068e>
  40099f:	2e 36 00 5f 5f       	cs ss add %bl,0x5f(%rdi)
  4009a4:	70 72                	jo     400a18 <THREADDSIZE+0x400698>
  4009a6:	69 6e 74 66 5f 63 68 	imul   $0x68635f66,0x74(%rsi),%ebp
  4009ad:	6b 00 5f             	imul   $0x5f,(%rax),%eax
  4009b0:	5f                   	pop    %rdi
  4009b1:	73 74                	jae    400a27 <THREADDSIZE+0x4006a7>
  4009b3:	61                   	(bad)  
  4009b4:	63 6b 5f             	movsxd 0x5f(%rbx),%ebp
  4009b7:	63 68 6b             	movsxd 0x6b(%rax),%ebp
  4009ba:	5f                   	pop    %rdi
  4009bb:	66 61                	data16 (bad) 
  4009bd:	69 6c 00 70 75 74 63 	imul   $0x68637475,0x70(%rax,%rax,1),%ebp
  4009c4:	68 
  4009c5:	61                   	(bad)  
  4009c6:	72 00                	jb     4009c8 <THREADDSIZE+0x400648>
  4009c8:	73 74                	jae    400a3e <THREADDSIZE+0x4006be>
  4009ca:	72 74                	jb     400a40 <THREADDSIZE+0x4006c0>
  4009cc:	6f                   	outsl  %ds:(%rsi),(%dx)
  4009cd:	6c                   	insb   (%dx),%es:(%rdi)
  4009ce:	00 73 63             	add    %dh,0x63(%rbx)
  4009d1:	68 65 64 5f 79       	push   $0x795f6465
  4009d6:	69 65 6c 64 00 73 63 	imul   $0x63730064,0x6c(%rbp),%esp
  4009dd:	68 65 64 5f 73       	push   $0x735f6465
  4009e2:	65 74 61             	gs je  400a46 <THREADDSIZE+0x4006c6>
  4009e5:	66 66 69 6e 69 74 79 	data16 imul $0x7974,0x69(%rsi),%bp
  4009ec:	00 5f 5f             	add    %bl,0x5f(%rdi)
  4009ef:	63 78 61             	movsxd 0x61(%rax),%edi
  4009f2:	5f                   	pop    %rdi
  4009f3:	61                   	(bad)  
  4009f4:	74 65                	je     400a5b <THREADDSIZE+0x4006db>
  4009f6:	78 69                	js     400a61 <THREADDSIZE+0x4006e1>
  4009f8:	74 00                	je     4009fa <THREADDSIZE+0x40067a>
  4009fa:	73 74                	jae    400a70 <THREADDSIZE+0x4006f0>
  4009fc:	72 73                	jb     400a71 <THREADDSIZE+0x4006f1>
  4009fe:	74 72                	je     400a72 <THREADDSIZE+0x4006f2>
  400a00:	00 67 65             	add    %ah,0x65(%rdi)
  400a03:	74 74                	je     400a79 <THREADDSIZE+0x4006f9>
  400a05:	69 64 00 73 63 68 65 	imul   $0x64656863,0x73(%rax,%rax,1),%esp
  400a0c:	64 
  400a0d:	5f                   	pop    %rdi
  400a0e:	67 65 74 61          	addr32 gs je 400a73 <THREADDSIZE+0x4006f3>
  400a12:	66 66 69 6e 69 74 79 	data16 imul $0x7974,0x69(%rsi),%bp
  400a19:	00 69 6f             	add    %ch,0x6f(%rcx)
  400a1c:	63 74 6c 00          	movsxd 0x0(%rsp,%rbp,2),%esi
  400a20:	5f                   	pop    %rdi
  400a21:	5f                   	pop    %rdi
  400a22:	6c                   	insb   (%dx),%es:(%rdi)
  400a23:	69 62 63 5f 73 74 61 	imul   $0x6174735f,0x63(%rdx),%esp
  400a2a:	72 74                	jb     400aa0 <THREADDSIZE+0x400720>
  400a2c:	5f                   	pop    %rdi
  400a2d:	6d                   	insl   (%dx),%es:(%rdi)
  400a2e:	61                   	(bad)  
  400a2f:	69 6e 00 73 65 74 70 	imul   $0x70746573,0x0(%rsi),%ebp
  400a36:	72 69                	jb     400aa1 <THREADDSIZE+0x400721>
  400a38:	6f                   	outsl  %ds:(%rsi),(%dx)
  400a39:	72 69                	jb     400aa4 <THREADDSIZE+0x400724>
  400a3b:	74 79                	je     400ab6 <THREADDSIZE+0x400736>
  400a3d:	00 47 43             	add    %al,0x43(%rdi)
  400a40:	43 5f                	rex.XB pop %r15
  400a42:	33 2e                	xor    (%rsi),%ebp
  400a44:	30 00                	xor    %al,(%rax)
  400a46:	43 58                	rex.XB pop %r8
  400a48:	58                   	pop    %rax
  400a49:	41                   	rex.B
  400a4a:	42                   	rex.X
  400a4b:	49 5f                	rex.WB pop %r15
  400a4d:	31 2e                	xor    %ebp,(%rsi)
  400a4f:	33 00                	xor    (%rax),%eax
  400a51:	47                   	rex.RXB
  400a52:	4c                   	rex.WR
  400a53:	49                   	rex.WB
  400a54:	42                   	rex.X
  400a55:	43 5f                	rex.XB pop %r15
  400a57:	32 2e                	xor    (%rsi),%ch
  400a59:	32 2e                	xor    (%rsi),%ch
  400a5b:	35 00 47 4c 49       	xor    $0x494c4700,%eax
  400a60:	42                   	rex.X
  400a61:	43 5f                	rex.XB pop %r15
  400a63:	32 2e                	xor    (%rsi),%ch
  400a65:	34 00                	xor    $0x0,%al
  400a67:	47                   	rex.RXB
  400a68:	4c                   	rex.WR
  400a69:	49                   	rex.WB
  400a6a:	42                   	rex.X
  400a6b:	43 5f                	rex.XB pop %r15
  400a6d:	32 2e                	xor    (%rsi),%ch
  400a6f:	33 30                	xor    (%rax),%esi
  400a71:	00 47 4c             	add    %al,0x4c(%rdi)
  400a74:	49                   	rex.WB
  400a75:	42                   	rex.X
  400a76:	43 5f                	rex.XB pop %r15
  400a78:	32 2e                	xor    (%rsi),%ch
  400a7a:	33 2e                	xor    (%rsi),%ebp
  400a7c:	34 00                	xor    $0x0,%al

Disassembly of section .gnu.version:

0000000000400a7e <.gnu.version>:
  400a7e:	00 00                	add    %al,(%rax)
  400a80:	02 00                	add    (%rax),%al
  400a82:	03 00                	add    (%rax),%eax
  400a84:	03 00                	add    (%rax),%eax
  400a86:	04 00                	add    $0x0,%al
  400a88:	04 00                	add    $0x0,%al
  400a8a:	04 00                	add    $0x0,%al
  400a8c:	02 00                	add    (%rax),%al
  400a8e:	03 00                	add    (%rax),%eax
  400a90:	05 00 06 00 03       	add    $0x3000600,%eax
  400a95:	00 03                	add    %al,(%rbx)
  400a97:	00 03                	add    %al,(%rbx)
  400a99:	00 03                	add    %al,(%rbx)
  400a9b:	00 02                	add    %al,(%rdx)
  400a9d:	00 07                	add    %al,(%rdi)
  400a9f:	00 08                	add    %cl,(%rax)
  400aa1:	00 03                	add    %al,(%rbx)
  400aa3:	00 00                	add    %al,(%rax)
  400aa5:	00 04 00             	add    %al,(%rax,%rax,1)

Disassembly of section .gnu.version_r:

0000000000400aa8 <.gnu.version_r>:
  400aa8:	01 00                	add    %eax,(%rax)
  400aaa:	01 00                	add    %eax,(%rax)
  400aac:	6b 00 00             	imul   $0x0,(%rax),%eax
  400aaf:	00 10                	add    %dl,(%rax)
  400ab1:	00 00                	add    %al,(%rax)
  400ab3:	00 20                	add    %ah,(%rax)
  400ab5:	00 00                	add    %al,(%rax)
  400ab7:	00 50 26             	add    %dl,0x26(%rax)
  400aba:	79 0b                	jns    400ac7 <THREADDSIZE+0x400747>
  400abc:	00 00                	add    %al,(%rax)
  400abe:	08 00                	or     %al,(%rax)
  400ac0:	2e 01 00             	cs add %eax,(%rax)
  400ac3:	00 00                	add    %al,(%rax)
  400ac5:	00 00                	add    %al,(%rax)
  400ac7:	00 01                	add    %al,(%rcx)
  400ac9:	00 01                	add    %al,(%rcx)
  400acb:	00 38                	add    %bh,(%rax)
  400acd:	00 00                	add    %al,(%rax)
  400acf:	00 10                	add    %dl,(%rax)
  400ad1:	00 00                	add    %al,(%rax)
  400ad3:	00 20                	add    %ah,(%rax)
  400ad5:	00 00                	add    %al,(%rax)
  400ad7:	00 d3                	add    %dl,%bl
  400ad9:	af                   	scas   %es:(%rdi),%eax
  400ada:	6b 05 00 00 07 00 36 	imul   $0x36,0x70000(%rip),%eax        # 470ae1 <close@plt+0x6f9b1>
  400ae1:	01 00                	add    %eax,(%rax)
  400ae3:	00 00                	add    %al,(%rax)
  400ae5:	00 00                	add    %al,(%rax)
  400ae7:	00 01                	add    %al,(%rcx)
  400ae9:	00 01                	add    %al,(%rcx)
  400aeb:	00 01                	add    %al,(%rcx)
  400aed:	00 00                	add    %al,(%rax)
  400aef:	00 10                	add    %dl,(%rax)
  400af1:	00 00                	add    %al,(%rax)
  400af3:	00 20                	add    %ah,(%rax)
  400af5:	00 00                	add    %al,(%rax)
  400af7:	00 75 1a             	add    %dh,0x1a(%rbp)
  400afa:	69 09 00 00 04 00    	imul   $0x40000,(%rcx),%ecx
  400b00:	41 01 00             	add    %eax,(%r8)
  400b03:	00 00                	add    %al,(%rax)
  400b05:	00 00                	add    %al,(%rax)
  400b07:	00 01                	add    %al,(%rcx)
  400b09:	00 04 00             	add    %al,(%rax,%rax,1)
  400b0c:	88 00                	mov    %al,(%rax)
  400b0e:	00 00                	add    %al,(%rax)
  400b10:	10 00                	adc    %al,(%rax)
  400b12:	00 00                	add    %al,(%rax)
  400b14:	00 00                	add    %al,(%rax)
  400b16:	00 00                	add    %al,(%rax)
  400b18:	14 69                	adc    $0x69,%al
  400b1a:	69 0d 00 00 06 00 4d 	imul   $0x14d,0x60000(%rip),%ecx        # 460b24 <close@plt+0x5f9f4>
  400b21:	01 00 00 
  400b24:	10 00                	adc    %al,(%rax)
  400b26:	00 00                	add    %al,(%rax)
  400b28:	b0 91                	mov    $0x91,%al
  400b2a:	96                   	xchg   %eax,%esi
  400b2b:	06                   	(bad)  
  400b2c:	00 00                	add    %al,(%rax)
  400b2e:	05 00 57 01 00       	add    $0x15700,%eax
  400b33:	00 10                	add    %dl,(%rax)
  400b35:	00 00                	add    %al,(%rax)
  400b37:	00 75 1a             	add    %dh,0x1a(%rbp)
  400b3a:	69 09 00 00 03 00    	imul   $0x30000,(%rcx),%ecx
  400b40:	41 01 00             	add    %eax,(%r8)
  400b43:	00 10                	add    %dl,(%rax)
  400b45:	00 00                	add    %al,(%rax)
  400b47:	00 74 19 69          	add    %dh,0x69(%rcx,%rbx,1)
  400b4b:	09 00                	or     %eax,(%rax)
  400b4d:	00 02                	add    %al,(%rdx)
  400b4f:	00 62 01             	add    %ah,0x1(%rdx)
  400b52:	00 00                	add    %al,(%rax)
  400b54:	00 00                	add    %al,(%rax)
	...

Disassembly of section .rela.dyn:

0000000000400b58 <.rela.dyn>:
  400b58:	e8 7f 00 40 00       	call   800bdc <close@plt+0x3ffaac>
  400b5d:	00 00                	add    %al,(%rax)
  400b5f:	00 06                	add    %al,(%rsi)
  400b61:	00 00                	add    %al,(%rax)
  400b63:	00 12                	add    %dl,(%rdx)
	...
  400b6d:	00 00                	add    %al,(%rax)
  400b6f:	00 f8                	add    %bh,%al
  400b71:	7f 00                	jg     400b73 <THREADDSIZE+0x4007f3>
  400b73:	40 00 00             	rex add %al,(%rax)
  400b76:	00 00                	add    %al,(%rax)
  400b78:	06                   	(bad)  
  400b79:	00 00                	add    %al,(%rax)
  400b7b:	00 13                	add    %dl,(%rbx)
	...
  400b85:	00 00                	add    %al,(%rax)
  400b87:	00 68 ce             	add    %ch,-0x32(%rax)
  400b8a:	00 40 00             	add    %al,0x0(%rax)
  400b8d:	00 00                	add    %al,(%rax)
  400b8f:	00 01                	add    %al,(%rcx)
  400b91:	00 00                	add    %al,(%rax)
  400b93:	00 10                	add    %dl,(%rax)
	...

Disassembly of section .rela.plt:

0000000000400ba0 <.rela.plt>:
  400ba0:	18 80 00 40 00 00    	sbb    %al,0x4000(%rax)
  400ba6:	00 00                	add    %al,(%rax)
  400ba8:	07                   	(bad)  
  400ba9:	00 00                	add    %al,(%rax)
  400bab:	00 01                	add    %al,(%rcx)
	...
  400bb5:	00 00                	add    %al,(%rax)
  400bb7:	00 20                	add    %ah,(%rax)
  400bb9:	80 00 40             	addb   $0x40,(%rax)
  400bbc:	00 00                	add    %al,(%rax)
  400bbe:	00 00                	add    %al,(%rax)
  400bc0:	07                   	(bad)  
  400bc1:	00 00                	add    %al,(%rax)
  400bc3:	00 02                	add    %al,(%rdx)
	...
  400bcd:	00 00                	add    %al,(%rax)
  400bcf:	00 28                	add    %ch,(%rax)
  400bd1:	80 00 40             	addb   $0x40,(%rax)
  400bd4:	00 00                	add    %al,(%rax)
  400bd6:	00 00                	add    %al,(%rax)
  400bd8:	07                   	(bad)  
  400bd9:	00 00                	add    %al,(%rax)
  400bdb:	00 03                	add    %al,(%rbx)
	...
  400be5:	00 00                	add    %al,(%rax)
  400be7:	00 30                	add    %dh,(%rax)
  400be9:	80 00 40             	addb   $0x40,(%rax)
  400bec:	00 00                	add    %al,(%rax)
  400bee:	00 00                	add    %al,(%rax)
  400bf0:	07                   	(bad)  
  400bf1:	00 00                	add    %al,(%rax)
  400bf3:	00 04 00             	add    %al,(%rax,%rax,1)
	...
  400bfe:	00 00                	add    %al,(%rax)
  400c00:	38 80 00 40 00 00    	cmp    %al,0x4000(%rax)
  400c06:	00 00                	add    %al,(%rax)
  400c08:	07                   	(bad)  
  400c09:	00 00                	add    %al,(%rax)
  400c0b:	00 05 00 00 00 00    	add    %al,0x0(%rip)        # 400c11 <THREADDSIZE+0x400891>
  400c11:	00 00                	add    %al,(%rax)
  400c13:	00 00                	add    %al,(%rax)
  400c15:	00 00                	add    %al,(%rax)
  400c17:	00 40 80             	add    %al,-0x80(%rax)
  400c1a:	00 40 00             	add    %al,0x0(%rax)
  400c1d:	00 00                	add    %al,(%rax)
  400c1f:	00 07                	add    %al,(%rdi)
  400c21:	00 00                	add    %al,(%rax)
  400c23:	00 06                	add    %al,(%rsi)
	...
  400c2d:	00 00                	add    %al,(%rax)
  400c2f:	00 48 80             	add    %cl,-0x80(%rax)
  400c32:	00 40 00             	add    %al,0x0(%rax)
  400c35:	00 00                	add    %al,(%rax)
  400c37:	00 07                	add    %al,(%rdi)
  400c39:	00 00                	add    %al,(%rax)
  400c3b:	00 07                	add    %al,(%rdi)
	...
  400c45:	00 00                	add    %al,(%rax)
  400c47:	00 50 80             	add    %dl,-0x80(%rax)
  400c4a:	00 40 00             	add    %al,0x0(%rax)
  400c4d:	00 00                	add    %al,(%rax)
  400c4f:	00 07                	add    %al,(%rdi)
  400c51:	00 00                	add    %al,(%rax)
  400c53:	00 08                	add    %cl,(%rax)
	...
  400c5d:	00 00                	add    %al,(%rax)
  400c5f:	00 58 80             	add    %bl,-0x80(%rax)
  400c62:	00 40 00             	add    %al,0x0(%rax)
  400c65:	00 00                	add    %al,(%rax)
  400c67:	00 07                	add    %al,(%rdi)
  400c69:	00 00                	add    %al,(%rax)
  400c6b:	00 09                	add    %cl,(%rcx)
	...
  400c75:	00 00                	add    %al,(%rax)
  400c77:	00 60 80             	add    %ah,-0x80(%rax)
  400c7a:	00 40 00             	add    %al,0x0(%rax)
  400c7d:	00 00                	add    %al,(%rax)
  400c7f:	00 07                	add    %al,(%rdi)
  400c81:	00 00                	add    %al,(%rax)
  400c83:	00 0a                	add    %cl,(%rdx)
	...
  400c8d:	00 00                	add    %al,(%rax)
  400c8f:	00 68 80             	add    %ch,-0x80(%rax)
  400c92:	00 40 00             	add    %al,0x0(%rax)
  400c95:	00 00                	add    %al,(%rax)
  400c97:	00 07                	add    %al,(%rdi)
  400c99:	00 00                	add    %al,(%rax)
  400c9b:	00 0b                	add    %cl,(%rbx)
	...
  400ca5:	00 00                	add    %al,(%rax)
  400ca7:	00 70 80             	add    %dh,-0x80(%rax)
  400caa:	00 40 00             	add    %al,0x0(%rax)
  400cad:	00 00                	add    %al,(%rax)
  400caf:	00 07                	add    %al,(%rdi)
  400cb1:	00 00                	add    %al,(%rax)
  400cb3:	00 0c 00             	add    %cl,(%rax,%rax,1)
	...
  400cbe:	00 00                	add    %al,(%rax)
  400cc0:	78 80                	js     400c42 <THREADDSIZE+0x4008c2>
  400cc2:	00 40 00             	add    %al,0x0(%rax)
  400cc5:	00 00                	add    %al,(%rax)
  400cc7:	00 07                	add    %al,(%rdi)
  400cc9:	00 00                	add    %al,(%rax)
  400ccb:	00 0d 00 00 00 00    	add    %cl,0x0(%rip)        # 400cd1 <THREADDSIZE+0x400951>
  400cd1:	00 00                	add    %al,(%rax)
  400cd3:	00 00                	add    %al,(%rax)
  400cd5:	00 00                	add    %al,(%rax)
  400cd7:	00 80 80 00 40 00    	add    %al,0x400080(%rax)
  400cdd:	00 00                	add    %al,(%rax)
  400cdf:	00 07                	add    %al,(%rdi)
  400ce1:	00 00                	add    %al,(%rax)
  400ce3:	00 0e                	add    %cl,(%rsi)
	...
  400ced:	00 00                	add    %al,(%rax)
  400cef:	00 88 80 00 40 00    	add    %cl,0x400080(%rax)
  400cf5:	00 00                	add    %al,(%rax)
  400cf7:	00 07                	add    %al,(%rdi)
  400cf9:	00 00                	add    %al,(%rax)
  400cfb:	00 0f                	add    %cl,(%rdi)
	...
  400d05:	00 00                	add    %al,(%rax)
  400d07:	00 90 80 00 40 00    	add    %dl,0x400080(%rax)
  400d0d:	00 00                	add    %al,(%rax)
  400d0f:	00 07                	add    %al,(%rdi)
  400d11:	00 00                	add    %al,(%rax)
  400d13:	00 11                	add    %dl,(%rcx)
	...
  400d1d:	00 00                	add    %al,(%rax)
  400d1f:	00 98 80 00 40 00    	add    %bl,0x400080(%rax)
  400d25:	00 00                	add    %al,(%rax)
  400d27:	00 07                	add    %al,(%rdi)
  400d29:	00 00                	add    %al,(%rax)
  400d2b:	00 14 00             	add    %dl,(%rax,%rax,1)
	...

Disassembly of section .init:

0000000000401000 <_init>:
  401000:	f3 0f 1e fa          	endbr64 
  401004:	48 83 ec 08          	sub    $0x8,%rsp
  401008:	48 8b 05 e9 6f c0 3f 	mov    0x3fc06fe9(%rip),%rax        # 40007ff8 <__gmon_start__>
  40100f:	48 85 c0             	test   %rax,%rax
  401012:	74 02                	je     401016 <_init+0x16>
  401014:	ff d0                	call   *%rax
  401016:	48 83 c4 08          	add    $0x8,%rsp
  40101a:	c3                   	ret    

Disassembly of section .plt:

0000000000401020 <.plt>:
  401020:	ff 35 e2 6f c0 3f    	push   0x3fc06fe2(%rip)        # 40008008 <_GLOBAL_OFFSET_TABLE_+0x8>
  401026:	ff 25 e4 6f c0 3f    	jmp    *0x3fc06fe4(%rip)        # 40008010 <_GLOBAL_OFFSET_TABLE_+0x10>
  40102c:	0f 1f 40 00          	nopl   0x0(%rax)

0000000000401030 <__printf_chk@plt>:
  401030:	ff 25 e2 6f c0 3f    	jmp    *0x3fc06fe2(%rip)        # 40008018 <__printf_chk@GLIBC_2.3.4>
  401036:	68 00 00 00 00       	push   $0x0
  40103b:	e9 e0 ff ff ff       	jmp    401020 <.plt>

0000000000401040 <strstr@plt>:
  401040:	ff 25 da 6f c0 3f    	jmp    *0x3fc06fda(%rip)        # 40008020 <strstr@GLIBC_2.2.5>
  401046:	68 01 00 00 00       	push   $0x1
  40104b:	e9 d0 ff ff ff       	jmp    401020 <.plt>

0000000000401050 <setpriority@plt>:
  401050:	ff 25 d2 6f c0 3f    	jmp    *0x3fc06fd2(%rip)        # 40008028 <setpriority@GLIBC_2.2.5>
  401056:	68 02 00 00 00       	push   $0x2
  40105b:	e9 c0 ff ff ff       	jmp    401020 <.plt>

0000000000401060 <pthread_join@plt>:
  401060:	ff 25 ca 6f c0 3f    	jmp    *0x3fc06fca(%rip)        # 40008030 <pthread_join@GLIBC_2.2.5>
  401066:	68 03 00 00 00       	push   $0x3
  40106b:	e9 b0 ff ff ff       	jmp    401020 <.plt>

0000000000401070 <pthread_create@plt>:
  401070:	ff 25 c2 6f c0 3f    	jmp    *0x3fc06fc2(%rip)        # 40008038 <pthread_create@GLIBC_2.2.5>
  401076:	68 04 00 00 00       	push   $0x4
  40107b:	e9 a0 ff ff ff       	jmp    401020 <.plt>

0000000000401080 <open@plt>:
  401080:	ff 25 ba 6f c0 3f    	jmp    *0x3fc06fba(%rip)        # 40008040 <open@GLIBC_2.2.5>
  401086:	68 05 00 00 00       	push   $0x5
  40108b:	e9 90 ff ff ff       	jmp    401020 <.plt>

0000000000401090 <sched_setaffinity@plt>:
  401090:	ff 25 b2 6f c0 3f    	jmp    *0x3fc06fb2(%rip)        # 40008048 <sched_setaffinity@GLIBC_2.3.4>
  401096:	68 06 00 00 00       	push   $0x6
  40109b:	e9 80 ff ff ff       	jmp    401020 <.plt>

00000000004010a0 <__cxa_atexit@plt>:
  4010a0:	ff 25 aa 6f c0 3f    	jmp    *0x3fc06faa(%rip)        # 40008050 <__cxa_atexit@GLIBC_2.2.5>
  4010a6:	68 07 00 00 00       	push   $0x7
  4010ab:	e9 70 ff ff ff       	jmp    401020 <.plt>

00000000004010b0 <gettid@plt>:
  4010b0:	ff 25 a2 6f c0 3f    	jmp    *0x3fc06fa2(%rip)        # 40008058 <gettid@GLIBC_2.30>
  4010b6:	68 08 00 00 00       	push   $0x8
  4010bb:	e9 60 ff ff ff       	jmp    401020 <.plt>

00000000004010c0 <__stack_chk_fail@plt>:
  4010c0:	ff 25 9a 6f c0 3f    	jmp    *0x3fc06f9a(%rip)        # 40008060 <__stack_chk_fail@GLIBC_2.4>
  4010c6:	68 09 00 00 00       	push   $0x9
  4010cb:	e9 50 ff ff ff       	jmp    401020 <.plt>

00000000004010d0 <putchar@plt>:
  4010d0:	ff 25 92 6f c0 3f    	jmp    *0x3fc06f92(%rip)        # 40008068 <putchar@GLIBC_2.2.5>
  4010d6:	68 0a 00 00 00       	push   $0xa
  4010db:	e9 40 ff ff ff       	jmp    401020 <.plt>

00000000004010e0 <strtol@plt>:
  4010e0:	ff 25 8a 6f c0 3f    	jmp    *0x3fc06f8a(%rip)        # 40008070 <strtol@GLIBC_2.2.5>
  4010e6:	68 0b 00 00 00       	push   $0xb
  4010eb:	e9 30 ff ff ff       	jmp    401020 <.plt>

00000000004010f0 <ioctl@plt>:
  4010f0:	ff 25 82 6f c0 3f    	jmp    *0x3fc06f82(%rip)        # 40008078 <ioctl@GLIBC_2.2.5>
  4010f6:	68 0c 00 00 00       	push   $0xc
  4010fb:	e9 20 ff ff ff       	jmp    401020 <.plt>

0000000000401100 <sched_yield@plt>:
  401100:	ff 25 7a 6f c0 3f    	jmp    *0x3fc06f7a(%rip)        # 40008080 <sched_yield@GLIBC_2.2.5>
  401106:	68 0d 00 00 00       	push   $0xd
  40110b:	e9 10 ff ff ff       	jmp    401020 <.plt>

0000000000401110 <sched_getaffinity@plt>:
  401110:	ff 25 72 6f c0 3f    	jmp    *0x3fc06f72(%rip)        # 40008088 <sched_getaffinity@GLIBC_2.3.4>
  401116:	68 0e 00 00 00       	push   $0xe
  40111b:	e9 00 ff ff ff       	jmp    401020 <.plt>

0000000000401120 <_Unwind_Resume@plt>:
  401120:	ff 25 6a 6f c0 3f    	jmp    *0x3fc06f6a(%rip)        # 40008090 <_Unwind_Resume@GCC_3.0>
  401126:	68 0f 00 00 00       	push   $0xf
  40112b:	e9 f0 fe ff ff       	jmp    401020 <.plt>

0000000000401130 <close@plt>:
  401130:	ff 25 62 6f c0 3f    	jmp    *0x3fc06f62(%rip)        # 40008098 <close@GLIBC_2.2.5>
  401136:	68 10 00 00 00       	push   $0x10
  40113b:	e9 e0 fe ff ff       	jmp    401020 <.plt>

Disassembly of section .text:

0000000040000000 <TestLoop>:
    40000000:	53                   	push   %rbx
    40000001:	55                   	push   %rbp
    40000002:	41 54                	push   %r12
    40000004:	41 55                	push   %r13
    40000006:	41 56                	push   %r14
    40000008:	41 57                	push   %r15
    4000000a:	41 89 ff             	mov    %edi,%r15d
    4000000d:	b9 10 27 00 00       	mov    $0x2710,%ecx
    40000012:	b8 01 00 00 00       	mov    $0x1,%eax
    40000017:	90                   	nop
    40000018:	90                   	nop
    40000019:	90                   	nop
    4000001a:	90                   	nop
    4000001b:	90                   	nop
    4000001c:	90                   	nop
    4000001d:	90                   	nop
    4000001e:	90                   	nop
    4000001f:	90                   	nop

0000000040000020 <Warmuploop>:
    40000020:	0f af c1             	imul   %ecx,%eax
    40000023:	0f af c1             	imul   %ecx,%eax
    40000026:	0f af c1             	imul   %ecx,%eax
    40000029:	0f af c1             	imul   %ecx,%eax
    4000002c:	0f af c1             	imul   %ecx,%eax
    4000002f:	0f af c1             	imul   %ecx,%eax
    40000032:	0f af c1             	imul   %ecx,%eax
    40000035:	0f af c1             	imul   %ecx,%eax
    40000038:	0f af c1             	imul   %ecx,%eax
    4000003b:	0f af c1             	imul   %ecx,%eax
    4000003e:	ff c9                	dec    %ecx
    40000040:	75 de                	jne    40000020 <Warmuploop>
    40000042:	9b db e3             	finit  
    40000045:	c5 fc 77             	vzeroall 
    40000048:	41 69 c7 00 04 00 00 	imul   $0x400,%r15d,%eax
    4000004f:	48 8d 35 aa d2 00 00 	lea    0xd2aa(%rip),%rsi        # 4000d300 <UserData>
    40000056:	48 01 c6             	add    %rax,%rsi
    40000059:	48 8d be 00 02 00 00 	lea    0x200(%rsi),%rdi
    40000060:	31 ed                	xor    %ebp,%ebp
    40000062:	4c 8d 2d 57 ce 00 00 	lea    0xce57(%rip),%r13        # 4000cec0 <ThreadData>
    40000069:	41 69 c7 80 03 00 00 	imul   $0x380,%r15d,%eax
    40000070:	49 01 c5             	add    %rax,%r13
    40000073:	49 89 a5 40 03 00 00 	mov    %rsp,0x340(%r13)
    4000007a:	45 31 f6             	xor    %r14d,%r14d

000000004000007d <TEST_LOOP_1>:
    4000007d:	31 c0                	xor    %eax,%eax
    4000007f:	0f a2                	cpuid  
    40000081:	8b 0d e9 d1 00 00    	mov    0xd1e9(%rip),%ecx        # 4000d270 <Counters>
    40000087:	0f 33                	rdpmc  
    40000089:	41 89 45 04          	mov    %eax,0x4(%r13)
    4000008d:	8b 0d e1 d1 00 00    	mov    0xd1e1(%rip),%ecx        # 4000d274 <Counters+0x4>
    40000093:	0f 33                	rdpmc  
    40000095:	41 89 45 08          	mov    %eax,0x8(%r13)
    40000099:	8b 0d d9 d1 00 00    	mov    0xd1d9(%rip),%ecx        # 4000d278 <Counters+0x8>
    4000009f:	0f 33                	rdpmc  
    400000a1:	41 89 45 0c          	mov    %eax,0xc(%r13)
    400000a5:	8b 0d d1 d1 00 00    	mov    0xd1d1(%rip),%ecx        # 4000d27c <Counters+0xc>
    400000ab:	0f 33                	rdpmc  
    400000ad:	41 89 45 10          	mov    %eax,0x10(%r13)
    400000b1:	8b 0d c9 d1 00 00    	mov    0xd1c9(%rip),%ecx        # 4000d280 <Counters+0x10>
    400000b7:	0f 33                	rdpmc  
    400000b9:	41 89 45 14          	mov    %eax,0x14(%r13)
    400000bd:	8b 0d c1 d1 00 00    	mov    0xd1c1(%rip),%ecx        # 4000d284 <Counters+0x14>
    400000c3:	0f 33                	rdpmc  
    400000c5:	41 89 45 18          	mov    %eax,0x18(%r13)
    400000c9:	8b 0d b9 d1 00 00    	mov    0xd1b9(%rip),%ecx        # 4000d288 <Counters+0x18>
    400000cf:	0f 33                	rdpmc  
    400000d1:	41 89 45 1c          	mov    %eax,0x1c(%r13)
    400000d5:	8b 0d b1 d1 00 00    	mov    0xd1b1(%rip),%ecx        # 4000d28c <Counters+0x1c>
    400000db:	0f 33                	rdpmc  
    400000dd:	41 89 45 20          	mov    %eax,0x20(%r13)
    400000e1:	31 c0                	xor    %eax,%eax
    400000e3:	0f a2                	cpuid  
    400000e5:	0f 31                	rdtsc  
    400000e7:	41 89 45 00          	mov    %eax,0x0(%r13)
    400000eb:	31 c0                	xor    %eax,%eax
    400000ed:	0f a2                	cpuid  
    400000ef:	31 c0                	xor    %eax,%eax
    400000f1:	0f a2                	cpuid  
    400000f3:	0f 31                	rdtsc  
    400000f5:	41 29 45 00          	sub    %eax,0x0(%r13)
    400000f9:	31 c0                	xor    %eax,%eax
    400000fb:	0f a2                	cpuid  
    400000fd:	8b 0d 6d d1 00 00    	mov    0xd16d(%rip),%ecx        # 4000d270 <Counters>
    40000103:	0f 33                	rdpmc  
    40000105:	41 29 45 04          	sub    %eax,0x4(%r13)
    40000109:	8b 0d 65 d1 00 00    	mov    0xd165(%rip),%ecx        # 4000d274 <Counters+0x4>
    4000010f:	0f 33                	rdpmc  
    40000111:	41 29 45 08          	sub    %eax,0x8(%r13)
    40000115:	8b 0d 5d d1 00 00    	mov    0xd15d(%rip),%ecx        # 4000d278 <Counters+0x8>
    4000011b:	0f 33                	rdpmc  
    4000011d:	41 29 45 0c          	sub    %eax,0xc(%r13)
    40000121:	8b 0d 55 d1 00 00    	mov    0xd155(%rip),%ecx        # 4000d27c <Counters+0xc>
    40000127:	0f 33                	rdpmc  
    40000129:	41 29 45 10          	sub    %eax,0x10(%r13)
    4000012d:	8b 0d 4d d1 00 00    	mov    0xd14d(%rip),%ecx        # 4000d280 <Counters+0x10>
    40000133:	0f 33                	rdpmc  
    40000135:	41 29 45 14          	sub    %eax,0x14(%r13)
    40000139:	8b 0d 45 d1 00 00    	mov    0xd145(%rip),%ecx        # 4000d284 <Counters+0x14>
    4000013f:	0f 33                	rdpmc  
    40000141:	41 29 45 18          	sub    %eax,0x18(%r13)
    40000145:	8b 0d 3d d1 00 00    	mov    0xd13d(%rip),%ecx        # 4000d288 <Counters+0x18>
    4000014b:	0f 33                	rdpmc  
    4000014d:	41 29 45 1c          	sub    %eax,0x1c(%r13)
    40000151:	8b 0d 35 d1 00 00    	mov    0xd135(%rip),%ecx        # 4000d28c <Counters+0x1c>
    40000157:	0f 33                	rdpmc  
    40000159:	41 29 45 20          	sub    %eax,0x20(%r13)
    4000015d:	31 c0                	xor    %eax,%eax
    4000015f:	0f a2                	cpuid  
    40000161:	41 8b 45 00          	mov    0x0(%r13),%eax
    40000165:	f7 d8                	neg    %eax
    40000167:	41 8b 5d 48          	mov    0x48(%r13),%ebx
    4000016b:	39 d8                	cmp    %ebx,%eax
    4000016d:	0f 42 d8             	cmovb  %eax,%ebx
    40000170:	41 89 5d 48          	mov    %ebx,0x48(%r13)
    40000174:	41 8b 45 04          	mov    0x4(%r13),%eax
    40000178:	f7 d8                	neg    %eax
    4000017a:	41 8b 5d 4c          	mov    0x4c(%r13),%ebx
    4000017e:	39 d8                	cmp    %ebx,%eax
    40000180:	0f 42 d8             	cmovb  %eax,%ebx
    40000183:	41 89 5d 4c          	mov    %ebx,0x4c(%r13)
    40000187:	41 8b 45 08          	mov    0x8(%r13),%eax
    4000018b:	f7 d8                	neg    %eax
    4000018d:	41 8b 5d 50          	mov    0x50(%r13),%ebx
    40000191:	39 d8                	cmp    %ebx,%eax
    40000193:	0f 42 d8             	cmovb  %eax,%ebx
    40000196:	41 89 5d 50          	mov    %ebx,0x50(%r13)
    4000019a:	41 8b 45 0c          	mov    0xc(%r13),%eax
    4000019e:	f7 d8                	neg    %eax
    400001a0:	41 8b 5d 54          	mov    0x54(%r13),%ebx
    400001a4:	39 d8                	cmp    %ebx,%eax
    400001a6:	0f 42 d8             	cmovb  %eax,%ebx
    400001a9:	41 89 5d 54          	mov    %ebx,0x54(%r13)
    400001ad:	41 8b 45 10          	mov    0x10(%r13),%eax
    400001b1:	f7 d8                	neg    %eax
    400001b3:	41 8b 5d 58          	mov    0x58(%r13),%ebx
    400001b7:	39 d8                	cmp    %ebx,%eax
    400001b9:	0f 42 d8             	cmovb  %eax,%ebx
    400001bc:	41 89 5d 58          	mov    %ebx,0x58(%r13)
    400001c0:	41 8b 45 14          	mov    0x14(%r13),%eax
    400001c4:	f7 d8                	neg    %eax
    400001c6:	41 8b 5d 5c          	mov    0x5c(%r13),%ebx
    400001ca:	39 d8                	cmp    %ebx,%eax
    400001cc:	0f 42 d8             	cmovb  %eax,%ebx
    400001cf:	41 89 5d 5c          	mov    %ebx,0x5c(%r13)
    400001d3:	41 8b 45 18          	mov    0x18(%r13),%eax
    400001d7:	f7 d8                	neg    %eax
    400001d9:	41 8b 5d 60          	mov    0x60(%r13),%ebx
    400001dd:	39 d8                	cmp    %ebx,%eax
    400001df:	0f 42 d8             	cmovb  %eax,%ebx
    400001e2:	41 89 5d 60          	mov    %ebx,0x60(%r13)
    400001e6:	41 8b 45 1c          	mov    0x1c(%r13),%eax
    400001ea:	f7 d8                	neg    %eax
    400001ec:	41 8b 5d 64          	mov    0x64(%r13),%ebx
    400001f0:	39 d8                	cmp    %ebx,%eax
    400001f2:	0f 42 d8             	cmovb  %eax,%ebx
    400001f5:	41 89 5d 64          	mov    %ebx,0x64(%r13)
    400001f9:	41 8b 45 20          	mov    0x20(%r13),%eax
    400001fd:	f7 d8                	neg    %eax
    400001ff:	41 8b 5d 68          	mov    0x68(%r13),%ebx
    40000203:	39 d8                	cmp    %ebx,%eax
    40000205:	0f 42 d8             	cmovb  %eax,%ebx
    40000208:	41 89 5d 68          	mov    %ebx,0x68(%r13)
    4000020c:	41 ff c6             	inc    %r14d
    4000020f:	41 83 fe 04          	cmp    $0x4,%r14d
    40000213:	0f 82 64 fe ff ff    	jb     4000007d <TEST_LOOP_1>
    40000219:	45 31 f6             	xor    %r14d,%r14d

000000004000021c <TEST_LOOP_2>:
    4000021c:	c7 05 2e d0 00 00 01 	movl   $0x1,0xd02e(%rip)        # 4000d254 <PrintCustomPMC>
    40000223:	00 00 00 
    40000226:	bb 40 1f 00 00       	mov    $0x1f40,%ebx
    4000022b:	48 8d 3d ce d0 00 00 	lea    0xd0ce(%rip),%rdi        # 4000d300 <UserData>

0000000040000232 <rand_loop>:
    40000232:	0f c7 f0             	rdrand %eax
    40000235:	83 e0 01             	and    $0x1,%eax
    40000238:	88 07                	mov    %al,(%rdi)
    4000023a:	48 ff c7             	inc    %rdi
    4000023d:	ff cb                	dec    %ebx
    4000023f:	75 f1                	jne    40000232 <rand_loop>
    40000241:	31 c0                	xor    %eax,%eax
    40000243:	0f a2                	cpuid  
    40000245:	8b 0d 25 d0 00 00    	mov    0xd025(%rip),%ecx        # 4000d270 <Counters>
    4000024b:	0f 33                	rdpmc  
    4000024d:	41 89 45 04          	mov    %eax,0x4(%r13)
    40000251:	8b 0d 1d d0 00 00    	mov    0xd01d(%rip),%ecx        # 4000d274 <Counters+0x4>
    40000257:	0f 33                	rdpmc  
    40000259:	41 89 45 08          	mov    %eax,0x8(%r13)
    4000025d:	8b 0d 15 d0 00 00    	mov    0xd015(%rip),%ecx        # 4000d278 <Counters+0x8>
    40000263:	0f 33                	rdpmc  
    40000265:	41 89 45 0c          	mov    %eax,0xc(%r13)
    40000269:	8b 0d 0d d0 00 00    	mov    0xd00d(%rip),%ecx        # 4000d27c <Counters+0xc>
    4000026f:	0f 33                	rdpmc  
    40000271:	41 89 45 10          	mov    %eax,0x10(%r13)
    40000275:	8b 0d 05 d0 00 00    	mov    0xd005(%rip),%ecx        # 4000d280 <Counters+0x10>
    4000027b:	0f 33                	rdpmc  
    4000027d:	41 89 45 14          	mov    %eax,0x14(%r13)
    40000281:	8b 0d fd cf 00 00    	mov    0xcffd(%rip),%ecx        # 4000d284 <Counters+0x14>
    40000287:	0f 33                	rdpmc  
    40000289:	41 89 45 18          	mov    %eax,0x18(%r13)
    4000028d:	8b 0d f5 cf 00 00    	mov    0xcff5(%rip),%ecx        # 4000d288 <Counters+0x18>
    40000293:	0f 33                	rdpmc  
    40000295:	41 89 45 1c          	mov    %eax,0x1c(%r13)
    40000299:	8b 0d ed cf 00 00    	mov    0xcfed(%rip),%ecx        # 4000d28c <Counters+0x1c>
    4000029f:	0f 33                	rdpmc  
    400002a1:	41 89 45 20          	mov    %eax,0x20(%r13)
    400002a5:	31 c0                	xor    %eax,%eax
    400002a7:	0f a2                	cpuid  
    400002a9:	0f 31                	rdtsc  
    400002ab:	41 89 45 00          	mov    %eax,0x0(%r13)
    400002af:	31 c0                	xor    %eax,%eax
    400002b1:	0f a2                	cpuid  

00000000400002b3 <Test_start>:
    400002b3:	48 8d 3d 46 d0 00 00 	lea    0xd046(%rip),%rdi        # 4000d300 <UserData>
    400002ba:	41 bc e8 03 00 00    	mov    $0x3e8,%r12d

00000000400002c0 <REPETITIONS1LOOP>:
    400002c0:	48 ff c7             	inc    %rdi
    400002c3:	48 ff c7             	inc    %rdi
    400002c6:	48 b8 00 00 00 00 01 	movabs $0x100000000,%rax
    400002cd:	00 00 00 
    400002d0:	48 bb ea 02 00 40 00 	movabs $0x400002ea,%rbx
    400002d7:	00 00 00 
    400002da:	ba c8 00 00 00       	mov    $0xc8,%edx
    400002df:	b9 00 00 00 00       	mov    $0x0,%ecx
    400002e4:	48 83 f9 00          	cmp    $0x0,%rcx
    400002e8:	ff e0                	jmp    *%rax

00000000400002ea <rand_branch_back>:
    400002ea:	b8 00 00 00 00       	mov    $0x0,%eax

00000000400002ef <label500>:
    400002ef:	48 83 f8 00          	cmp    $0x0,%rax
    400002f3:	74 00                	je     400002f5 <label501>

00000000400002f5 <label501>:
    400002f5:	48 83 f8 00          	cmp    $0x0,%rax
    400002f9:	74 00                	je     400002fb <label502>

00000000400002fb <label502>:
    400002fb:	48 83 f8 00          	cmp    $0x0,%rax
    400002ff:	74 00                	je     40000301 <label503>

0000000040000301 <label503>:
    40000301:	48 83 f8 00          	cmp    $0x0,%rax
    40000305:	74 00                	je     40000307 <label504>

0000000040000307 <label504>:
    40000307:	48 89 05 f2 cf 80 00 	mov    %rax,0x80cff2(%rip)        # 4080d300 <TempData>
    4000030e:	48 89 1d f3 cf 80 00 	mov    %rbx,0x80cff3(%rip)        # 4080d308 <TempData+0x8>
    40000315:	48 89 0d f4 cf 80 00 	mov    %rcx,0x80cff4(%rip)        # 4080d310 <TempData+0x10>
    4000031c:	48 89 15 f5 cf 80 00 	mov    %rdx,0x80cff5(%rip)        # 4080d318 <TempData+0x18>
    40000323:	31 c0                	xor    %eax,%eax
    40000325:	0f a2                	cpuid  
    40000327:	48 31 c9             	xor    %rcx,%rcx
    4000032a:	8b 0d 40 cf 00 00    	mov    0xcf40(%rip),%ecx        # 4000d270 <Counters>
    40000330:	0f 33                	rdpmc  
    40000332:	41 89 45 28          	mov    %eax,0x28(%r13)

0000000040000336 <debug_counter_0_0>:
    40000336:	48 31 c9             	xor    %rcx,%rcx
    40000339:	8b 0d 35 cf 00 00    	mov    0xcf35(%rip),%ecx        # 4000d274 <Counters+0x4>
    4000033f:	0f 33                	rdpmc  
    40000341:	41 89 45 2c          	mov    %eax,0x2c(%r13)

0000000040000345 <debug_counter_0_1>:
    40000345:	48 31 c9             	xor    %rcx,%rcx
    40000348:	8b 0d 2a cf 00 00    	mov    0xcf2a(%rip),%ecx        # 4000d278 <Counters+0x8>
    4000034e:	0f 33                	rdpmc  
    40000350:	41 89 45 30          	mov    %eax,0x30(%r13)

0000000040000354 <debug_counter_0_2>:
    40000354:	48 31 c9             	xor    %rcx,%rcx
    40000357:	8b 0d 1f cf 00 00    	mov    0xcf1f(%rip),%ecx        # 4000d27c <Counters+0xc>
    4000035d:	0f 33                	rdpmc  
    4000035f:	41 89 45 34          	mov    %eax,0x34(%r13)

0000000040000363 <debug_counter_0_3>:
    40000363:	48 31 c9             	xor    %rcx,%rcx
    40000366:	8b 0d 14 cf 00 00    	mov    0xcf14(%rip),%ecx        # 4000d280 <Counters+0x10>
    4000036c:	0f 33                	rdpmc  
    4000036e:	41 89 45 38          	mov    %eax,0x38(%r13)

0000000040000372 <debug_counter_0_4>:
    40000372:	48 31 c9             	xor    %rcx,%rcx
    40000375:	8b 0d 09 cf 00 00    	mov    0xcf09(%rip),%ecx        # 4000d284 <Counters+0x14>
    4000037b:	0f 33                	rdpmc  
    4000037d:	41 89 45 3c          	mov    %eax,0x3c(%r13)

0000000040000381 <debug_counter_0_5>:
    40000381:	48 31 c9             	xor    %rcx,%rcx
    40000384:	8b 0d fe ce 00 00    	mov    0xcefe(%rip),%ecx        # 4000d288 <Counters+0x18>
    4000038a:	0f 33                	rdpmc  
    4000038c:	41 89 45 40          	mov    %eax,0x40(%r13)

0000000040000390 <debug_counter_0_6>:
    40000390:	48 31 c9             	xor    %rcx,%rcx
    40000393:	8b 0d f3 ce 00 00    	mov    0xcef3(%rip),%ecx        # 4000d28c <Counters+0x1c>
    40000399:	0f 33                	rdpmc  
    4000039b:	41 89 45 44          	mov    %eax,0x44(%r13)

000000004000039f <debug_counter_0_7>:
    4000039f:	31 c0                	xor    %eax,%eax
    400003a1:	0f a2                	cpuid  
    400003a3:	0f 31                	rdtsc  
    400003a5:	41 89 45 24          	mov    %eax,0x24(%r13)
    400003a9:	48 8b 05 50 cf 80 00 	mov    0x80cf50(%rip),%rax        # 4080d300 <TempData>
    400003b0:	48 8b 1d 51 cf 80 00 	mov    0x80cf51(%rip),%rbx        # 4080d308 <TempData+0x8>
    400003b7:	48 8b 0d 52 cf 80 00 	mov    0x80cf52(%rip),%rcx        # 4080d310 <TempData+0x10>
    400003be:	48 8b 15 53 cf 80 00 	mov    0x80cf53(%rip),%rdx        # 4080d318 <TempData+0x18>
    400003c5:	8a 07                	mov    (%rdi),%al
    400003c7:	8a 5f 01             	mov    0x1(%rdi),%bl
    400003ca:	30 d8                	xor    %bl,%al
    400003cc:	3c 00                	cmp    $0x0,%al
    400003ce:	74 00                	je     400003d0 <target2>

00000000400003d0 <target2>:
    400003d0:	48 89 05 29 cf 80 00 	mov    %rax,0x80cf29(%rip)        # 4080d300 <TempData>
    400003d7:	48 89 1d 2a cf 80 00 	mov    %rbx,0x80cf2a(%rip)        # 4080d308 <TempData+0x8>
    400003de:	48 89 0d 2b cf 80 00 	mov    %rcx,0x80cf2b(%rip)        # 4080d310 <TempData+0x10>
    400003e5:	48 89 15 2c cf 80 00 	mov    %rdx,0x80cf2c(%rip)        # 4080d318 <TempData+0x18>
    400003ec:	31 c0                	xor    %eax,%eax
    400003ee:	0f a2                	cpuid  
    400003f0:	48 31 c0             	xor    %rax,%rax
    400003f3:	48 31 c9             	xor    %rcx,%rcx
    400003f6:	0f 31                	rdtsc  
    400003f8:	41 8b 4d 24          	mov    0x24(%r13),%ecx
    400003fc:	29 c8                	sub    %ecx,%eax
    400003fe:	43 01 84 b5 94 00 00 	add    %eax,0x94(%r13,%r14,4)
    40000405:	00 
    40000406:	31 c0                	xor    %eax,%eax
    40000408:	0f a2                	cpuid  
    4000040a:	48 31 c9             	xor    %rcx,%rcx
    4000040d:	48 31 c0             	xor    %rax,%rax
    40000410:	8b 0d 5a ce 00 00    	mov    0xce5a(%rip),%ecx        # 4000d270 <Counters>
    40000416:	0f 33                	rdpmc  
    40000418:	41 8b 4d 28          	mov    0x28(%r13),%ecx

000000004000041c <debug_counter_1_0>:
    4000041c:	29 c8                	sub    %ecx,%eax
    4000041e:	43 01 84 b5 fc 01 00 	add    %eax,0x1fc(%r13,%r14,4)
    40000425:	00 
    40000426:	48 31 c9             	xor    %rcx,%rcx
    40000429:	48 31 c0             	xor    %rax,%rax
    4000042c:	8b 0d 42 ce 00 00    	mov    0xce42(%rip),%ecx        # 4000d274 <Counters+0x4>
    40000432:	0f 33                	rdpmc  
    40000434:	41 8b 4d 2c          	mov    0x2c(%r13),%ecx

0000000040000438 <debug_counter_1_1>:
    40000438:	29 c8                	sub    %ecx,%eax
    4000043a:	43 01 84 b5 24 02 00 	add    %eax,0x224(%r13,%r14,4)
    40000441:	00 
    40000442:	48 31 c9             	xor    %rcx,%rcx
    40000445:	48 31 c0             	xor    %rax,%rax
    40000448:	8b 0d 2a ce 00 00    	mov    0xce2a(%rip),%ecx        # 4000d278 <Counters+0x8>
    4000044e:	0f 33                	rdpmc  
    40000450:	41 8b 4d 30          	mov    0x30(%r13),%ecx

0000000040000454 <debug_counter_1_2>:
    40000454:	29 c8                	sub    %ecx,%eax
    40000456:	43 01 84 b5 4c 02 00 	add    %eax,0x24c(%r13,%r14,4)
    4000045d:	00 
    4000045e:	48 31 c9             	xor    %rcx,%rcx
    40000461:	48 31 c0             	xor    %rax,%rax
    40000464:	8b 0d 12 ce 00 00    	mov    0xce12(%rip),%ecx        # 4000d27c <Counters+0xc>
    4000046a:	0f 33                	rdpmc  
    4000046c:	41 8b 4d 34          	mov    0x34(%r13),%ecx

0000000040000470 <debug_counter_1_3>:
    40000470:	29 c8                	sub    %ecx,%eax
    40000472:	43 01 84 b5 74 02 00 	add    %eax,0x274(%r13,%r14,4)
    40000479:	00 
    4000047a:	48 31 c9             	xor    %rcx,%rcx
    4000047d:	48 31 c0             	xor    %rax,%rax
    40000480:	8b 0d fa cd 00 00    	mov    0xcdfa(%rip),%ecx        # 4000d280 <Counters+0x10>
    40000486:	0f 33                	rdpmc  
    40000488:	41 8b 4d 38          	mov    0x38(%r13),%ecx

000000004000048c <debug_counter_1_4>:
    4000048c:	29 c8                	sub    %ecx,%eax
    4000048e:	43 01 84 b5 9c 02 00 	add    %eax,0x29c(%r13,%r14,4)
    40000495:	00 
    40000496:	48 31 c9             	xor    %rcx,%rcx
    40000499:	48 31 c0             	xor    %rax,%rax
    4000049c:	8b 0d e2 cd 00 00    	mov    0xcde2(%rip),%ecx        # 4000d284 <Counters+0x14>
    400004a2:	0f 33                	rdpmc  
    400004a4:	41 8b 4d 3c          	mov    0x3c(%r13),%ecx

00000000400004a8 <debug_counter_1_5>:
    400004a8:	29 c8                	sub    %ecx,%eax
    400004aa:	43 01 84 b5 c4 02 00 	add    %eax,0x2c4(%r13,%r14,4)
    400004b1:	00 
    400004b2:	48 31 c9             	xor    %rcx,%rcx
    400004b5:	48 31 c0             	xor    %rax,%rax
    400004b8:	8b 0d ca cd 00 00    	mov    0xcdca(%rip),%ecx        # 4000d288 <Counters+0x18>
    400004be:	0f 33                	rdpmc  
    400004c0:	41 8b 4d 40          	mov    0x40(%r13),%ecx

00000000400004c4 <debug_counter_1_6>:
    400004c4:	29 c8                	sub    %ecx,%eax
    400004c6:	43 01 84 b5 ec 02 00 	add    %eax,0x2ec(%r13,%r14,4)
    400004cd:	00 
    400004ce:	48 31 c9             	xor    %rcx,%rcx
    400004d1:	48 31 c0             	xor    %rax,%rax
    400004d4:	8b 0d b2 cd 00 00    	mov    0xcdb2(%rip),%ecx        # 4000d28c <Counters+0x1c>
    400004da:	0f 33                	rdpmc  
    400004dc:	41 8b 4d 44          	mov    0x44(%r13),%ecx

00000000400004e0 <debug_counter_1_7>:
    400004e0:	29 c8                	sub    %ecx,%eax
    400004e2:	43 01 84 b5 14 03 00 	add    %eax,0x314(%r13,%r14,4)
    400004e9:	00 
    400004ea:	48 8b 05 0f ce 80 00 	mov    0x80ce0f(%rip),%rax        # 4080d300 <TempData>
    400004f1:	48 8b 1d 10 ce 80 00 	mov    0x80ce10(%rip),%rbx        # 4080d308 <TempData+0x8>
    400004f8:	48 8b 0d 11 ce 80 00 	mov    0x80ce11(%rip),%rcx        # 4080d310 <TempData+0x10>
    400004ff:	48 8b 15 12 ce 80 00 	mov    0x80ce12(%rip),%rdx        # 4080d318 <TempData+0x18>
    40000506:	41 ff cc             	dec    %r12d
    40000509:	0f 85 b1 fd ff ff    	jne    400002c0 <REPETITIONS1LOOP>

000000004000050f <THREAD2_END>:
    4000050f:	31 c0                	xor    %eax,%eax
    40000511:	0f a2                	cpuid  
    40000513:	0f 31                	rdtsc  
    40000515:	41 29 45 00          	sub    %eax,0x0(%r13)
    40000519:	31 c0                	xor    %eax,%eax
    4000051b:	0f a2                	cpuid  
    4000051d:	8b 0d 4d cd 00 00    	mov    0xcd4d(%rip),%ecx        # 4000d270 <Counters>
    40000523:	0f 33                	rdpmc  
    40000525:	41 29 45 04          	sub    %eax,0x4(%r13)
    40000529:	8b 0d 45 cd 00 00    	mov    0xcd45(%rip),%ecx        # 4000d274 <Counters+0x4>
    4000052f:	0f 33                	rdpmc  
    40000531:	41 29 45 08          	sub    %eax,0x8(%r13)
    40000535:	8b 0d 3d cd 00 00    	mov    0xcd3d(%rip),%ecx        # 4000d278 <Counters+0x8>
    4000053b:	0f 33                	rdpmc  
    4000053d:	41 29 45 0c          	sub    %eax,0xc(%r13)
    40000541:	8b 0d 35 cd 00 00    	mov    0xcd35(%rip),%ecx        # 4000d27c <Counters+0xc>
    40000547:	0f 33                	rdpmc  
    40000549:	41 29 45 10          	sub    %eax,0x10(%r13)
    4000054d:	8b 0d 2d cd 00 00    	mov    0xcd2d(%rip),%ecx        # 4000d280 <Counters+0x10>
    40000553:	0f 33                	rdpmc  
    40000555:	41 29 45 14          	sub    %eax,0x14(%r13)
    40000559:	8b 0d 25 cd 00 00    	mov    0xcd25(%rip),%ecx        # 4000d284 <Counters+0x14>
    4000055f:	0f 33                	rdpmc  
    40000561:	41 29 45 18          	sub    %eax,0x18(%r13)
    40000565:	8b 0d 1d cd 00 00    	mov    0xcd1d(%rip),%ecx        # 4000d288 <Counters+0x18>
    4000056b:	0f 33                	rdpmc  
    4000056d:	41 29 45 1c          	sub    %eax,0x1c(%r13)
    40000571:	8b 0d 15 cd 00 00    	mov    0xcd15(%rip),%ecx        # 4000d28c <Counters+0x1c>
    40000577:	0f 33                	rdpmc  
    40000579:	41 29 45 20          	sub    %eax,0x20(%r13)
    4000057d:	31 c0                	xor    %eax,%eax
    4000057f:	0f a2                	cpuid  
    40000581:	41 8b 45 00          	mov    0x0(%r13),%eax
    40000585:	f7 d8                	neg    %eax
    40000587:	41 2b 45 48          	sub    0x48(%r13),%eax
    4000058b:	43 89 44 b5 6c       	mov    %eax,0x6c(%r13,%r14,4)
    40000590:	41 8b 45 04          	mov    0x4(%r13),%eax
    40000594:	f7 d8                	neg    %eax
    40000596:	41 2b 45 4c          	sub    0x4c(%r13),%eax
    4000059a:	43 89 84 b5 bc 00 00 	mov    %eax,0xbc(%r13,%r14,4)
    400005a1:	00 
    400005a2:	41 8b 45 08          	mov    0x8(%r13),%eax
    400005a6:	f7 d8                	neg    %eax
    400005a8:	41 2b 45 50          	sub    0x50(%r13),%eax
    400005ac:	43 89 84 b5 e4 00 00 	mov    %eax,0xe4(%r13,%r14,4)
    400005b3:	00 
    400005b4:	41 8b 45 0c          	mov    0xc(%r13),%eax
    400005b8:	f7 d8                	neg    %eax
    400005ba:	41 2b 45 54          	sub    0x54(%r13),%eax
    400005be:	43 89 84 b5 0c 01 00 	mov    %eax,0x10c(%r13,%r14,4)
    400005c5:	00 
    400005c6:	41 8b 45 10          	mov    0x10(%r13),%eax
    400005ca:	f7 d8                	neg    %eax
    400005cc:	41 2b 45 58          	sub    0x58(%r13),%eax
    400005d0:	43 89 84 b5 34 01 00 	mov    %eax,0x134(%r13,%r14,4)
    400005d7:	00 
    400005d8:	41 8b 45 14          	mov    0x14(%r13),%eax
    400005dc:	f7 d8                	neg    %eax
    400005de:	41 2b 45 5c          	sub    0x5c(%r13),%eax
    400005e2:	43 89 84 b5 5c 01 00 	mov    %eax,0x15c(%r13,%r14,4)
    400005e9:	00 
    400005ea:	41 8b 45 18          	mov    0x18(%r13),%eax
    400005ee:	f7 d8                	neg    %eax
    400005f0:	41 2b 45 60          	sub    0x60(%r13),%eax
    400005f4:	43 89 84 b5 84 01 00 	mov    %eax,0x184(%r13,%r14,4)
    400005fb:	00 
    400005fc:	41 8b 45 1c          	mov    0x1c(%r13),%eax
    40000600:	f7 d8                	neg    %eax
    40000602:	41 2b 45 64          	sub    0x64(%r13),%eax
    40000606:	43 89 84 b5 ac 01 00 	mov    %eax,0x1ac(%r13,%r14,4)
    4000060d:	00 
    4000060e:	41 8b 45 20          	mov    0x20(%r13),%eax
    40000612:	f7 d8                	neg    %eax
    40000614:	41 2b 45 68          	sub    0x68(%r13),%eax
    40000618:	43 89 84 b5 d4 01 00 	mov    %eax,0x1d4(%r13,%r14,4)
    4000061f:	00 
    40000620:	41 ff c6             	inc    %r14d
    40000623:	41 83 fe 0a          	cmp    $0xa,%r14d
    40000627:	0f 82 ef fb ff ff    	jb     4000021c <TEST_LOOP_2>

000000004000062d <EXITALL1>:
    4000062d:	49 8b a5 40 03 00 00 	mov    0x340(%r13),%rsp
    40000634:	9b db e3             	finit  
    40000637:	fc                   	cld    
    40000638:	c5 fc 77             	vzeroall 

000000004000063b <EXITALL2>:
    4000063b:	b8 0a 00 00 00       	mov    $0xa,%eax
    40000640:	41 5f                	pop    %r15
    40000642:	41 5e                	pop    %r14
    40000644:	41 5d                	pop    %r13
    40000646:	41 5c                	pop    %r12
    40000648:	5d                   	pop    %rbp
    40000649:	5b                   	pop    %rbx
    4000064a:	c3                   	ret    

000000004000064b <main.cold>:
    4000064b:	83 bc 24 a0 00 00 00 	cmpl   $0x0,0xa0(%rsp)
    40000652:	00 
    40000653:	75 15                	jne    4000066a <main.cold+0x1f>
    40000655:	48 b8 20 91 3f c0 ff 	movabs $0xffffffffc03f9120,%rax
    4000065c:	ff ff ff 
    4000065f:	48 89 ef             	mov    %rbp,%rdi
    40000662:	4d 89 e7             	mov    %r12,%r15
    40000665:	4c 01 e0             	add    %r12,%rax
    40000668:	ff d0                	call   *%rax
    4000066a:	48 b8 40 95 ff ff ff 	movabs $0xffffffffffff9540,%rax
    40000671:	ff ff ff 
    40000674:	48 8b bc 24 80 00 00 	mov    0x80(%rsp),%rdi
    4000067b:	00 
    4000067c:	4c 01 e0             	add    %r12,%rax
    4000067f:	ff d0                	call   *%rax
    40000681:	eb d2                	jmp    40000655 <main.cold+0xa>
    40000683:	66 2e 0f 1f 84 00 00 	cs nopw 0x0(%rax,%rax,1)
    4000068a:	00 00 00 
    4000068d:	0f 1f 00             	nopl   (%rax)

0000000040000690 <main>:
    40000690:	f3 0f 1e fa          	endbr64 
    40000694:	f3 0f 1e fa          	endbr64 
    40000698:	49 bb 6c 79 00 00 00 	movabs $0x796c,%r11
    4000069f:	00 00 00 
    400006a2:	41 57                	push   %r15
    400006a4:	41 56                	push   %r14
    400006a6:	41 55                	push   %r13
    400006a8:	41 54                	push   %r12
    400006aa:	4c 8d 25 e3 ff ff ff 	lea    -0x1d(%rip),%r12        # 40000694 <main+0x4>
    400006b1:	55                   	push   %rbp
    400006b2:	4d 01 dc             	add    %r11,%r12
    400006b5:	53                   	push   %rbx
    400006b6:	48 81 ec a8 01 00 00 	sub    $0x1a8,%rsp
    400006bd:	64 48 8b 04 25 28 00 	mov    %fs:0x28,%rax
    400006c4:	00 00 
    400006c6:	48 89 84 24 98 01 00 	mov    %rax,0x198(%rsp)
    400006cd:	00 
    400006ce:	31 c0                	xor    %eax,%eax
    400006d0:	83 ff 01             	cmp    $0x1,%edi
    400006d3:	7e 47                	jle    4000071c <main+0x8c>
    400006d5:	4c 8b 76 08          	mov    0x8(%rsi),%r14
    400006d9:	89 fd                	mov    %edi,%ebp
    400006db:	49 89 f5             	mov    %rsi,%r13
    400006de:	4d 89 e7             	mov    %r12,%r15
    400006e1:	48 b8 2d d3 ff ff ff 	movabs $0xffffffffffffd32d,%rax
    400006e8:	ff ff ff 
    400006eb:	48 bb 40 90 3f c0 ff 	movabs $0xffffffffc03f9040,%rbx
    400006f2:	ff ff ff 
    400006f5:	4c 01 e3             	add    %r12,%rbx
    400006f8:	49 8d 34 04          	lea    (%r12,%rax,1),%rsi
    400006fc:	4c 89 f7             	mov    %r14,%rdi
    400006ff:	ff d3                	call   *%rbx
    40000701:	48 85 c0             	test   %rax,%rax
    40000704:	0f 84 a1 04 00 00    	je     40000bab <main+0x51b>
    4000070a:	48 b8 48 61 81 00 00 	movabs $0x816148,%rax
    40000711:	00 00 00 
    40000714:	41 c7 04 04 01 00 00 	movl   $0x1,(%r12,%rax,1)
    4000071b:	00 
    4000071c:	49 be 98 ff ff ff ff 	movabs $0xffffffffffffff98,%r14
    40000723:	ff ff ff 
    40000726:	4b 8b 04 26          	mov    (%r14,%r12,1),%rax
    4000072a:	83 38 08             	cmpl   $0x8,(%rax)
    4000072d:	0f 8f 1d 04 00 00    	jg     40000b50 <main+0x4c0>
    40000733:	4b 8b 04 26          	mov    (%r14,%r12,1),%rax
    40000737:	8b 08                	mov    (%rax),%ecx
    40000739:	85 c9                	test   %ecx,%ecx
    4000073b:	0f 8e 7c 02 00 00    	jle    400009bd <main+0x32d>
    40000741:	31 c0                	xor    %eax,%eax
    40000743:	b9 10 00 00 00       	mov    $0x10,%ecx
    40000748:	be 80 00 00 00       	mov    $0x80,%esi
    4000074d:	4d 89 e7             	mov    %r12,%r15
    40000750:	48 8d 94 24 10 01 00 	lea    0x110(%rsp),%rdx
    40000757:	00 
    40000758:	48 89 d7             	mov    %rdx,%rdi
    4000075b:	f3 48 ab             	rep stos %rax,%es:(%rdi)
    4000075e:	31 ff                	xor    %edi,%edi
    40000760:	48 b8 10 91 3f c0 ff 	movabs $0xffffffffc03f9110,%rax
    40000767:	ff ff ff 
    4000076a:	4c 01 e0             	add    %r12,%rax
    4000076d:	ff d0                	call   *%rax
    4000076f:	85 c0                	test   %eax,%eax
    40000771:	0f 85 0b 04 00 00    	jne    40000b82 <main+0x4f2>
    40000777:	48 8b 94 24 10 01 00 	mov    0x110(%rsp),%rdx
    4000077e:	00 
    4000077f:	31 ed                	xor    %ebp,%ebp
    40000781:	31 c9                	xor    %ecx,%ecx
    40000783:	0f 1f 44 00 00       	nopl   0x0(%rax,%rax,1)
    40000788:	48 89 d0             	mov    %rdx,%rax
    4000078b:	48 d3 e8             	shr    %cl,%rax
    4000078e:	83 c1 01             	add    $0x1,%ecx
    40000791:	83 e0 01             	and    $0x1,%eax
    40000794:	01 c5                	add    %eax,%ebp
    40000796:	83 f9 40             	cmp    $0x40,%ecx
    40000799:	75 ed                	jne    40000788 <main+0xf8>
    4000079b:	45 31 ed             	xor    %r13d,%r13d
    4000079e:	4c 89 e9             	mov    %r13,%rcx
    400007a1:	48 81 f9 ff 03 00 00 	cmp    $0x3ff,%rcx
    400007a8:	0f 87 d2 01 00 00    	ja     40000980 <main+0x2f0>
    400007ae:	48 89 c8             	mov    %rcx,%rax
    400007b1:	48 c1 e8 06          	shr    $0x6,%rax
    400007b5:	48 8b 84 c4 10 01 00 	mov    0x110(%rsp,%rax,8),%rax
    400007bc:	00 
    400007bd:	48 d3 e8             	shr    %cl,%rax
    400007c0:	83 e0 01             	and    $0x1,%eax
    400007c3:	0f 84 b7 01 00 00    	je     40000980 <main+0x2f0>
    400007c9:	48 bb 60 53 80 00 00 	movabs $0x805360,%rbx
    400007d0:	00 00 00 
    400007d3:	48 89 44 24 20       	mov    %rax,0x20(%rsp)
    400007d8:	49 89 cd             	mov    %rcx,%r13
    400007db:	48 b8 40 a5 ff ff ff 	movabs $0xffffffffffffa540,%rax
    400007e2:	ff ff ff 
    400007e5:	89 4c 24 30          	mov    %ecx,0x30(%rsp)
    400007e9:	4a 8d 3c 23          	lea    (%rbx,%r12,1),%rdi
    400007ed:	4c 01 e0             	add    %r12,%rax
    400007f0:	48 89 5c 24 40       	mov    %rbx,0x40(%rsp)
    400007f5:	ff d0                	call   *%rax
    400007f7:	31 c9                	xor    %ecx,%ecx
    400007f9:	48 89 de             	mov    %rbx,%rsi
    400007fc:	42 c7 44 23 54 00 00 	movl   $0x0,0x54(%rbx,%r12,1)
    40000803:	00 00 
    40000805:	89 c8                	mov    %ecx,%eax
    40000807:	0f a2                	cpuid  
    40000809:	85 c0                	test   %eax,%eax
    4000080b:	74 13                	je     40000820 <main+0x190>
    4000080d:	48 b8 00 97 ff ff ff 	movabs $0xffffffffffff9700,%rax
    40000814:	ff ff ff 
    40000817:	4a 8d 3c 26          	lea    (%rsi,%r12,1),%rdi
    4000081b:	4c 01 e0             	add    %r12,%rax
    4000081e:	ff d0                	call   *%rax
    40000820:	4b 8b 04 26          	mov    (%r14,%r12,1),%rax
    40000824:	8b 00                	mov    (%rax),%eax
    40000826:	44 8d 40 ff          	lea    -0x1(%rax),%r8d
    4000082a:	85 c0                	test   %eax,%eax
    4000082c:	0f 8e b1 01 00 00    	jle    400009e3 <main+0x353>
    40000832:	89 e8                	mov    %ebp,%eax
    40000834:	44 89 44 24 08       	mov    %r8d,0x8(%rsp)
    40000839:	48 bb 30 90 3f c0 ff 	movabs $0xffffffffc03f9030,%rbx
    40000840:	ff ff ff 
    40000843:	d1 f8                	sar    %eax
    40000845:	89 6c 24 18          	mov    %ebp,0x18(%rsp)
    40000849:	89 44 24 38          	mov    %eax,0x38(%rsp)
    4000084d:	48 b8 20 60 81 00 00 	movabs $0x816020,%rax
    40000854:	00 00 00 
    40000857:	4d 8d 0c 04          	lea    (%r12,%rax,1),%r9
    4000085b:	4c 89 6c 24 28       	mov    %r13,0x28(%rsp)
    40000860:	45 89 c5             	mov    %r8d,%r13d
    40000863:	48 b8 e0 d1 ff ff ff 	movabs $0xffffffffffffd1e0,%rax
    4000086a:	ff ff ff 
    4000086d:	48 89 44 24 10       	mov    %rax,0x10(%rsp)
    40000872:	4c 89 cd             	mov    %r9,%rbp
    40000875:	44 8b 5c 24 08       	mov    0x8(%rsp),%r11d
    4000087a:	45 29 eb             	sub    %r13d,%r11d
    4000087d:	83 7c 24 18 03       	cmpl   $0x3,0x18(%rsp)
    40000882:	0f 8f 01 01 00 00    	jg     40000989 <main+0x2f9>
    40000888:	8b 44 24 28          	mov    0x28(%rsp),%eax
    4000088c:	44 01 e8             	add    %r13d,%eax
    4000088f:	89 45 00             	mov    %eax,0x0(%rbp)
    40000892:	48 8b 44 24 10       	mov    0x10(%rsp),%rax
    40000897:	44 89 da             	mov    %r11d,%edx
    4000089a:	8b 4d 00             	mov    0x0(%rbp),%ecx
    4000089d:	bf 01 00 00 00       	mov    $0x1,%edi
    400008a2:	4d 89 e7             	mov    %r12,%r15
    400008a5:	4e 8d 1c 23          	lea    (%rbx,%r12,1),%r11
    400008a9:	4a 8d 34 20          	lea    (%rax,%r12,1),%rsi
    400008ad:	31 c0                	xor    %eax,%eax
    400008af:	41 ff d3             	call   *%r11
    400008b2:	48 63 45 00          	movslq 0x0(%rbp),%rax
    400008b6:	48 89 c2             	mov    %rax,%rdx
    400008b9:	48 3d ff 03 00 00    	cmp    $0x3ff,%rax
    400008bf:	77 16                	ja     400008d7 <main+0x247>
    400008c1:	48 c1 e8 06          	shr    $0x6,%rax
    400008c5:	48 8b 84 c4 10 01 00 	mov    0x110(%rsp,%rax,8),%rax
    400008cc:	00 
    400008cd:	48 0f a3 d0          	bt     %rdx,%rax
    400008d1:	0f 82 f1 00 00 00    	jb     400009c8 <main+0x338>
    400008d7:	bf 01 00 00 00       	mov    $0x1,%edi
    400008dc:	4d 89 e7             	mov    %r12,%r15
    400008df:	4a 8d 0c 23          	lea    (%rbx,%r12,1),%rcx
    400008e3:	31 ed                	xor    %ebp,%ebp
    400008e5:	48 b8 08 d2 ff ff ff 	movabs $0xffffffffffffd208,%rax
    400008ec:	ff ff ff 
    400008ef:	49 bd 4b d3 ff ff ff 	movabs $0xffffffffffffd34b,%r13
    400008f6:	ff ff ff 
    400008f9:	49 8d 34 04          	lea    (%r12,%rax,1),%rsi
    400008fd:	31 c0                	xor    %eax,%eax
    400008ff:	ff d1                	call   *%rcx
    40000901:	0f 1f 80 00 00 00 00 	nopl   0x0(%rax)
    40000908:	48 8b 84 24 10 01 00 	mov    0x110(%rsp),%rax
    4000090f:	00 
    40000910:	48 0f a3 e8          	bt     %rbp,%rax
    40000914:	73 16                	jae    4000092c <main+0x29c>
    40000916:	89 ea                	mov    %ebp,%edx
    40000918:	4b 8d 34 2c          	lea    (%r12,%r13,1),%rsi
    4000091c:	bf 01 00 00 00       	mov    $0x1,%edi
    40000921:	4d 89 e7             	mov    %r12,%r15
    40000924:	31 c0                	xor    %eax,%eax
    40000926:	4a 8d 0c 23          	lea    (%rbx,%r12,1),%rcx
    4000092a:	ff d1                	call   *%rcx
    4000092c:	83 c5 01             	add    $0x1,%ebp
    4000092f:	83 fd 08             	cmp    $0x8,%ebp
    40000932:	75 d4                	jne    40000908 <main+0x278>
    40000934:	48 b8 d0 90 3f c0 ff 	movabs $0xffffffffc03f90d0,%rax
    4000093b:	ff ff ff 
    4000093e:	bf 0a 00 00 00       	mov    $0xa,%edi
    40000943:	4d 89 e7             	mov    %r12,%r15
    40000946:	4c 01 e0             	add    %r12,%rax
    40000949:	ff d0                	call   *%rax
    4000094b:	c7 44 24 78 01 00 00 	movl   $0x1,0x78(%rsp)
    40000952:	00 
    40000953:	48 8b 84 24 98 01 00 	mov    0x198(%rsp),%rax
    4000095a:	00 
    4000095b:	64 48 33 04 25 28 00 	xor    %fs:0x28,%rax
    40000962:	00 00 
    40000964:	0f 85 45 0b 00 00    	jne    400014af <main+0xe1f>
    4000096a:	8b 44 24 78          	mov    0x78(%rsp),%eax
    4000096e:	48 81 c4 a8 01 00 00 	add    $0x1a8,%rsp
    40000975:	5b                   	pop    %rbx
    40000976:	5d                   	pop    %rbp
    40000977:	41 5c                	pop    %r12
    40000979:	41 5d                	pop    %r13
    4000097b:	41 5e                	pop    %r14
    4000097d:	41 5f                	pop    %r15
    4000097f:	c3                   	ret    
    40000980:	48 83 c1 01          	add    $0x1,%rcx
    40000984:	e9 18 fe ff ff       	jmp    400007a1 <main+0x111>
    40000989:	48 8b 44 24 40       	mov    0x40(%rsp),%rax
    4000098e:	42 81 7c 20 54 00 08 	cmpl   $0x800,0x54(%rax,%r12,1)
    40000995:	00 00 
    40000997:	0f 84 43 02 00 00    	je     40000be0 <main+0x550>
    4000099d:	44 89 e8             	mov    %r13d,%eax
    400009a0:	be 02 00 00 00       	mov    $0x2,%esi
    400009a5:	99                   	cltd   
    400009a6:	f7 fe                	idiv   %esi
    400009a8:	0f af 54 24 38       	imul   0x38(%rsp),%edx
    400009ad:	01 c2                	add    %eax,%edx
    400009af:	8b 44 24 30          	mov    0x30(%rsp),%eax
    400009b3:	01 d0                	add    %edx,%eax
    400009b5:	89 45 00             	mov    %eax,0x0(%rbp)
    400009b8:	e9 d5 fe ff ff       	jmp    40000892 <main+0x202>
    400009bd:	c7 00 01 00 00 00    	movl   $0x1,(%rax)
    400009c3:	e9 79 fd ff ff       	jmp    40000741 <main+0xb1>
    400009c8:	8b 44 24 08          	mov    0x8(%rsp),%eax
    400009cc:	4b 8b 14 26          	mov    (%r14,%r12,1),%rdx
    400009d0:	41 83 ed 01          	sub    $0x1,%r13d
    400009d4:	48 83 c5 04          	add    $0x4,%rbp
    400009d8:	44 29 e8             	sub    %r13d,%eax
    400009db:	39 02                	cmp    %eax,(%rdx)
    400009dd:	0f 8f 92 fe ff ff    	jg     40000875 <main+0x1e5>
    400009e3:	48 b8 f0 9d ff ff ff 	movabs $0xffffffffffff9df0,%rax
    400009ea:	ff ff ff 
    400009ed:	48 8b 5c 24 40       	mov    0x40(%rsp),%rbx
    400009f2:	4c 01 e0             	add    %r12,%rax
    400009f5:	4a 8d 3c 23          	lea    (%rbx,%r12,1),%rdi
    400009f9:	ff d0                	call   *%rax
    400009fb:	4a 8d 3c 23          	lea    (%rbx,%r12,1),%rdi
    400009ff:	48 b8 50 ba ff ff ff 	movabs $0xffffffffffffba50,%rax
    40000a06:	ff ff ff 
    40000a09:	4c 01 e0             	add    %r12,%rax
    40000a0c:	ff d0                	call   *%rax
    40000a0e:	48 b8 48 61 81 00 00 	movabs $0x816148,%rax
    40000a15:	00 00 00 
    40000a18:	41 8b 04 04          	mov    (%r12,%rax,1),%eax
    40000a1c:	89 44 24 78          	mov    %eax,0x78(%rsp)
    40000a20:	85 c0                	test   %eax,%eax
    40000a22:	0f 85 5d 0a 00 00    	jne    40001485 <main+0xdf5>
    40000a28:	48 b8 a0 ff ff ff ff 	movabs $0xffffffffffffffa0,%rax
    40000a2f:	ff ff ff 
    40000a32:	48 89 44 24 50       	mov    %rax,0x50(%rsp)
    40000a37:	4a 8b 04 20          	mov    (%rax,%r12,1),%rax
    40000a3b:	83 38 00             	cmpl   $0x0,(%rax)
    40000a3e:	0f 85 4e 0a 00 00    	jne    40001492 <main+0xe02>
    40000a44:	ba ec ff ff ff       	mov    $0xffffffec,%edx
    40000a49:	31 f6                	xor    %esi,%esi
    40000a4b:	31 ff                	xor    %edi,%edi
    40000a4d:	4d 89 e7             	mov    %r12,%r15
    40000a50:	48 b8 50 90 3f c0 ff 	movabs $0xffffffffc03f9050,%rax
    40000a57:	ff ff ff 
    40000a5a:	48 8d 9c 24 a0 00 00 	lea    0xa0(%rsp),%rbx
    40000a61:	00 
    40000a62:	48 bd c0 99 ff ff ff 	movabs $0xffffffffffff99c0,%rbp
    40000a69:	ff ff ff 
    40000a6c:	48 89 44 24 08       	mov    %rax,0x8(%rsp)
    40000a71:	4c 01 e0             	add    %r12,%rax
    40000a74:	ff d0                	call   *%rax
    40000a76:	4b 8b 14 26          	mov    (%r14,%r12,1),%rdx
    40000a7a:	b8 08 00 00 00       	mov    $0x8,%eax
    40000a7f:	48 c7 84 24 e8 00 00 	movq   $0x0,0xe8(%rsp)
    40000a86:	00 00 00 00 00 
    40000a8b:	48 c7 84 24 f0 00 00 	movq   $0x0,0xf0(%rsp)
    40000a92:	00 00 00 00 00 
    40000a97:	83 3a 08             	cmpl   $0x8,(%rdx)
    40000a9a:	0f 4e 02             	cmovle (%rdx),%eax
    40000a9d:	48 c7 84 24 f8 00 00 	movq   $0x0,0xf8(%rsp)
    40000aa4:	00 00 00 00 00 
    40000aa9:	48 c7 84 24 00 01 00 	movq   $0x0,0x100(%rsp)
    40000ab0:	00 00 00 00 00 
    40000ab5:	89 84 24 a0 00 00 00 	mov    %eax,0xa0(%rsp)
    40000abc:	48 b8 50 d3 ff ff ff 	movabs $0xffffffffffffd350,%rax
    40000ac3:	ff ff ff 
    40000ac6:	48 89 9c 24 80 00 00 	mov    %rbx,0x80(%rsp)
    40000acd:	00 
    40000ace:	48 89 44 24 10       	mov    %rax,0x10(%rsp)
    40000ad3:	eb 0a                	jmp    40000adf <main+0x44f>
    40000ad5:	48 83 44 24 20 01    	addq   $0x1,0x20(%rsp)
    40000adb:	48 83 c3 04          	add    $0x4,%rbx
    40000adf:	48 8b 7c 24 20       	mov    0x20(%rsp),%rdi
    40000ae4:	8b 84 24 a0 00 00 00 	mov    0xa0(%rsp),%eax
    40000aeb:	44 8d 6f ff          	lea    -0x1(%rdi),%r13d
    40000aef:	83 e8 01             	sub    $0x1,%eax
    40000af2:	44 39 e8             	cmp    %r13d,%eax
    40000af5:	0f 8e 22 01 00 00    	jle    40000c1d <main+0x58d>
    40000afb:	31 f6                	xor    %esi,%esi
    40000afd:	44 89 6b 48          	mov    %r13d,0x48(%rbx)
    40000b01:	48 8d 4b 48          	lea    0x48(%rbx),%rcx
    40000b05:	4a 8d 54 25 00       	lea    0x0(%rbp,%r12,1),%rdx
    40000b0a:	48 8b 84 24 80 00 00 	mov    0x80(%rsp),%rax
    40000b11:	00 
    40000b12:	4d 89 e7             	mov    %r12,%r15
    40000b15:	48 8d 3c f8          	lea    (%rax,%rdi,8),%rdi
    40000b19:	48 b8 70 90 3f c0 ff 	movabs $0xffffffffc03f9070,%rax
    40000b20:	ff ff ff 
    40000b23:	4c 01 e0             	add    %r12,%rax
    40000b26:	ff d0                	call   *%rax
    40000b28:	85 c0                	test   %eax,%eax
    40000b2a:	74 a9                	je     40000ad5 <main+0x445>
    40000b2c:	48 8b 44 24 10       	mov    0x10(%rsp),%rax
    40000b31:	44 89 ea             	mov    %r13d,%edx
    40000b34:	bf 01 00 00 00       	mov    $0x1,%edi
    40000b39:	48 b9 30 90 3f c0 ff 	movabs $0xffffffffc03f9030,%rcx
    40000b40:	ff ff ff 
    40000b43:	4c 01 e1             	add    %r12,%rcx
    40000b46:	49 8d 34 04          	lea    (%r12,%rax,1),%rsi
    40000b4a:	31 c0                	xor    %eax,%eax
    40000b4c:	ff d1                	call   *%rcx
    40000b4e:	eb 85                	jmp    40000ad5 <main+0x445>
    40000b50:	c7 00 08 00 00 00    	movl   $0x8,(%rax)
    40000b56:	bf 01 00 00 00       	mov    $0x1,%edi
    40000b5b:	4d 89 e7             	mov    %r12,%r15
    40000b5e:	48 b8 39 d3 ff ff ff 	movabs $0xffffffffffffd339,%rax
    40000b65:	ff ff ff 
    40000b68:	48 bb 30 90 3f c0 ff 	movabs $0xffffffffc03f9030,%rbx
    40000b6f:	ff ff ff 
    40000b72:	49 8d 34 04          	lea    (%r12,%rax,1),%rsi
    40000b76:	31 c0                	xor    %eax,%eax
    40000b78:	4c 01 e3             	add    %r12,%rbx
    40000b7b:	ff d3                	call   *%rbx
    40000b7d:	e9 b1 fb ff ff       	jmp    40000733 <main+0xa3>
    40000b82:	48 b8 e3 d2 ff ff ff 	movabs $0xffffffffffffd2e3,%rax
    40000b89:	ff ff ff 
    40000b8c:	bf 01 00 00 00       	mov    $0x1,%edi
    40000b91:	48 bb 30 90 3f c0 ff 	movabs $0xffffffffc03f9030,%rbx
    40000b98:	ff ff ff 
    40000b9b:	49 8d 34 04          	lea    (%r12,%rax,1),%rsi
    40000b9f:	4c 01 e3             	add    %r12,%rbx
    40000ba2:	31 c0                	xor    %eax,%eax
    40000ba4:	ff d3                	call   *%rbx
    40000ba6:	e9 cc fb ff ff       	jmp    40000777 <main+0xe7>
    40000bab:	48 b8 a2 d2 ff ff ff 	movabs $0xffffffffffffd2a2,%rax
    40000bb2:	ff ff ff 
    40000bb5:	4c 89 f7             	mov    %r14,%rdi
    40000bb8:	49 8d 34 04          	lea    (%r12,%rax,1),%rsi
    40000bbc:	ff d3                	call   *%rbx
    40000bbe:	48 85 c0             	test   %rax,%rax
    40000bc1:	74 26                	je     40000be9 <main+0x559>
    40000bc3:	48 b8 10 bd ff ff ff 	movabs $0xffffffffffffbd10,%rax
    40000bca:	ff ff ff 
    40000bcd:	4c 89 ee             	mov    %r13,%rsi
    40000bd0:	89 ef                	mov    %ebp,%edi
    40000bd2:	4c 01 e0             	add    %r12,%rax
    40000bd5:	ff d0                	call   *%rax
    40000bd7:	89 44 24 78          	mov    %eax,0x78(%rsp)
    40000bdb:	e9 73 fd ff ff       	jmp    40000953 <main+0x2c3>
    40000be0:	44 89 5d 00          	mov    %r11d,0x0(%rbp)
    40000be4:	e9 a9 fc ff ff       	jmp    40000892 <main+0x202>
    40000be9:	48 b8 58 d1 ff ff ff 	movabs $0xffffffffffffd158,%rax
    40000bf0:	ff ff ff 
    40000bf3:	4c 89 f2             	mov    %r14,%rdx
    40000bf6:	bf 01 00 00 00       	mov    $0x1,%edi
    40000bfb:	48 b9 30 90 3f c0 ff 	movabs $0xffffffffc03f9030,%rcx
    40000c02:	ff ff ff 
    40000c05:	49 8d 34 04          	lea    (%r12,%rax,1),%rsi
    40000c09:	4c 01 e1             	add    %r12,%rcx
    40000c0c:	31 c0                	xor    %eax,%eax
    40000c0e:	ff d1                	call   *%rcx
    40000c10:	c7 44 24 78 01 00 00 	movl   $0x1,0x78(%rsp)
    40000c17:	00 
    40000c18:	e9 36 fd ff ff       	jmp    40000953 <main+0x2c3>
    40000c1d:	48 8b 9c 24 80 00 00 	mov    0x80(%rsp),%rbx
    40000c24:	00 
    40000c25:	48 63 d0             	movslq %eax,%rdx
    40000c28:	89 84 94 e8 00 00 00 	mov    %eax,0xe8(%rsp,%rdx,4)
    40000c2f:	4a 8d 44 25 00       	lea    0x0(%rbp,%r12,1),%rax
    40000c34:	48 8d 7c 93 48       	lea    0x48(%rbx,%rdx,4),%rdi
    40000c39:	ff d0                	call   *%rax
    40000c3b:	83 bc 24 a0 00 00 00 	cmpl   $0x0,0xa0(%rsp)
    40000c42:	00 
    40000c43:	74 12                	je     40000c57 <main+0x5c7>
    40000c45:	48 b8 40 95 ff ff ff 	movabs $0xffffffffffff9540,%rax
    40000c4c:	ff ff ff 
    40000c4f:	48 89 df             	mov    %rbx,%rdi
    40000c52:	4c 01 e0             	add    %r12,%rax
    40000c55:	ff d0                	call   *%rax
    40000c57:	4c 8b 6c 24 08       	mov    0x8(%rsp),%r13
    40000c5c:	31 d2                	xor    %edx,%edx
    40000c5e:	31 f6                	xor    %esi,%esi
    40000c60:	31 ff                	xor    %edi,%edi
    40000c62:	4d 89 e7             	mov    %r12,%r15
    40000c65:	4d 01 e5             	add    %r12,%r13
    40000c68:	41 ff d5             	call   *%r13
    40000c6b:	48 8b 44 24 40       	mov    0x40(%rsp),%rax
    40000c70:	4a 8d 3c 20          	lea    (%rax,%r12,1),%rdi
    40000c74:	48 b8 f0 9f ff ff ff 	movabs $0xffffffffffff9ff0,%rax
    40000c7b:	ff ff ff 
    40000c7e:	4c 01 e0             	add    %r12,%rax
    40000c81:	ff d0                	call   *%rax
    40000c83:	c7 44 24 7c 00 00 00 	movl   $0x0,0x7c(%rsp)
    40000c8a:	00 
    40000c8b:	48 b8 e0 5f 81 00 00 	movabs $0x815fe0,%rax
    40000c92:	00 00 00 
    40000c95:	4c 01 e0             	add    %r12,%rax
    40000c98:	48 89 44 24 70       	mov    %rax,0x70(%rsp)
    40000c9d:	4b 8b 04 26          	mov    (%r14,%r12,1),%rax
    40000ca1:	48 89 84 24 90 00 00 	mov    %rax,0x90(%rsp)
    40000ca8:	00 
    40000ca9:	48 b8 6c d3 ff ff ff 	movabs $0xffffffffffffd36c,%rax
    40000cb0:	ff ff ff 
    40000cb3:	4c 01 e0             	add    %r12,%rax
    40000cb6:	48 89 84 24 98 00 00 	mov    %rax,0x98(%rsp)
    40000cbd:	00 
    40000cbe:	48 b8 30 90 3f c0 ff 	movabs $0xffffffffc03f9030,%rax
    40000cc5:	ff ff ff 
    40000cc8:	48 89 44 24 08       	mov    %rax,0x8(%rsp)
    40000ccd:	48 8b 84 24 90 00 00 	mov    0x90(%rsp),%rax
    40000cd4:	00 
    40000cd5:	8b 5c 24 7c          	mov    0x7c(%rsp),%ebx
    40000cd9:	39 18                	cmp    %ebx,(%rax)
    40000cdb:	0f 8e 67 07 00 00    	jle    40001448 <main+0xdb8>
    40000ce1:	48 8b 4c 24 08       	mov    0x8(%rsp),%rcx
    40000ce6:	89 da                	mov    %ebx,%edx
    40000ce8:	bf 01 00 00 00       	mov    $0x1,%edi
    40000ced:	4d 89 e7             	mov    %r12,%r15
    40000cf0:	48 8b b4 24 98 00 00 	mov    0x98(%rsp),%rsi
    40000cf7:	00 
    40000cf8:	31 c0                	xor    %eax,%eax
    40000cfa:	4c 01 e1             	add    %r12,%rcx
    40000cfd:	ff d1                	call   *%rcx
    40000cff:	48 b8 80 ff ff ff ff 	movabs $0xffffffffffffff80,%rax
    40000d06:	ff ff ff 
    40000d09:	48 ba a8 ff ff ff ff 	movabs $0xffffffffffffffa8,%rdx
    40000d10:	ff ff ff 
    40000d13:	48 be d8 5f 81 00 00 	movabs $0x815fd8,%rsi
    40000d1a:	00 00 00 
    40000d1d:	49 8b 04 04          	mov    (%r12,%rax,1),%rax
    40000d21:	49 8b 14 14          	mov    (%r12,%rdx,1),%rdx
    40000d25:	48 89 74 24 10       	mov    %rsi,0x10(%rsp)
    40000d2a:	48 63 00             	movslq (%rax),%rax
    40000d2d:	48 63 12             	movslq (%rdx),%rdx
    40000d30:	48 c1 e8 02          	shr    $0x2,%rax
    40000d34:	48 c1 ea 02          	shr    $0x2,%rdx
    40000d38:	0f af c3             	imul   %ebx,%eax
    40000d3b:	89 54 24 30          	mov    %edx,0x30(%rsp)
    40000d3f:	48 ba d0 ff ff ff ff 	movabs $0xffffffffffffffd0,%rdx
    40000d46:	ff ff ff 
    40000d49:	49 8b 14 14          	mov    (%r12,%rdx,1),%rdx
    40000d4d:	89 44 24 20          	mov    %eax,0x20(%rsp)
    40000d51:	8b 3a                	mov    (%rdx),%edi
    40000d53:	48 b8 90 ff ff ff ff 	movabs $0xffffffffffffff90,%rax
    40000d5a:	ff ff ff 
    40000d5d:	48 ba 70 ff ff ff ff 	movabs $0xffffffffffffff70,%rdx
    40000d64:	ff ff ff 
    40000d67:	49 8b 04 04          	mov    (%r12,%rax,1),%rax
    40000d6b:	49 8b 14 14          	mov    (%r12,%rdx,1),%rdx
    40000d6f:	89 bc 24 88 00 00 00 	mov    %edi,0x88(%rsp)
    40000d76:	48 63 00             	movslq (%rax),%rax
    40000d79:	8b 3a                	mov    (%rdx),%edi
    40000d7b:	48 c1 e8 02          	shr    $0x2,%rax
    40000d7f:	42 83 3c 26 00       	cmpl   $0x0,(%rsi,%r12,1)
    40000d84:	89 bc 24 8c 00 00 00 	mov    %edi,0x8c(%rsp)
    40000d8b:	0f 8e bf 02 00 00    	jle    40001050 <main+0x9c0>
    40000d91:	48 c7 44 24 28 00 00 	movq   $0x0,0x28(%rsp)
    40000d98:	00 00 
    40000d9a:	48 63 54 24 20       	movslq 0x20(%rsp),%rdx
    40000d9f:	48 98                	cltq   
    40000da1:	49 bd e0 ff ff ff ff 	movabs $0xffffffffffffffe0,%r13
    40000da8:	ff ff ff 
    40000dab:	48 01 c2             	add    %rax,%rdx
    40000dae:	48 6b c0 fc          	imul   $0xfffffffffffffffc,%rax,%rax
    40000db2:	48 8d 34 95 00 00 00 	lea    0x0(,%rdx,4),%rsi
    40000db9:	00 
    40000dba:	48 89 74 24 38       	mov    %rsi,0x38(%rsp)
    40000dbf:	48 be 87 d3 ff ff ff 	movabs $0xffffffffffffd387,%rsi
    40000dc6:	ff ff ff 
    40000dc9:	48 89 44 24 68       	mov    %rax,0x68(%rsp)
    40000dce:	48 b8 78 ff ff ff ff 	movabs $0xffffffffffffff78,%rax
    40000dd5:	ff ff ff 
    40000dd8:	48 89 44 24 48       	mov    %rax,0x48(%rsp)
    40000ddd:	4a 8b 04 20          	mov    (%rax,%r12,1),%rax
    40000de1:	48 89 74 24 60       	mov    %rsi,0x60(%rsp)
    40000de6:	48 89 44 24 58       	mov    %rax,0x58(%rsp)
    40000deb:	48 b8 0a d4 ff ff ff 	movabs $0xffffffffffffd40a,%rax
    40000df2:	ff ff ff 
    40000df5:	4a 8d 2c 20          	lea    (%rax,%r12,1),%rbp
    40000df9:	0f 1f 80 00 00 00 00 	nopl   0x0(%rax)
    40000e00:	8b 44 24 28          	mov    0x28(%rsp),%eax
    40000e04:	48 8b 5c 24 38       	mov    0x38(%rsp),%rbx
    40000e09:	bf 01 00 00 00       	mov    $0x1,%edi
    40000e0e:	4d 89 e7             	mov    %r12,%r15
    40000e11:	48 8b 4c 24 08       	mov    0x8(%rsp),%rcx
    40000e16:	89 44 24 18          	mov    %eax,0x18(%rsp)
    40000e1a:	48 8b 44 24 58       	mov    0x58(%rsp),%rax
    40000e1f:	4c 01 e1             	add    %r12,%rcx
    40000e22:	48 8b 00             	mov    (%rax),%rax
    40000e25:	8b 1c 18             	mov    (%rax,%rbx,1),%ebx
    40000e28:	48 8b 44 24 60       	mov    0x60(%rsp),%rax
    40000e2d:	89 da                	mov    %ebx,%edx
    40000e2f:	4a 8d 34 20          	lea    (%rax,%r12,1),%rsi
    40000e33:	31 c0                	xor    %eax,%eax
    40000e35:	ff d1                	call   *%rcx
    40000e37:	48 8b 44 24 50       	mov    0x50(%rsp),%rax
    40000e3c:	4a 8b 04 20          	mov    (%rax,%r12,1),%rax
    40000e40:	8b 10                	mov    (%rax),%edx
    40000e42:	85 d2                	test   %edx,%edx
    40000e44:	74 6d                	je     40000eb3 <main+0x823>
    40000e46:	48 8b 44 24 40       	mov    0x40(%rsp),%rax
    40000e4b:	42 81 7c 20 58 00 20 	cmpl   $0x2000,0x58(%rax,%r12,1)
    40000e52:	00 00 
    40000e54:	0f 84 ec 03 00 00    	je     40001246 <main+0xbb6>
    40000e5a:	4b 8b 44 25 00       	mov    0x0(%r13,%r12,1),%rax
    40000e5f:	8b 00                	mov    (%rax),%eax
    40000e61:	85 c0                	test   %eax,%eax
    40000e63:	7e 4e                	jle    40000eb3 <main+0x823>
    40000e65:	48 8b 44 24 48       	mov    0x48(%rsp),%rax
    40000e6a:	31 db                	xor    %ebx,%ebx
    40000e6c:	4e 8b 34 20          	mov    (%rax,%r12,1),%r14
    40000e70:	48 8b 74 24 10       	mov    0x10(%rsp),%rsi
    40000e75:	49 8b 16             	mov    (%r14),%rdx
    40000e78:	bf 01 00 00 00       	mov    $0x1,%edi
    40000e7d:	4d 89 e7             	mov    %r12,%r15
    40000e80:	48 8b 4c 24 08       	mov    0x8(%rsp),%rcx
    40000e85:	42 8b 04 26          	mov    (%rsi,%r12,1),%eax
    40000e89:	48 89 ee             	mov    %rbp,%rsi
    40000e8c:	4c 01 e1             	add    %r12,%rcx
    40000e8f:	0f af c3             	imul   %ebx,%eax
    40000e92:	03 44 24 18          	add    0x18(%rsp),%eax
    40000e96:	03 44 24 20          	add    0x20(%rsp),%eax
    40000e9a:	03 44 24 30          	add    0x30(%rsp),%eax
    40000e9e:	48 98                	cltq   
    40000ea0:	8b 14 82             	mov    (%rdx,%rax,4),%edx
    40000ea3:	31 c0                	xor    %eax,%eax
    40000ea5:	ff d1                	call   *%rcx
    40000ea7:	4b 8b 44 25 00       	mov    0x0(%r13,%r12,1),%rax
    40000eac:	83 c3 01             	add    $0x1,%ebx
    40000eaf:	39 18                	cmp    %ebx,(%rax)
    40000eb1:	7f bd                	jg     40000e70 <main+0x7e0>
    40000eb3:	48 be f0 ff ff ff ff 	movabs $0xfffffffffffffff0,%rsi
    40000eba:	ff ff ff 
    40000ebd:	4a 8b 04 26          	mov    (%rsi,%r12,1),%rax
    40000ec1:	8b 08                	mov    (%rax),%ecx
    40000ec3:	85 c9                	test   %ecx,%ecx
    40000ec5:	0f 84 db 00 00 00    	je     40000fa6 <main+0x916>
    40000ecb:	8b 50 04             	mov    0x4(%rax),%edx
    40000ece:	8b 78 08             	mov    0x8(%rax),%edi
    40000ed1:	85 d2                	test   %edx,%edx
    40000ed3:	0f 85 70 02 00 00    	jne    40001149 <main+0xab9>
    40000ed9:	48 8b 44 24 48       	mov    0x48(%rsp),%rax
    40000ede:	48 8b 5c 24 38       	mov    0x38(%rsp),%rbx
    40000ee3:	4a 8b 04 20          	mov    (%rax,%r12,1),%rax
    40000ee7:	48 8b 00             	mov    (%rax),%rax
    40000eea:	44 8b 04 18          	mov    (%rax,%rbx,1),%r8d
    40000eee:	48 8b 44 24 40       	mov    0x40(%rsp),%rax
    40000ef3:	42 81 7c 20 58 00 20 	cmpl   $0x2000,0x58(%rax,%r12,1)
    40000efa:	00 00 
    40000efc:	0f 84 83 03 00 00    	je     40001285 <main+0xbf5>
    40000f02:	44 89 c0             	mov    %r8d,%eax
    40000f05:	85 ff                	test   %edi,%edi
    40000f07:	74 39                	je     40000f42 <main+0x8b2>
    40000f09:	4b 8b 54 25 00       	mov    0x0(%r13,%r12,1),%rdx
    40000f0e:	3b 3a                	cmp    (%rdx),%edi
    40000f10:	0f 87 25 03 00 00    	ja     4000123b <main+0xbab>
    40000f16:	8d 57 ff             	lea    -0x1(%rdi),%edx
    40000f19:	48 8b 7c 24 10       	mov    0x10(%rsp),%rdi
    40000f1e:	42 0f af 14 27       	imul   (%rdi,%r12,1),%edx
    40000f23:	48 8b 7c 24 48       	mov    0x48(%rsp),%rdi
    40000f28:	03 54 24 18          	add    0x18(%rsp),%edx
    40000f2c:	03 54 24 20          	add    0x20(%rsp),%edx
    40000f30:	4a 8b 3c 27          	mov    (%rdi,%r12,1),%rdi
    40000f34:	03 54 24 30          	add    0x30(%rsp),%edx
    40000f38:	48 63 d2             	movslq %edx,%rdx
    40000f3b:	48 8b 3f             	mov    (%rdi),%rdi
    40000f3e:	44 8b 04 97          	mov    (%rdi,%rdx,4),%r8d
    40000f42:	45 85 c0             	test   %r8d,%r8d
    40000f45:	0f 84 ba 02 00 00    	je     40001205 <main+0xb75>
    40000f4b:	4a 8b 14 26          	mov    (%rsi,%r12,1),%rdx
    40000f4f:	83 e9 01             	sub    $0x1,%ecx
    40000f52:	8b 52 0c             	mov    0xc(%rdx),%edx
    40000f55:	0f 84 84 02 00 00    	je     400011df <main+0xb4f>
    40000f5b:	66 0f ef c9          	pxor   %xmm1,%xmm1
    40000f5f:	66 0f 6e d2          	movd   %edx,%xmm2
    40000f63:	66 0f ef c0          	pxor   %xmm0,%xmm0
    40000f67:	4d 89 e7             	mov    %r12,%r15
    40000f6a:	f2 0f 2a c8          	cvtsi2sd %eax,%xmm1
    40000f6e:	f3 0f 5a c2          	cvtss2sd %xmm2,%xmm0
    40000f72:	48 8b 5c 24 08       	mov    0x8(%rsp),%rbx
    40000f77:	48 b8 98 d3 ff ff ff 	movabs $0xffffffffffffd398,%rax
    40000f7e:	ff ff ff 
    40000f81:	49 8d 34 04          	lea    (%r12,%rax,1),%rsi
    40000f85:	bf 01 00 00 00       	mov    $0x1,%edi
    40000f8a:	b8 01 00 00 00       	mov    $0x1,%eax
    40000f8f:	4a 8d 14 23          	lea    (%rbx,%r12,1),%rdx
    40000f93:	f2 0f 59 c1          	mulsd  %xmm1,%xmm0
    40000f97:	66 0f ef c9          	pxor   %xmm1,%xmm1
    40000f9b:	f2 41 0f 2a c8       	cvtsi2sd %r8d,%xmm1
    40000fa0:	f2 0f 5e c1          	divsd  %xmm1,%xmm0
    40000fa4:	ff d2                	call   *%rdx
    40000fa6:	48 b8 d8 ff ff ff ff 	movabs $0xffffffffffffffd8,%rax
    40000fad:	ff ff ff 
    40000fb0:	49 8b 04 04          	mov    (%r12,%rax,1),%rax
    40000fb4:	8b 10                	mov    (%rax),%edx
    40000fb6:	85 d2                	test   %edx,%edx
    40000fb8:	74 76                	je     40001030 <main+0x9a0>
    40000fba:	48 8b 44 24 48       	mov    0x48(%rsp),%rax
    40000fbf:	48 8b 5c 24 28       	mov    0x28(%rsp),%rbx
    40000fc4:	4a 8b 0c 20          	mov    (%rax,%r12,1),%rcx
    40000fc8:	48 8b 44 24 38       	mov    0x38(%rsp),%rax
    40000fcd:	48 03 44 24 68       	add    0x68(%rsp),%rax
    40000fd2:	48 03 01             	add    (%rcx),%rax
    40000fd5:	f6 c2 01             	test   $0x1,%dl
    40000fd8:	48 8d 0c 98          	lea    (%rax,%rbx,4),%rcx
    40000fdc:	48 0f 45 c1          	cmovne %rcx,%rax
    40000fe0:	83 fa 08             	cmp    $0x8,%edx
    40000fe3:	0f 87 d3 02 00 00    	ja     400012bc <main+0xc2c>
    40000fe9:	89 d6                	mov    %edx,%esi
    40000feb:	48 8d 0d c6 49 00 00 	lea    0x49c6(%rip),%rcx        # 400059b8 <_IO_stdin_used+0x9b8>
    40000ff2:	48 03 0c f1          	add    (%rcx,%rsi,8),%rcx
    40000ff6:	3e ff e1             	notrack jmp *%rcx
    40000ff9:	66 0f ef c0          	pxor   %xmm0,%xmm0
    40000ffd:	f3 0f 5a 00          	cvtss2sd (%rax),%xmm0
    40001001:	48 8b 44 24 70       	mov    0x70(%rsp),%rax
    40001006:	f2 0f 5e 00          	divsd  (%rax),%xmm0
    4000100a:	48 8b 5c 24 08       	mov    0x8(%rsp),%rbx
    4000100f:	bf 01 00 00 00       	mov    $0x1,%edi
    40001014:	4d 89 e7             	mov    %r12,%r15
    40001017:	48 b8 be d3 ff ff ff 	movabs $0xffffffffffffd3be,%rax
    4000101e:	ff ff ff 
    40001021:	49 8d 34 04          	lea    (%r12,%rax,1),%rsi
    40001025:	b8 01 00 00 00       	mov    $0x1,%eax
    4000102a:	4a 8d 14 23          	lea    (%rbx,%r12,1),%rdx
    4000102e:	ff d2                	call   *%rdx
    40001030:	48 8b 7c 24 10       	mov    0x10(%rsp),%rdi
    40001035:	48 83 44 24 28 01    	addq   $0x1,0x28(%rsp)
    4000103b:	48 83 44 24 38 04    	addq   $0x4,0x38(%rsp)
    40001041:	48 8b 44 24 28       	mov    0x28(%rsp),%rax
    40001046:	42 39 04 27          	cmp    %eax,(%rdi,%r12,1)
    4000104a:	0f 8f b0 fd ff ff    	jg     40000e00 <main+0x770>
    40001050:	48 8b 44 24 40       	mov    0x40(%rsp),%rax
    40001055:	42 81 7c 20 58 00 20 	cmpl   $0x2000,0x58(%rax,%r12,1)
    4000105c:	00 00 
    4000105e:	0f 84 b0 03 00 00    	je     40001414 <main+0xd84>
    40001064:	48 b8 b0 ff ff ff ff 	movabs $0xffffffffffffffb0,%rax
    4000106b:	ff ff ff 
    4000106e:	49 8b 04 04          	mov    (%r12,%rax,1),%rax
    40001072:	83 38 00             	cmpl   $0x0,(%rax)
    40001075:	0f 85 50 02 00 00    	jne    400012cb <main+0xc3b>
    4000107b:	48 b8 d0 90 3f c0 ff 	movabs $0xffffffffc03f90d0,%rax
    40001082:	ff ff ff 
    40001085:	bf 0a 00 00 00       	mov    $0xa,%edi
    4000108a:	4d 89 e7             	mov    %r12,%r15
    4000108d:	4c 01 e0             	add    %r12,%rax
    40001090:	ff d0                	call   *%rax
    40001092:	83 44 24 7c 01       	addl   $0x1,0x7c(%rsp)
    40001097:	48 83 44 24 70 08    	addq   $0x8,0x70(%rsp)
    4000109d:	e9 2b fc ff ff       	jmp    40000ccd <main+0x63d>
    400010a2:	48 8b 5c 24 08       	mov    0x8(%rsp),%rbx
    400010a7:	48 8b 10             	mov    (%rax),%rdx
    400010aa:	bf 01 00 00 00       	mov    $0x1,%edi
    400010af:	4d 89 e7             	mov    %r12,%r15
    400010b2:	48 b8 a5 d3 ff ff ff 	movabs $0xffffffffffffd3a5,%rax
    400010b9:	ff ff ff 
    400010bc:	49 8d 34 04          	lea    (%r12,%rax,1),%rsi
    400010c0:	4a 8d 0c 23          	lea    (%rbx,%r12,1),%rcx
    400010c4:	31 c0                	xor    %eax,%eax
    400010c6:	ff d1                	call   *%rcx
    400010c8:	e9 63 ff ff ff       	jmp    40001030 <main+0x9a0>
    400010cd:	8b 10                	mov    (%rax),%edx
    400010cf:	48 b8 a0 d3 ff ff ff 	movabs $0xffffffffffffd3a0,%rax
    400010d6:	ff ff ff 
    400010d9:	48 8b 5c 24 08       	mov    0x8(%rsp),%rbx
    400010de:	49 8d 34 04          	lea    (%r12,%rax,1),%rsi
    400010e2:	bf 01 00 00 00       	mov    $0x1,%edi
    400010e7:	4d 89 e7             	mov    %r12,%r15
    400010ea:	31 c0                	xor    %eax,%eax
    400010ec:	4a 8d 0c 23          	lea    (%rbx,%r12,1),%rcx
    400010f0:	ff d1                	call   *%rcx
    400010f2:	e9 39 ff ff ff       	jmp    40001030 <main+0x9a0>
    400010f7:	f2 0f 10 00          	movsd  (%rax),%xmm0
    400010fb:	e9 0a ff ff ff       	jmp    4000100a <main+0x97a>
    40001100:	66 0f ef c0          	pxor   %xmm0,%xmm0
    40001104:	f3 0f 5a 00          	cvtss2sd (%rax),%xmm0
    40001108:	e9 fd fe ff ff       	jmp    4000100a <main+0x97a>
    4000110d:	48 8b 5c 24 08       	mov    0x8(%rsp),%rbx
    40001112:	8b 50 04             	mov    0x4(%rax),%edx
    40001115:	bf 01 00 00 00       	mov    $0x1,%edi
    4000111a:	4d 89 e7             	mov    %r12,%r15
    4000111d:	8b 08                	mov    (%rax),%ecx
    4000111f:	48 b8 b3 d3 ff ff ff 	movabs $0xffffffffffffd3b3,%rax
    40001126:	ff ff ff 
    40001129:	49 8d 34 04          	lea    (%r12,%rax,1),%rsi
    4000112d:	4e 8d 04 23          	lea    (%rbx,%r12,1),%r8
    40001131:	31 c0                	xor    %eax,%eax
    40001133:	41 ff d0             	call   *%r8
    40001136:	e9 f5 fe ff ff       	jmp    40001030 <main+0x9a0>
    4000113b:	8b 10                	mov    (%rax),%edx
    4000113d:	48 b8 ac d3 ff ff ff 	movabs $0xffffffffffffd3ac,%rax
    40001144:	ff ff ff 
    40001147:	eb 90                	jmp    400010d9 <main+0xa49>
    40001149:	4f 8b 44 25 00       	mov    0x0(%r13,%r12,1),%r8
    4000114e:	b8 01 00 00 00       	mov    $0x1,%eax
    40001153:	41 3b 10             	cmp    (%r8),%edx
    40001156:	77 2a                	ja     40001182 <main+0xaf2>
    40001158:	48 8b 5c 24 10       	mov    0x10(%rsp),%rbx
    4000115d:	8d 42 ff             	lea    -0x1(%rdx),%eax
    40001160:	42 0f af 04 23       	imul   (%rbx,%r12,1),%eax
    40001165:	48 8b 5c 24 48       	mov    0x48(%rsp),%rbx
    4000116a:	03 44 24 18          	add    0x18(%rsp),%eax
    4000116e:	03 44 24 20          	add    0x20(%rsp),%eax
    40001172:	4a 8b 14 23          	mov    (%rbx,%r12,1),%rdx
    40001176:	03 44 24 30          	add    0x30(%rsp),%eax
    4000117a:	48 98                	cltq   
    4000117c:	48 8b 12             	mov    (%rdx),%rdx
    4000117f:	8b 04 82             	mov    (%rdx,%rax,4),%eax
    40001182:	85 ff                	test   %edi,%edi
    40001184:	0f 85 7f fd ff ff    	jne    40000f09 <main+0x879>
    4000118a:	48 8b 7c 24 48       	mov    0x48(%rsp),%rdi
    4000118f:	4a 8b 14 27          	mov    (%rdi,%r12,1),%rdx
    40001193:	48 8b 7c 24 38       	mov    0x38(%rsp),%rdi
    40001198:	48 8b 12             	mov    (%rdx),%rdx
    4000119b:	44 8b 04 3a          	mov    (%rdx,%rdi,1),%r8d
    4000119f:	48 8b 7c 24 40       	mov    0x40(%rsp),%rdi
    400011a4:	42 81 7c 27 58 00 20 	cmpl   $0x2000,0x58(%rdi,%r12,1)
    400011ab:	00 00 
    400011ad:	0f 85 8f fd ff ff    	jne    40000f42 <main+0x8b2>
    400011b3:	48 ba 88 da ff ff ff 	movabs $0xffffffffffffda88,%rdx
    400011ba:	ff ff ff 
    400011bd:	66 0f ef c0          	pxor   %xmm0,%xmm0
    400011c1:	f2 41 0f 2a c0       	cvtsi2sd %r8d,%xmm0
    400011c6:	48 8b 7c 24 70       	mov    0x70(%rsp),%rdi
    400011cb:	f2 0f 59 07          	mulsd  (%rdi),%xmm0
    400011cf:	f2 42 0f 58 04 22    	addsd  (%rdx,%r12,1),%xmm0
    400011d5:	f2 44 0f 2c c0       	cvttsd2si %xmm0,%r8d
    400011da:	e9 63 fd ff ff       	jmp    40000f42 <main+0x8b2>
    400011df:	0f af c2             	imul   %edx,%eax
    400011e2:	48 8b 5c 24 08       	mov    0x8(%rsp),%rbx
    400011e7:	48 89 ee             	mov    %rbp,%rsi
    400011ea:	bf 01 00 00 00       	mov    $0x1,%edi
    400011ef:	4d 89 e7             	mov    %r12,%r15
    400011f2:	4a 8d 0c 23          	lea    (%rbx,%r12,1),%rcx
    400011f6:	99                   	cltd   
    400011f7:	41 f7 f8             	idiv   %r8d
    400011fa:	89 c2                	mov    %eax,%edx
    400011fc:	31 c0                	xor    %eax,%eax
    400011fe:	ff d1                	call   *%rcx
    40001200:	e9 a1 fd ff ff       	jmp    40000fa6 <main+0x916>
    40001205:	48 8b 5c 24 08       	mov    0x8(%rsp),%rbx
    4000120a:	bf 01 00 00 00       	mov    $0x1,%edi
    4000120f:	4d 89 e7             	mov    %r12,%r15
    40001212:	48 b8 8f d3 ff ff ff 	movabs $0xffffffffffffd38f,%rax
    40001219:	ff ff ff 
    4000121c:	49 8d 14 04          	lea    (%r12,%rax,1),%rdx
    40001220:	48 b8 93 d3 ff ff ff 	movabs $0xffffffffffffd393,%rax
    40001227:	ff ff ff 
    4000122a:	49 8d 34 04          	lea    (%r12,%rax,1),%rsi
    4000122e:	4a 8d 0c 23          	lea    (%rbx,%r12,1),%rcx
    40001232:	31 c0                	xor    %eax,%eax
    40001234:	ff d1                	call   *%rcx
    40001236:	e9 6b fd ff ff       	jmp    40000fa6 <main+0x916>
    4000123b:	41 b8 01 00 00 00    	mov    $0x1,%r8d
    40001241:	e9 05 fd ff ff       	jmp    40000f4b <main+0x8bb>
    40001246:	48 8b 44 24 70       	mov    0x70(%rsp),%rax
    4000124b:	66 0f ef c0          	pxor   %xmm0,%xmm0
    4000124f:	48 89 ee             	mov    %rbp,%rsi
    40001252:	bf 01 00 00 00       	mov    $0x1,%edi
    40001257:	48 ba 88 da ff ff ff 	movabs $0xffffffffffffda88,%rdx
    4000125e:	ff ff ff 
    40001261:	f2 0f 2a c3          	cvtsi2sd %ebx,%xmm0
    40001265:	48 8b 5c 24 08       	mov    0x8(%rsp),%rbx
    4000126a:	f2 0f 59 00          	mulsd  (%rax),%xmm0
    4000126e:	31 c0                	xor    %eax,%eax
    40001270:	f2 42 0f 58 04 22    	addsd  (%rdx,%r12,1),%xmm0
    40001276:	4a 8d 0c 23          	lea    (%rbx,%r12,1),%rcx
    4000127a:	f2 0f 2c d0          	cvttsd2si %xmm0,%edx
    4000127e:	ff d1                	call   *%rcx
    40001280:	e9 d5 fb ff ff       	jmp    40000e5a <main+0x7ca>
    40001285:	66 0f ef c0          	pxor   %xmm0,%xmm0
    40001289:	48 8b 44 24 70       	mov    0x70(%rsp),%rax
    4000128e:	48 ba 88 da ff ff ff 	movabs $0xffffffffffffda88,%rdx
    40001295:	ff ff ff 
    40001298:	f2 41 0f 2a c0       	cvtsi2sd %r8d,%xmm0
    4000129d:	f2 0f 10 08          	movsd  (%rax),%xmm1
    400012a1:	f2 0f 59 c8          	mulsd  %xmm0,%xmm1
    400012a5:	f2 42 0f 58 0c 22    	addsd  (%rdx,%r12,1),%xmm1
    400012ab:	f2 0f 2c c1          	cvttsd2si %xmm1,%eax
    400012af:	85 ff                	test   %edi,%edi
    400012b1:	0f 85 52 fc ff ff    	jne    40000f09 <main+0x879>
    400012b7:	e9 0a ff ff ff       	jmp    400011c6 <main+0xb36>
    400012bc:	48 b8 c5 d3 ff ff ff 	movabs $0xffffffffffffd3c5,%rax
    400012c3:	ff ff ff 
    400012c6:	e9 0e fe ff ff       	jmp    400010d9 <main+0xa49>
    400012cb:	48 8b 5c 24 08       	mov    0x8(%rsp),%rbx
    400012d0:	bf 01 00 00 00       	mov    $0x1,%edi
    400012d5:	4d 89 e7             	mov    %r12,%r15
    400012d8:	48 b8 ec d3 ff ff ff 	movabs $0xffffffffffffd3ec,%rax
    400012df:	ff ff ff 
    400012e2:	49 8d 34 04          	lea    (%r12,%rax,1),%rsi
    400012e6:	31 c0                	xor    %eax,%eax
    400012e8:	4a 8d 14 23          	lea    (%rbx,%r12,1),%rdx
    400012ec:	ff d2                	call   *%rdx
    400012ee:	48 63 84 24 88 00 00 	movslq 0x88(%rsp),%rax
    400012f5:	00 
    400012f6:	48 63 54 24 20       	movslq 0x20(%rsp),%rdx
    400012fb:	31 ed                	xor    %ebp,%ebp
    400012fd:	49 bd e0 ff ff ff ff 	movabs $0xffffffffffffffe0,%r13
    40001304:	ff ff ff 
    40001307:	48 c1 e8 02          	shr    $0x2,%rax
    4000130b:	89 44 24 28          	mov    %eax,0x28(%rsp)
    4000130f:	48 63 84 24 8c 00 00 	movslq 0x8c(%rsp),%rax
    40001316:	00 
    40001317:	48 c1 f8 02          	sar    $0x2,%rax
    4000131b:	48 01 d0             	add    %rdx,%rax
    4000131e:	48 c1 e0 02          	shl    $0x2,%rax
    40001322:	48 89 44 24 30       	mov    %rax,0x30(%rsp)
    40001327:	48 b8 78 ff ff ff ff 	movabs $0xffffffffffffff78,%rax
    4000132e:	ff ff ff 
    40001331:	48 89 44 24 38       	mov    %rax,0x38(%rsp)
    40001336:	48 b8 09 d4 ff ff ff 	movabs $0xffffffffffffd409,%rax
    4000133d:	ff ff ff 
    40001340:	4c 01 e0             	add    %r12,%rax
    40001343:	48 89 44 24 48       	mov    %rax,0x48(%rsp)
    40001348:	eb 09                	jmp    40001353 <main+0xcc3>
    4000134a:	48 83 44 24 30 04    	addq   $0x4,0x30(%rsp)
    40001350:	83 c5 01             	add    $0x1,%ebp
    40001353:	48 8b 44 24 10       	mov    0x10(%rsp),%rax
    40001358:	42 39 2c 20          	cmp    %ebp,(%rax,%r12,1)
    4000135c:	0f 8e 19 fd ff ff    	jle    4000107b <main+0x9eb>
    40001362:	48 8b 44 24 38       	mov    0x38(%rsp),%rax
    40001367:	48 8b 74 24 30       	mov    0x30(%rsp),%rsi
    4000136c:	bf 01 00 00 00       	mov    $0x1,%edi
    40001371:	4d 89 e7             	mov    %r12,%r15
    40001374:	48 8b 5c 24 08       	mov    0x8(%rsp),%rbx
    40001379:	4a 8b 04 20          	mov    (%rax,%r12,1),%rax
    4000137d:	4a 8d 0c 23          	lea    (%rbx,%r12,1),%rcx
    40001381:	48 8b 00             	mov    (%rax),%rax
    40001384:	8b 14 30             	mov    (%rax,%rsi,1),%edx
    40001387:	48 8b 74 24 48       	mov    0x48(%rsp),%rsi
    4000138c:	31 c0                	xor    %eax,%eax
    4000138e:	ff d1                	call   *%rcx
    40001390:	48 8b 44 24 50       	mov    0x50(%rsp),%rax
    40001395:	4a 8b 04 20          	mov    (%rax,%r12,1),%rax
    40001399:	83 38 00             	cmpl   $0x0,(%rax)
    4000139c:	74 ac                	je     4000134a <main+0xcba>
    4000139e:	4b 8b 44 25 00       	mov    0x0(%r13,%r12,1),%rax
    400013a3:	83 38 00             	cmpl   $0x0,(%rax)
    400013a6:	7e a2                	jle    4000134a <main+0xcba>
    400013a8:	48 b8 0a d4 ff ff ff 	movabs $0xffffffffffffd40a,%rax
    400013af:	ff ff ff 
    400013b2:	31 db                	xor    %ebx,%ebx
    400013b4:	48 89 44 24 18       	mov    %rax,0x18(%rsp)
    400013b9:	48 8b 44 24 38       	mov    0x38(%rsp),%rax
    400013be:	4e 8b 34 20          	mov    (%rax,%r12,1),%r14
    400013c2:	66 0f 1f 44 00 00    	nopw   0x0(%rax,%rax,1)
    400013c8:	48 8b 7c 24 10       	mov    0x10(%rsp),%rdi
    400013cd:	49 8b 16             	mov    (%r14),%rdx
    400013d0:	4d 89 e7             	mov    %r12,%r15
    400013d3:	48 8b 4c 24 08       	mov    0x8(%rsp),%rcx
    400013d8:	42 8b 04 27          	mov    (%rdi,%r12,1),%eax
    400013dc:	bf 01 00 00 00       	mov    $0x1,%edi
    400013e1:	4c 01 e1             	add    %r12,%rcx
    400013e4:	0f af c3             	imul   %ebx,%eax
    400013e7:	01 e8                	add    %ebp,%eax
    400013e9:	03 44 24 20          	add    0x20(%rsp),%eax
    400013ed:	03 44 24 28          	add    0x28(%rsp),%eax
    400013f1:	48 98                	cltq   
    400013f3:	8b 14 82             	mov    (%rdx,%rax,4),%edx
    400013f6:	48 8b 44 24 18       	mov    0x18(%rsp),%rax
    400013fb:	4a 8d 34 20          	lea    (%rax,%r12,1),%rsi
    400013ff:	31 c0                	xor    %eax,%eax
    40001401:	ff d1                	call   *%rcx
    40001403:	4b 8b 44 25 00       	mov    0x0(%r13,%r12,1),%rax
    40001408:	83 c3 01             	add    $0x1,%ebx
    4000140b:	39 18                	cmp    %ebx,(%rax)
    4000140d:	7f b9                	jg     400013c8 <main+0xd38>
    4000140f:	e9 36 ff ff ff       	jmp    4000134a <main+0xcba>
    40001414:	48 8b 44 24 70       	mov    0x70(%rsp),%rax
    40001419:	48 8b 5c 24 08       	mov    0x8(%rsp),%rbx
    4000141e:	bf 01 00 00 00       	mov    $0x1,%edi
    40001423:	4d 89 e7             	mov    %r12,%r15
    40001426:	f2 0f 10 00          	movsd  (%rax),%xmm0
    4000142a:	4a 8d 14 23          	lea    (%rbx,%r12,1),%rdx
    4000142e:	48 b8 d8 d3 ff ff ff 	movabs $0xffffffffffffd3d8,%rax
    40001435:	ff ff ff 
    40001438:	49 8d 34 04          	lea    (%r12,%rax,1),%rsi
    4000143c:	b8 01 00 00 00       	mov    $0x1,%eax
    40001441:	ff d2                	call   *%rdx
    40001443:	e9 1c fc ff ff       	jmp    40001064 <main+0x9d4>
    40001448:	48 b8 d0 90 3f c0 ff 	movabs $0xffffffffc03f90d0,%rax
    4000144f:	ff ff ff 
    40001452:	bf 0a 00 00 00       	mov    $0xa,%edi
    40001457:	4d 89 e7             	mov    %r12,%r15
    4000145a:	4c 01 e0             	add    %r12,%rax
    4000145d:	ff d0                	call   *%rax
    4000145f:	83 bc 24 a0 00 00 00 	cmpl   $0x0,0xa0(%rsp)
    40001466:	00 
    40001467:	74 1c                	je     40001485 <main+0xdf5>
    40001469:	48 b8 40 95 ff ff ff 	movabs $0xffffffffffff9540,%rax
    40001470:	ff ff ff 
    40001473:	48 8b bc 24 80 00 00 	mov    0x80(%rsp),%rdi
    4000147a:	00 
    4000147b:	4c 01 e0             	add    %r12,%rax
    4000147e:	ff d0                	call   *%rax
    40001480:	e9 ce f4 ff ff       	jmp    40000953 <main+0x2c3>
    40001485:	c7 44 24 78 00 00 00 	movl   $0x0,0x78(%rsp)
    4000148c:	00 
    4000148d:	e9 c1 f4 ff ff       	jmp    40000953 <main+0x2c3>
    40001492:	48 8b 44 24 40       	mov    0x40(%rsp),%rax
    40001497:	4a 8d 3c 20          	lea    (%rax,%r12,1),%rdi
    4000149b:	48 b8 f0 95 ff ff ff 	movabs $0xffffffffffff95f0,%rax
    400014a2:	ff ff ff 
    400014a5:	4c 01 e0             	add    %r12,%rax
    400014a8:	ff d0                	call   *%rax
    400014aa:	e9 95 f5 ff ff       	jmp    40000a44 <main+0x3b4>
    400014af:	48 b8 c0 90 3f c0 ff 	movabs $0xffffffffc03f90c0,%rax
    400014b6:	ff ff ff 
    400014b9:	4d 89 e7             	mov    %r12,%r15
    400014bc:	4c 01 e0             	add    %r12,%rax
    400014bf:	ff d0                	call   *%rax
    400014c1:	f3 0f 1e fa          	endbr64 
    400014c5:	48 89 c5             	mov    %rax,%rbp
    400014c8:	e9 7e f1 ff ff       	jmp    4000064b <main.cold>
    400014cd:	0f 1f 00             	nopl   (%rax)

00000000400014d0 <_GLOBAL__sub_I_diagnostics>:
    400014d0:	f3 0f 1e fa          	endbr64 
    400014d4:	f3 0f 1e fa          	endbr64 
    400014d8:	49 bb 2c 6b 00 00 00 	movabs $0x6b2c,%r11
    400014df:	00 00 00 
    400014e2:	41 57                	push   %r15
    400014e4:	4c 8d 3d e9 ff ff ff 	lea    -0x17(%rip),%r15        # 400014d4 <_GLOBAL__sub_I_diagnostics+0x4>
    400014eb:	49 b8 60 53 80 00 00 	movabs $0x805360,%r8
    400014f2:	00 00 00 
    400014f5:	48 b8 c0 9c ff ff ff 	movabs $0xffffffffffff9cc0,%rax
    400014fc:	ff ff ff 
    400014ff:	4d 01 df             	add    %r11,%r15
    40001502:	4b 8d 3c 07          	lea    (%r15,%r8,1),%rdi
    40001506:	4c 01 f8             	add    %r15,%rax
    40001509:	ff d0                	call   *%rax
    4000150b:	48 b8 c8 00 00 00 00 	movabs $0xc8,%rax
    40001512:	00 00 00 
    40001515:	49 8d 14 07          	lea    (%r15,%rax,1),%rdx
    40001519:	4b 8d 34 07          	lea    (%r15,%r8,1),%rsi
    4000151d:	48 b8 e0 c2 ff ff ff 	movabs $0xffffffffffffc2e0,%rax
    40001524:	ff ff ff 
    40001527:	49 8d 3c 07          	lea    (%r15,%rax,1),%rdi
    4000152b:	48 b8 a0 90 3f c0 ff 	movabs $0xffffffffc03f90a0,%rax
    40001532:	ff ff ff 
    40001535:	4c 01 f8             	add    %r15,%rax
    40001538:	41 5f                	pop    %r15
    4000153a:	ff e0                	jmp    *%rax
    4000153c:	0f 1f 40 00          	nopl   0x0(%rax)

0000000040001540 <_ZN13ThreadHandler4StopEv.part.0>:
    40001540:	f3 0f 1e fa          	endbr64 
    40001544:	f3 0f 1e fa          	endbr64 
    40001548:	49 bb bc 6a 00 00 00 	movabs $0x6abc,%r11
    4000154f:	00 00 00 
    40001552:	41 57                	push   %r15
    40001554:	4c 8d 3d e9 ff ff ff 	lea    -0x17(%rip),%r15        # 40001544 <_ZN13ThreadHandler4StopEv.part.0+0x4>
    4000155b:	41 55                	push   %r13
    4000155d:	4d 01 df             	add    %r11,%r15
    40001560:	49 89 fd             	mov    %rdi,%r13
    40001563:	41 54                	push   %r12
    40001565:	55                   	push   %rbp
    40001566:	53                   	push   %rbx
    40001567:	83 3f 01             	cmpl   $0x1,(%rdi)
    4000156a:	7e 68                	jle    400015d4 <_ZN13ThreadHandler4StopEv.part.0+0x94>
    4000156c:	48 bd 60 90 3f c0 ff 	movabs $0xffffffffc03f9060,%rbp
    40001573:	ff ff ff 
    40001576:	31 db                	xor    %ebx,%ebx
    40001578:	49 bc 08 d0 ff ff ff 	movabs $0xffffffffffffd008,%r12
    4000157f:	ff ff ff 
    40001582:	eb 13                	jmp    40001597 <_ZN13ThreadHandler4StopEv.part.0+0x57>
    40001584:	0f 1f 40 00          	nopl   0x0(%rax)
    40001588:	41 8b 45 00          	mov    0x0(%r13),%eax
    4000158c:	48 83 c3 01          	add    $0x1,%rbx
    40001590:	83 e8 01             	sub    $0x1,%eax
    40001593:	39 d8                	cmp    %ebx,%eax
    40001595:	7e 3d                	jle    400015d4 <_ZN13ThreadHandler4StopEv.part.0+0x94>
    40001597:	31 f6                	xor    %esi,%esi
    40001599:	49 8b 7c dd 08       	mov    0x8(%r13,%rbx,8),%rdi
    4000159e:	4a 8d 44 3d 00       	lea    0x0(%rbp,%r15,1),%rax
    400015a3:	ff d0                	call   *%rax
    400015a5:	85 c0                	test   %eax,%eax
    400015a7:	74 df                	je     40001588 <_ZN13ThreadHandler4StopEv.part.0+0x48>
    400015a9:	89 da                	mov    %ebx,%edx
    400015ab:	4b 8d 34 27          	lea    (%r15,%r12,1),%rsi
    400015af:	bf 01 00 00 00       	mov    $0x1,%edi
    400015b4:	31 c0                	xor    %eax,%eax
    400015b6:	48 b9 30 90 3f c0 ff 	movabs $0xffffffffc03f9030,%rcx
    400015bd:	ff ff ff 
    400015c0:	48 83 c3 01          	add    $0x1,%rbx
    400015c4:	4c 01 f9             	add    %r15,%rcx
    400015c7:	ff d1                	call   *%rcx
    400015c9:	41 8b 45 00          	mov    0x0(%r13),%eax
    400015cd:	83 e8 01             	sub    $0x1,%eax
    400015d0:	39 d8                	cmp    %ebx,%eax
    400015d2:	7f c3                	jg     40001597 <_ZN13ThreadHandler4StopEv.part.0+0x57>
    400015d4:	5b                   	pop    %rbx
    400015d5:	5d                   	pop    %rbp
    400015d6:	41 c7 45 00 00 00 00 	movl   $0x0,0x0(%r13)
    400015dd:	00 
    400015de:	41 5c                	pop    %r12
    400015e0:	41 5d                	pop    %r13
    400015e2:	41 5f                	pop    %r15
    400015e4:	c3                   	ret    
    400015e5:	90                   	nop
    400015e6:	66 2e 0f 1f 84 00 00 	cs nopw 0x0(%rax,%rax,1)
    400015ed:	00 00 00 

00000000400015f0 <_ZN9CCounters11StartDriverEv.part.0>:
    400015f0:	f3 0f 1e fa          	endbr64 
    400015f4:	f3 0f 1e fa          	endbr64 
    400015f8:	48 ba 80 90 3f c0 ff 	movabs $0xffffffffc03f9080,%rdx
    400015ff:	ff ff ff 
    40001602:	41 57                	push   %r15
    40001604:	31 f6                	xor    %esi,%esi
    40001606:	31 c0                	xor    %eax,%eax
    40001608:	53                   	push   %rbx
    40001609:	4c 8d 3d e4 ff ff ff 	lea    -0x1c(%rip),%r15        # 400015f4 <_ZN9CCounters11StartDriverEv.part.0+0x4>
    40001610:	48 89 fb             	mov    %rdi,%rbx
    40001613:	49 bb 0c 6a 00 00 00 	movabs $0x6a0c,%r11
    4000161a:	00 00 00 
    4000161d:	4d 01 df             	add    %r11,%r15
    40001620:	4c 01 fa             	add    %r15,%rdx
    40001623:	48 83 ec 08          	sub    $0x8,%rsp
    40001627:	48 8b 3f             	mov    (%rdi),%rdi
    4000162a:	ff d2                	call   *%rdx
    4000162c:	45 31 c0             	xor    %r8d,%r8d
    4000162f:	89 43 08             	mov    %eax,0x8(%rbx)
    40001632:	83 f8 ff             	cmp    $0xffffffff,%eax
    40001635:	74 11                	je     40001648 <_ZN9CCounters11StartDriverEv.part.0+0x58>
    40001637:	48 83 c4 08          	add    $0x8,%rsp
    4000163b:	44 89 c0             	mov    %r8d,%eax
    4000163e:	5b                   	pop    %rbx
    4000163f:	41 5f                	pop    %r15
    40001641:	c3                   	ret    
    40001642:	66 0f 1f 44 00 00    	nopw   0x0(%rax,%rax,1)
    40001648:	48 b8 3c d2 ff ff ff 	movabs $0xffffffffffffd23c,%rax
    4000164f:	ff ff ff 
    40001652:	48 8b 13             	mov    (%rbx),%rdx
    40001655:	bf 01 00 00 00       	mov    $0x1,%edi
    4000165a:	48 b9 30 90 3f c0 ff 	movabs $0xffffffffc03f9030,%rcx
    40001661:	ff ff ff 
    40001664:	49 8d 34 07          	lea    (%r15,%rax,1),%rsi
    40001668:	4c 01 f9             	add    %r15,%rcx
    4000166b:	31 c0                	xor    %eax,%eax
    4000166d:	ff d1                	call   *%rcx
    4000166f:	c7 43 08 00 00 00 00 	movl   $0x0,0x8(%rbx)
    40001676:	41 b8 01 00 00 00    	mov    $0x1,%r8d
    4000167c:	48 83 c4 08          	add    $0x8,%rsp
    40001680:	44 89 c0             	mov    %r8d,%eax
    40001683:	5b                   	pop    %rbx
    40001684:	41 5f                	pop    %r15
    40001686:	c3                   	ret    
    40001687:	90                   	nop
    40001688:	0f 1f 84 00 00 00 00 	nopl   0x0(%rax,%rax,1)
    4000168f:	00 

0000000040001690 <_ZN9CCounters12StopCountersEi.part.0>:
    40001690:	f3 0f 1e fa          	endbr64 
    40001694:	f3 0f 1e fa          	endbr64 
    40001698:	49 bb 6c 69 00 00 00 	movabs $0x696c,%r11
    4000169f:	00 00 00 
    400016a2:	48 63 f6             	movslq %esi,%rsi
    400016a5:	41 57                	push   %r15
    400016a7:	4c 8d 3d e6 ff ff ff 	lea    -0x1a(%rip),%r15        # 40001694 <_ZN9CCounters12StopCountersEi.part.0+0x4>
    400016ae:	48 69 f6 18 02 00 00 	imul   $0x218,%rsi,%rsi
    400016b5:	4d 01 df             	add    %r11,%r15
    400016b8:	48 8d 94 37 60 86 00 	lea    0x8660(%rdi,%rsi,1),%rdx
    400016bf:	00 
    400016c0:	8b 82 10 02 00 00    	mov    0x210(%rdx),%eax
    400016c6:	c1 e0 04             	shl    $0x4,%eax
    400016c9:	85 c0                	test   %eax,%eax
    400016cb:	7e 23                	jle    400016f0 <_ZN9CCounters12StopCountersEi.part.0+0x60>
    400016cd:	8b 7f 08             	mov    0x8(%rdi),%edi
    400016d0:	85 ff                	test   %edi,%edi
    400016d2:	74 1c                	je     400016f0 <_ZN9CCounters12StopCountersEi.part.0+0x60>
    400016d4:	48 b9 f0 90 3f c0 ff 	movabs $0xffffffffc03f90f0,%rcx
    400016db:	ff ff ff 
    400016de:	be 01 f9 00 00       	mov    $0xf901,%esi
    400016e3:	31 c0                	xor    %eax,%eax
    400016e5:	4c 01 f9             	add    %r15,%rcx
    400016e8:	41 5f                	pop    %r15
    400016ea:	ff e1                	jmp    *%rcx
    400016ec:	0f 1f 40 00          	nopl   0x0(%rax)
    400016f0:	41 5f                	pop    %r15
    400016f2:	c3                   	ret    
    400016f3:	90                   	nop
    400016f4:	66 66 2e 0f 1f 84 00 	data16 cs nopw 0x0(%rax,%rax,1)
    400016fb:	00 00 00 00 
    400016ff:	90                   	nop

0000000040001700 <_ZN9CCounters18GetProcessorFamilyEv.part.0>:
    40001700:	f3 0f 1e fa          	endbr64 
    40001704:	f3 0f 1e fa          	endbr64 
    40001708:	41 57                	push   %r15
    4000170a:	b8 01 00 00 00       	mov    $0x1,%eax
    4000170f:	31 c9                	xor    %ecx,%ecx
    40001711:	4c 8d 3d ec ff ff ff 	lea    -0x14(%rip),%r15        # 40001704 <_ZN9CCounters18GetProcessorFamilyEv.part.0+0x4>
    40001718:	49 bb fc 68 00 00 00 	movabs $0x68fc,%r11
    4000171f:	00 00 00 
    40001722:	53                   	push   %rbx
    40001723:	0f a2                	cpuid  
    40001725:	89 c2                	mov    %eax,%edx
    40001727:	89 c1                	mov    %eax,%ecx
    40001729:	4d 01 df             	add    %r11,%r15
    4000172c:	c1 fa 08             	sar    $0x8,%edx
    4000172f:	c1 f9 14             	sar    $0x14,%ecx
    40001732:	0f b6 c9             	movzbl %cl,%ecx
    40001735:	83 e2 0f             	and    $0xf,%edx
    40001738:	01 ca                	add    %ecx,%edx
    4000173a:	89 c1                	mov    %eax,%ecx
    4000173c:	c1 f8 0c             	sar    $0xc,%eax
    4000173f:	c1 f9 04             	sar    $0x4,%ecx
    40001742:	25 f0 00 00 00       	and    $0xf0,%eax
    40001747:	83 e1 0f             	and    $0xf,%ecx
    4000174a:	09 c8                	or     %ecx,%eax
    4000174c:	8b 4f 50             	mov    0x50(%rdi),%ecx
    4000174f:	83 f9 01             	cmp    $0x1,%ecx
    40001752:	74 7c                	je     400017d0 <_ZN9CCounters18GetProcessorFamilyEv.part.0+0xd0>
    40001754:	83 f9 02             	cmp    $0x2,%ecx
    40001757:	75 57                	jne    400017b0 <_ZN9CCounters18GetProcessorFamilyEv.part.0+0xb0>
    40001759:	83 fa 06             	cmp    $0x6,%edx
    4000175c:	0f 84 06 01 00 00    	je     40001868 <_ZN9CCounters18GetProcessorFamilyEv.part.0+0x168>
    40001762:	8d 4a f1             	lea    -0xf(%rdx),%ecx
    40001765:	83 f9 05             	cmp    $0x5,%ecx
    40001768:	0f 86 b2 00 00 00    	jbe    40001820 <_ZN9CCounters18GetProcessorFamilyEv.part.0+0x120>
    4000176e:	83 fa 14             	cmp    $0x14,%edx
    40001771:	0f 8e c7 01 00 00    	jle    4000193e <_ZN9CCounters18GetProcessorFamilyEv.part.0+0x23e>
    40001777:	83 fa 16             	cmp    $0x16,%edx
    4000177a:	0f 8e b2 01 00 00    	jle    40001932 <_ZN9CCounters18GetProcessorFamilyEv.part.0+0x232>
    40001780:	c7 47 54 00 00 08 00 	movl   $0x80000,0x54(%rdi)
    40001787:	66 0f 1f 84 00 00 00 	nopw   0x0(%rax,%rax,1)
    4000178e:	00 00 
    40001790:	48 b9 48 61 81 00 00 	movabs $0x816148,%rcx
    40001797:	00 00 00 
    4000179a:	41 8b 0c 0f          	mov    (%r15,%rcx,1),%ecx
    4000179e:	85 c9                	test   %ecx,%ecx
    400017a0:	75 4e                	jne    400017f0 <_ZN9CCounters18GetProcessorFamilyEv.part.0+0xf0>
    400017a2:	5b                   	pop    %rbx
    400017a3:	41 5f                	pop    %r15
    400017a5:	c3                   	ret    
    400017a6:	66 2e 0f 1f 84 00 00 	cs nopw 0x0(%rax,%rax,1)
    400017ad:	00 00 00 
    400017b0:	83 f9 03             	cmp    $0x3,%ecx
    400017b3:	75 db                	jne    40001790 <_ZN9CCounters18GetProcessorFamilyEv.part.0+0x90>
    400017b5:	83 fa 06             	cmp    $0x6,%edx
    400017b8:	75 d6                	jne    40001790 <_ZN9CCounters18GetProcessorFamilyEv.part.0+0x90>
    400017ba:	83 f8 0e             	cmp    $0xe,%eax
    400017bd:	7e d1                	jle    40001790 <_ZN9CCounters18GetProcessorFamilyEv.part.0+0x90>
    400017bf:	c7 47 54 00 00 10 00 	movl   $0x100000,0x54(%rdi)
    400017c6:	eb c8                	jmp    40001790 <_ZN9CCounters18GetProcessorFamilyEv.part.0+0x90>
    400017c8:	0f 1f 84 00 00 00 00 	nopl   0x0(%rax,%rax,1)
    400017cf:	00 
    400017d0:	83 fa 05             	cmp    $0x5,%edx
    400017d3:	0f 84 7f 00 00 00    	je     40001858 <_ZN9CCounters18GetProcessorFamilyEv.part.0+0x158>
    400017d9:	83 fa 0f             	cmp    $0xf,%edx
    400017dc:	75 52                	jne    40001830 <_ZN9CCounters18GetProcessorFamilyEv.part.0+0x130>
    400017de:	c7 47 54 08 00 00 00 	movl   $0x8,0x54(%rdi)
    400017e5:	eb a9                	jmp    40001790 <_ZN9CCounters18GetProcessorFamilyEv.part.0+0x90>
    400017e7:	66 0f 1f 84 00 00 00 	nopw   0x0(%rax,%rax,1)
    400017ee:	00 00 
    400017f0:	89 c1                	mov    %eax,%ecx
    400017f2:	44 8b 47 54          	mov    0x54(%rdi),%r8d
    400017f6:	5b                   	pop    %rbx
    400017f7:	bf 01 00 00 00       	mov    $0x1,%edi
    400017fc:	48 b8 28 d0 ff ff ff 	movabs $0xffffffffffffd028,%rax
    40001803:	ff ff ff 
    40001806:	49 b9 30 90 3f c0 ff 	movabs $0xffffffffc03f9030,%r9
    4000180d:	ff ff ff 
    40001810:	49 8d 34 07          	lea    (%r15,%rax,1),%rsi
    40001814:	4d 01 f9             	add    %r15,%r9
    40001817:	31 c0                	xor    %eax,%eax
    40001819:	41 5f                	pop    %r15
    4000181b:	41 ff e1             	jmp    *%r9
    4000181e:	66 90                	xchg   %ax,%ax
    40001820:	c7 47 54 00 00 02 00 	movl   $0x20000,0x54(%rdi)
    40001827:	e9 64 ff ff ff       	jmp    40001790 <_ZN9CCounters18GetProcessorFamilyEv.part.0+0x90>
    4000182c:	0f 1f 40 00          	nopl   0x0(%rax)
    40001830:	83 fa 06             	cmp    $0x6,%edx
    40001833:	0f 85 57 ff ff ff    	jne    40001790 <_ZN9CCounters18GetProcessorFamilyEv.part.0+0x90>
    40001839:	8d 48 f7             	lea    -0x9(%rax),%ecx
    4000183c:	81 f9 91 00 00 00    	cmp    $0x91,%ecx
    40001842:	77 7d                	ja     400018c1 <_ZN9CCounters18GetProcessorFamilyEv.part.0+0x1c1>
    40001844:	89 ce                	mov    %ecx,%esi
    40001846:	48 8d 0d d3 3b 00 00 	lea    0x3bd3(%rip),%rcx        # 40005420 <_IO_stdin_used+0x420>
    4000184d:	48 03 0c f1          	add    (%rcx,%rsi,8),%rcx
    40001851:	3e ff e1             	notrack jmp *%rcx
    40001854:	0f 1f 40 00          	nopl   0x0(%rax)
    40001858:	c7 47 54 01 00 00 00 	movl   $0x1,0x54(%rdi)
    4000185f:	e9 2c ff ff ff       	jmp    40001790 <_ZN9CCounters18GetProcessorFamilyEv.part.0+0x90>
    40001864:	0f 1f 40 00          	nopl   0x0(%rax)
    40001868:	c7 47 54 00 00 01 00 	movl   $0x10000,0x54(%rdi)
    4000186f:	e9 1c ff ff ff       	jmp    40001790 <_ZN9CCounters18GetProcessorFamilyEv.part.0+0x90>
    40001874:	c7 47 54 00 01 00 00 	movl   $0x100,0x54(%rdi)
    4000187b:	e9 10 ff ff ff       	jmp    40001790 <_ZN9CCounters18GetProcessorFamilyEv.part.0+0x90>
    40001880:	c7 47 54 80 00 00 00 	movl   $0x80,0x54(%rdi)
    40001887:	e9 04 ff ff ff       	jmp    40001790 <_ZN9CCounters18GetProcessorFamilyEv.part.0+0x90>
    4000188c:	c7 47 54 40 00 00 00 	movl   $0x40,0x54(%rdi)
    40001893:	e9 f8 fe ff ff       	jmp    40001790 <_ZN9CCounters18GetProcessorFamilyEv.part.0+0x90>
    40001898:	c7 47 54 20 00 00 00 	movl   $0x20,0x54(%rdi)
    4000189f:	e9 ec fe ff ff       	jmp    40001790 <_ZN9CCounters18GetProcessorFamilyEv.part.0+0x90>
    400018a4:	83 f8 5d             	cmp    $0x5d,%eax
    400018a7:	7e cb                	jle    40001874 <_ZN9CCounters18GetProcessorFamilyEv.part.0+0x174>
    400018a9:	83 f8 7d             	cmp    $0x7d,%eax
    400018ac:	7e 54                	jle    40001902 <_ZN9CCounters18GetProcessorFamilyEv.part.0+0x202>
    400018ae:	3d 96 00 00 00       	cmp    $0x96,%eax
    400018b3:	7e 29                	jle    400018de <_ZN9CCounters18GetProcessorFamilyEv.part.0+0x1de>
    400018b5:	c7 47 54 00 08 00 00 	movl   $0x800,0x54(%rdi)
    400018bc:	e9 cf fe ff ff       	jmp    40001790 <_ZN9CCounters18GetProcessorFamilyEv.part.0+0x90>
    400018c1:	83 f8 3b             	cmp    $0x3b,%eax
    400018c4:	7f de                	jg     400018a4 <_ZN9CCounters18GetProcessorFamilyEv.part.0+0x1a4>
    400018c6:	c7 47 54 02 00 00 00 	movl   $0x2,0x54(%rdi)
    400018cd:	e9 be fe ff ff       	jmp    40001790 <_ZN9CCounters18GetProcessorFamilyEv.part.0+0x90>
    400018d2:	c7 47 54 00 20 00 00 	movl   $0x2000,0x54(%rdi)
    400018d9:	e9 b2 fe ff ff       	jmp    40001790 <_ZN9CCounters18GetProcessorFamilyEv.part.0+0x90>
    400018de:	c7 47 54 00 04 00 00 	movl   $0x400,0x54(%rdi)
    400018e5:	e9 a6 fe ff ff       	jmp    40001790 <_ZN9CCounters18GetProcessorFamilyEv.part.0+0x90>
    400018ea:	c7 47 54 00 40 00 00 	movl   $0x4000,0x54(%rdi)
    400018f1:	e9 9a fe ff ff       	jmp    40001790 <_ZN9CCounters18GetProcessorFamilyEv.part.0+0x90>
    400018f6:	c7 47 54 00 80 00 00 	movl   $0x8000,0x54(%rdi)
    400018fd:	e9 8e fe ff ff       	jmp    40001790 <_ZN9CCounters18GetProcessorFamilyEv.part.0+0x90>
    40001902:	c7 47 54 00 02 00 00 	movl   $0x200,0x54(%rdi)
    40001909:	e9 82 fe ff ff       	jmp    40001790 <_ZN9CCounters18GetProcessorFamilyEv.part.0+0x90>
    4000190e:	c7 47 54 10 00 00 00 	movl   $0x10,0x54(%rdi)
    40001915:	e9 76 fe ff ff       	jmp    40001790 <_ZN9CCounters18GetProcessorFamilyEv.part.0+0x90>
    4000191a:	c7 47 54 04 00 00 00 	movl   $0x4,0x54(%rdi)
    40001921:	e9 6a fe ff ff       	jmp    40001790 <_ZN9CCounters18GetProcessorFamilyEv.part.0+0x90>
    40001926:	c7 47 54 00 10 00 00 	movl   $0x1000,0x54(%rdi)
    4000192d:	e9 5e fe ff ff       	jmp    40001790 <_ZN9CCounters18GetProcessorFamilyEv.part.0+0x90>
    40001932:	c7 47 54 00 00 04 00 	movl   $0x40000,0x54(%rdi)
    40001939:	e9 52 fe ff ff       	jmp    40001790 <_ZN9CCounters18GetProcessorFamilyEv.part.0+0x90>
    4000193e:	c7 47 54 00 00 00 00 	movl   $0x0,0x54(%rdi)
    40001945:	e9 46 fe ff ff       	jmp    40001790 <_ZN9CCounters18GetProcessorFamilyEv.part.0+0x90>
    4000194a:	66 0f 1f 44 00 00    	nopw   0x0(%rax,%rax,1)

0000000040001950 <_ZN9CCounters13StartCountersEi.part.0>:
    40001950:	f3 0f 1e fa          	endbr64 
    40001954:	f3 0f 1e fa          	endbr64 
    40001958:	49 bb ac 66 00 00 00 	movabs $0x66ac,%r11
    4000195f:	00 00 00 
    40001962:	48 63 f6             	movslq %esi,%rsi
    40001965:	41 57                	push   %r15
    40001967:	4c 8d 3d e6 ff ff ff 	lea    -0x1a(%rip),%r15        # 40001954 <_ZN9CCounters13StartCountersEi.part.0+0x4>
    4000196e:	48 69 f6 18 02 00 00 	imul   $0x218,%rsi,%rsi
    40001975:	4d 01 df             	add    %r11,%r15
    40001978:	48 8d 54 37 60       	lea    0x60(%rdi,%rsi,1),%rdx
    4000197d:	8b 82 10 02 00 00    	mov    0x210(%rdx),%eax
    40001983:	c1 e0 04             	shl    $0x4,%eax
    40001986:	85 c0                	test   %eax,%eax
    40001988:	7e 26                	jle    400019b0 <_ZN9CCounters13StartCountersEi.part.0+0x60>
    4000198a:	8b 7f 08             	mov    0x8(%rdi),%edi
    4000198d:	85 ff                	test   %edi,%edi
    4000198f:	74 1f                	je     400019b0 <_ZN9CCounters13StartCountersEi.part.0+0x60>
    40001991:	48 b9 f0 90 3f c0 ff 	movabs $0xffffffffc03f90f0,%rcx
    40001998:	ff ff ff 
    4000199b:	be 01 f9 00 00       	mov    $0xf901,%esi
    400019a0:	31 c0                	xor    %eax,%eax
    400019a2:	4c 01 f9             	add    %r15,%rcx
    400019a5:	41 5f                	pop    %r15
    400019a7:	ff e1                	jmp    *%rcx
    400019a9:	0f 1f 80 00 00 00 00 	nopl   0x0(%rax)
    400019b0:	41 5f                	pop    %r15
    400019b2:	c3                   	ret    
    400019b3:	66 66 2e 0f 1f 84 00 	data16 cs nopw 0x0(%rax,%rax,1)
    400019ba:	00 00 00 00 
    400019be:	66 90                	xchg   %ax,%ax

00000000400019c0 <_Z11ThreadProc1Pv>:
    400019c0:	f3 0f 1e fa          	endbr64 
    400019c4:	f3 0f 1e fa          	endbr64 
    400019c8:	49 bb 3c 66 00 00 00 	movabs $0x663c,%r11
    400019cf:	00 00 00 
    400019d2:	41 57                	push   %r15
    400019d4:	4c 8d 3d e9 ff ff ff 	lea    -0x17(%rip),%r15        # 400019c4 <_Z11ThreadProc1Pv+0x4>
    400019db:	41 56                	push   %r14
    400019dd:	4d 01 df             	add    %r11,%r15
    400019e0:	49 be 98 ff ff ff ff 	movabs $0xffffffffffffff98,%r14
    400019e7:	ff ff ff 
    400019ea:	41 55                	push   %r13
    400019ec:	41 54                	push   %r12
    400019ee:	55                   	push   %rbp
    400019ef:	53                   	push   %rbx
    400019f0:	48 81 ec a8 00 00 00 	sub    $0xa8,%rsp
    400019f7:	44 8b 2f             	mov    (%rdi),%r13d
    400019fa:	64 48 8b 04 25 28 00 	mov    %fs:0x28,%rax
    40001a01:	00 00 
    40001a03:	48 89 84 24 98 00 00 	mov    %rax,0x98(%rsp)
    40001a0a:	00 
    40001a0b:	31 c0                	xor    %eax,%eax
    40001a0d:	4b 8b 04 3e          	mov    (%r14,%r15,1),%rax
    40001a11:	44 39 28             	cmp    %r13d,(%rax)
    40001a14:	0f 86 de 01 00 00    	jbe    40001bf8 <_Z11ThreadProc1Pv+0x238>
    40001a1a:	44 89 eb             	mov    %r13d,%ebx
    40001a1d:	48 8d 6c 24 10       	lea    0x10(%rsp),%rbp
    40001a22:	b9 10 00 00 00       	mov    $0x10,%ecx
    40001a27:	48 b8 20 60 81 00 00 	movabs $0x816020,%rax
    40001a2e:	00 00 00 
    40001a31:	4c 01 f8             	add    %r15,%rax
    40001a34:	48 89 ef             	mov    %rbp,%rdi
    40001a37:	44 8b 24 98          	mov    (%rax,%rbx,4),%r12d
    40001a3b:	31 c0                	xor    %eax,%eax
    40001a3d:	f3 48 ab             	rep stos %rax,%es:(%rdi)
    40001a40:	49 63 c4             	movslq %r12d,%rax
    40001a43:	48 3d ff 03 00 00    	cmp    $0x3ff,%rax
    40001a49:	77 14                	ja     40001a5f <_Z11ThreadProc1Pv+0x9f>
    40001a4b:	48 c1 e8 06          	shr    $0x6,%rax
    40001a4f:	ba 01 00 00 00       	mov    $0x1,%edx
    40001a54:	44 89 e1             	mov    %r12d,%ecx
    40001a57:	48 d3 e2             	shl    %cl,%rdx
    40001a5a:	48 09 54 c5 00       	or     %rdx,0x0(%rbp,%rax,8)
    40001a5f:	48 b8 b0 90 3f c0 ff 	movabs $0xffffffffc03f90b0,%rax
    40001a66:	ff ff ff 
    40001a69:	4c 01 f8             	add    %r15,%rax
    40001a6c:	ff d0                	call   *%rax
    40001a6e:	48 89 ea             	mov    %rbp,%rdx
    40001a71:	be 80 00 00 00       	mov    $0x80,%esi
    40001a76:	89 c7                	mov    %eax,%edi
    40001a78:	48 b8 90 90 3f c0 ff 	movabs $0xffffffffc03f9090,%rax
    40001a7f:	ff ff ff 
    40001a82:	4c 01 f8             	add    %r15,%rax
    40001a85:	ff d0                	call   *%rax
    40001a87:	85 c0                	test   %eax,%eax
    40001a89:	0f 85 39 01 00 00    	jne    40001bc8 <_Z11ThreadProc1Pv+0x208>
    40001a8f:	49 bc a0 ff ff ff ff 	movabs $0xffffffffffffffa0,%r12
    40001a96:	ff ff ff 
    40001a99:	4b 8b 04 3c          	mov    (%r12,%r15,1),%rax
    40001a9d:	8b 10                	mov    (%rax),%edx
    40001a9f:	85 d2                	test   %edx,%edx
    40001aa1:	0f 85 f9 00 00 00    	jne    40001ba0 <_Z11ThreadProc1Pv+0x1e0>
    40001aa7:	48 b8 00 91 3f c0 ff 	movabs $0xffffffffc03f9100,%rax
    40001aae:	ff ff ff 
    40001ab1:	48 89 44 24 08       	mov    %rax,0x8(%rsp)
    40001ab6:	4c 01 f8             	add    %r15,%rax
    40001ab9:	ff d0                	call   *%rax
    40001abb:	4b 8b 04 3e          	mov    (%r14,%r15,1),%rax
    40001abf:	48 c7 44 24 10 00 00 	movq   $0x0,0x10(%rsp)
    40001ac6:	00 00 
    40001ac8:	8b 00                	mov    (%rax),%eax
    40001aca:	85 c0                	test   %eax,%eax
    40001acc:	0f 8e 56 01 00 00    	jle    40001c28 <_Z11ThreadProc1Pv+0x268>
    40001ad2:	83 e8 01             	sub    $0x1,%eax
    40001ad5:	48 89 ef             	mov    %rbp,%rdi
    40001ad8:	48 8d 44 04 11       	lea    0x11(%rsp,%rax,1),%rax
    40001add:	0f 1f 00             	nopl   (%rax)
    40001ae0:	c6 07 01             	movb   $0x1,(%rdi)
    40001ae3:	48 83 c7 01          	add    $0x1,%rdi
    40001ae7:	48 39 c7             	cmp    %rax,%rdi
    40001aea:	75 f4                	jne    40001ae0 <_Z11ThreadProc1Pv+0x120>
    40001aec:	48 8b 4c 24 10       	mov    0x10(%rsp),%rcx
    40001af1:	48 ba 40 61 81 00 00 	movabs $0x816140,%rdx
    40001af8:	00 00 00 
    40001afb:	4a 8d 04 3a          	lea    (%rdx,%r15,1),%rax
    40001aff:	c6 04 18 01          	movb   $0x1,(%rax,%rbx,1)
    40001b03:	0f 1f 44 00 00       	nopl   0x0(%rax,%rax,1)
    40001b08:	4a 8b 04 3a          	mov    (%rdx,%r15,1),%rax
    40001b0c:	48 39 c8             	cmp    %rcx,%rax
    40001b0f:	75 f7                	jne    40001b08 <_Z11ThreadProc1Pv+0x148>
    40001b11:	48 b8 00 80 ff ff ff 	movabs $0xffffffffffff8000,%rax
    40001b18:	ff ff ff 
    40001b1b:	44 89 ef             	mov    %r13d,%edi
    40001b1e:	4c 01 f8             	add    %r15,%rax
    40001b21:	ff d0                	call   *%rax
    40001b23:	48 8b 5c 24 08       	mov    0x8(%rsp),%rbx
    40001b28:	41 89 c1             	mov    %eax,%r9d
    40001b2b:	48 b8 d8 5f 81 00 00 	movabs $0x815fd8,%rax
    40001b32:	00 00 00 
    40001b35:	46 89 0c 38          	mov    %r9d,(%rax,%r15,1)
    40001b39:	4c 01 fb             	add    %r15,%rbx
    40001b3c:	ff d3                	call   *%rbx
    40001b3e:	4b 8b 04 3c          	mov    (%r12,%r15,1),%rax
    40001b42:	8b 00                	mov    (%rax),%eax
    40001b44:	85 c0                	test   %eax,%eax
    40001b46:	75 30                	jne    40001b78 <_Z11ThreadProc1Pv+0x1b8>
    40001b48:	48 8b 84 24 98 00 00 	mov    0x98(%rsp),%rax
    40001b4f:	00 
    40001b50:	64 48 33 04 25 28 00 	xor    %fs:0x28,%rax
    40001b57:	00 00 
    40001b59:	0f 85 d0 00 00 00    	jne    40001c2f <_Z11ThreadProc1Pv+0x26f>
    40001b5f:	48 81 c4 a8 00 00 00 	add    $0xa8,%rsp
    40001b66:	31 c0                	xor    %eax,%eax
    40001b68:	5b                   	pop    %rbx
    40001b69:	5d                   	pop    %rbp
    40001b6a:	41 5c                	pop    %r12
    40001b6c:	41 5d                	pop    %r13
    40001b6e:	41 5e                	pop    %r14
    40001b70:	41 5f                	pop    %r15
    40001b72:	c3                   	ret    
    40001b73:	0f 1f 44 00 00       	nopl   0x0(%rax,%rax,1)
    40001b78:	48 b8 60 53 80 00 00 	movabs $0x805360,%rax
    40001b7f:	00 00 00 
    40001b82:	44 89 ee             	mov    %r13d,%esi
    40001b85:	49 8d 3c 07          	lea    (%r15,%rax,1),%rdi
    40001b89:	48 b8 90 96 ff ff ff 	movabs $0xffffffffffff9690,%rax
    40001b90:	ff ff ff 
    40001b93:	4c 01 f8             	add    %r15,%rax
    40001b96:	ff d0                	call   *%rax
    40001b98:	eb ae                	jmp    40001b48 <_Z11ThreadProc1Pv+0x188>
    40001b9a:	66 0f 1f 44 00 00    	nopw   0x0(%rax,%rax,1)
    40001ba0:	48 b8 60 53 80 00 00 	movabs $0x805360,%rax
    40001ba7:	00 00 00 
    40001baa:	44 89 ee             	mov    %r13d,%esi
    40001bad:	49 8d 3c 07          	lea    (%r15,%rax,1),%rdi
    40001bb1:	48 b8 50 99 ff ff ff 	movabs $0xffffffffffff9950,%rax
    40001bb8:	ff ff ff 
    40001bbb:	4c 01 f8             	add    %r15,%rax
    40001bbe:	ff d0                	call   *%rax
    40001bc0:	e9 e2 fe ff ff       	jmp    40001aa7 <_Z11ThreadProc1Pv+0xe7>
    40001bc5:	0f 1f 00             	nopl   (%rax)
    40001bc8:	48 b8 70 d0 ff ff ff 	movabs $0xffffffffffffd070,%rax
    40001bcf:	ff ff ff 
    40001bd2:	44 89 e2             	mov    %r12d,%edx
    40001bd5:	bf 01 00 00 00       	mov    $0x1,%edi
    40001bda:	48 b9 30 90 3f c0 ff 	movabs $0xffffffffc03f9030,%rcx
    40001be1:	ff ff ff 
    40001be4:	49 8d 34 07          	lea    (%r15,%rax,1),%rsi
    40001be8:	4c 01 f9             	add    %r15,%rcx
    40001beb:	31 c0                	xor    %eax,%eax
    40001bed:	ff d1                	call   *%rcx
    40001bef:	e9 9b fe ff ff       	jmp    40001a8f <_Z11ThreadProc1Pv+0xcf>
    40001bf4:	0f 1f 40 00          	nopl   0x0(%rax)
    40001bf8:	48 b8 50 d0 ff ff ff 	movabs $0xffffffffffffd050,%rax
    40001bff:	ff ff ff 
    40001c02:	44 89 ea             	mov    %r13d,%edx
    40001c05:	bf 01 00 00 00       	mov    $0x1,%edi
    40001c0a:	48 b9 30 90 3f c0 ff 	movabs $0xffffffffc03f9030,%rcx
    40001c11:	ff ff ff 
    40001c14:	49 8d 34 07          	lea    (%r15,%rax,1),%rsi
    40001c18:	4c 01 f9             	add    %r15,%rcx
    40001c1b:	31 c0                	xor    %eax,%eax
    40001c1d:	ff d1                	call   *%rcx
    40001c1f:	e9 24 ff ff ff       	jmp    40001b48 <_Z11ThreadProc1Pv+0x188>
    40001c24:	0f 1f 40 00          	nopl   0x0(%rax)
    40001c28:	31 c9                	xor    %ecx,%ecx
    40001c2a:	e9 c2 fe ff ff       	jmp    40001af1 <_Z11ThreadProc1Pv+0x131>
    40001c2f:	48 b8 c0 90 3f c0 ff 	movabs $0xffffffffc03f90c0,%rax
    40001c36:	ff ff ff 
    40001c39:	4c 01 f8             	add    %r15,%rax
    40001c3c:	ff d0                	call   *%rax
    40001c3e:	66 90                	xchg   %ax,%ax

0000000040001c40 <_ZN12CMSRInOutQueC1Ev>:
    40001c40:	f3 0f 1e fa          	endbr64 
    40001c44:	f3 0f 1e fa          	endbr64 
    40001c48:	c7 87 10 02 00 00 00 	movl   $0x0,0x210(%rdi)
    40001c4f:	00 00 00 
    40001c52:	48 8d 87 10 02 00 00 	lea    0x210(%rdi),%rax
    40001c59:	0f 1f 80 00 00 00 00 	nopl   0x0(%rax)
    40001c60:	c7 07 01 00 00 00    	movl   $0x1,(%rdi)
    40001c66:	48 83 c7 10          	add    $0x10,%rdi
    40001c6a:	48 39 c7             	cmp    %rax,%rdi
    40001c6d:	75 f1                	jne    40001c60 <_ZN12CMSRInOutQueC1Ev+0x20>
    40001c6f:	c3                   	ret    

0000000040001c70 <_ZN12CMSRInOutQue3putE12EMSR_COMMANDjjj>:
    40001c70:	f3 0f 1e fa          	endbr64 
    40001c74:	f3 0f 1e fa          	endbr64 
    40001c78:	44 8b 8f 10 02 00 00 	mov    0x210(%rdi),%r9d
    40001c7f:	41 83 f9 1f          	cmp    $0x1f,%r9d
    40001c83:	7f 2b                	jg     40001cb0 <_ZN12CMSRInOutQue3putE12EMSR_COMMANDjjj+0x40>
    40001c85:	49 63 c1             	movslq %r9d,%rax
    40001c88:	41 83 c1 01          	add    $0x1,%r9d
    40001c8c:	48 c1 e0 04          	shl    $0x4,%rax
    40001c90:	48 01 f8             	add    %rdi,%rax
    40001c93:	89 30                	mov    %esi,(%rax)
    40001c95:	89 50 04             	mov    %edx,0x4(%rax)
    40001c98:	89 48 08             	mov    %ecx,0x8(%rax)
    40001c9b:	44 89 40 0c          	mov    %r8d,0xc(%rax)
    40001c9f:	31 c0                	xor    %eax,%eax
    40001ca1:	44 89 8f 10 02 00 00 	mov    %r9d,0x210(%rdi)
    40001ca8:	c3                   	ret    
    40001ca9:	0f 1f 80 00 00 00 00 	nopl   0x0(%rax)
    40001cb0:	b8 f6 ff ff ff       	mov    $0xfffffff6,%eax
    40001cb5:	c3                   	ret    
    40001cb6:	66 2e 0f 1f 84 00 00 	cs nopw 0x0(%rax,%rax,1)
    40001cbd:	00 00 00 

0000000040001cc0 <_ZN9CCountersC1Ev>:
    40001cc0:	f3 0f 1e fa          	endbr64 
    40001cc4:	f3 0f 1e fa          	endbr64 
    40001cc8:	48 8d 05 f5 ff ff ff 	lea    -0xb(%rip),%rax        # 40001cc4 <_ZN9CCountersC1Ev+0x4>
    40001ccf:	c7 47 08 00 00 00 00 	movl   $0x0,0x8(%rdi)
    40001cd6:	49 bb 3c 63 00 00 00 	movabs $0x633c,%r11
    40001cdd:	00 00 00 
    40001ce0:	48 ba 54 d2 ff ff ff 	movabs $0xffffffffffffd254,%rdx
    40001ce7:	ff ff ff 
    40001cea:	4c 01 d8             	add    %r11,%rax
    40001ced:	48 8d 4f 60          	lea    0x60(%rdi),%rcx
    40001cf1:	48 8d b7 60 86 00 00 	lea    0x8660(%rdi),%rsi
    40001cf8:	48 01 d0             	add    %rdx,%rax
    40001cfb:	48 8d 97 70 02 00 00 	lea    0x270(%rdi),%rdx
    40001d02:	48 89 07             	mov    %rax,(%rdi)
    40001d05:	0f 1f 00             	nopl   (%rax)
    40001d08:	c7 02 00 00 00 00    	movl   $0x0,(%rdx)
    40001d0e:	48 89 c8             	mov    %rcx,%rax
    40001d11:	0f 1f 80 00 00 00 00 	nopl   0x0(%rax)
    40001d18:	c7 00 01 00 00 00    	movl   $0x1,(%rax)
    40001d1e:	48 83 c0 10          	add    $0x10,%rax
    40001d22:	48 39 d0             	cmp    %rdx,%rax
    40001d25:	75 f1                	jne    40001d18 <_ZN9CCountersC1Ev+0x58>
    40001d27:	48 81 c1 18 02 00 00 	add    $0x218,%rcx
    40001d2e:	48 8d 90 18 02 00 00 	lea    0x218(%rax),%rdx
    40001d35:	48 39 f1             	cmp    %rsi,%rcx
    40001d38:	75 ce                	jne    40001d08 <_ZN9CCountersC1Ev+0x48>
    40001d3a:	48 8d 97 70 88 00 00 	lea    0x8870(%rdi),%rdx
    40001d41:	48 8d b7 60 0c 01 00 	lea    0x10c60(%rdi),%rsi
    40001d48:	0f 1f 84 00 00 00 00 	nopl   0x0(%rax,%rax,1)
    40001d4f:	00 
    40001d50:	c7 02 00 00 00 00    	movl   $0x0,(%rdx)
    40001d56:	48 89 c8             	mov    %rcx,%rax
    40001d59:	0f 1f 80 00 00 00 00 	nopl   0x0(%rax)
    40001d60:	c7 00 01 00 00 00    	movl   $0x1,(%rax)
    40001d66:	48 83 c0 10          	add    $0x10,%rax
    40001d6a:	48 39 d0             	cmp    %rdx,%rax
    40001d6d:	75 f1                	jne    40001d60 <_ZN9CCountersC1Ev+0xa0>
    40001d6f:	48 81 c1 18 02 00 00 	add    $0x218,%rcx
    40001d76:	48 8d 90 18 02 00 00 	lea    0x218(%rax),%rdx
    40001d7d:	48 39 ce             	cmp    %rcx,%rsi
    40001d80:	75 ce                	jne    40001d50 <_ZN9CCountersC1Ev+0x90>
    40001d82:	c7 87 64 0c 01 00 00 	movl   $0x0,0x10c64(%rdi)
    40001d89:	00 00 00 
    40001d8c:	48 c7 87 68 0c 01 00 	movq   $0x0,0x10c68(%rdi)
    40001d93:	00 00 00 00 
    40001d97:	48 c7 47 10 00 00 00 	movq   $0x0,0x10(%rdi)
    40001d9e:	00 
    40001d9f:	48 c7 47 18 00 00 00 	movq   $0x0,0x18(%rdi)
    40001da6:	00 
    40001da7:	48 c7 47 20 00 00 00 	movq   $0x0,0x20(%rdi)
    40001dae:	00 
    40001daf:	48 c7 47 28 00 00 00 	movq   $0x0,0x28(%rdi)
    40001db6:	00 
    40001db7:	48 c7 47 30 00 00 00 	movq   $0x0,0x30(%rdi)
    40001dbe:	00 
    40001dbf:	48 c7 47 38 00 00 00 	movq   $0x0,0x38(%rdi)
    40001dc6:	00 
    40001dc7:	48 c7 47 40 00 00 00 	movq   $0x0,0x40(%rdi)
    40001dce:	00 
    40001dcf:	48 c7 47 48 00 00 00 	movq   $0x0,0x48(%rdi)
    40001dd6:	00 
    40001dd7:	48 c7 47 50 00 00 00 	movq   $0x0,0x50(%rdi)
    40001dde:	00 
    40001ddf:	c7 47 58 00 00 00 00 	movl   $0x0,0x58(%rdi)
    40001de6:	c3                   	ret    
    40001de7:	90                   	nop
    40001de8:	0f 1f 84 00 00 00 00 	nopl   0x0(%rax,%rax,1)
    40001def:	00 

0000000040001df0 <_ZN9CCounters13LockProcessorEv>:
    40001df0:	f3 0f 1e fa          	endbr64 
    40001df4:	f3 0f 1e fa          	endbr64 
    40001df8:	48 8d 05 f5 ff ff ff 	lea    -0xb(%rip),%rax        # 40001df4 <_ZN9CCounters13LockProcessorEv+0x4>
    40001dff:	49 bb 0c 62 00 00 00 	movabs $0x620c,%r11
    40001e06:	00 00 00 
    40001e09:	48 ba 98 ff ff ff ff 	movabs $0xffffffffffffff98,%rdx
    40001e10:	ff ff ff 
    40001e13:	4c 01 d8             	add    %r11,%rax
    40001e16:	48 8b 14 10          	mov    (%rax,%rdx,1),%rdx
    40001e1a:	8b 12                	mov    (%rdx),%edx
    40001e1c:	85 d2                	test   %edx,%edx
    40001e1e:	0f 8e 4c 01 00 00    	jle    40001f70 <_ZN9CCounters13LockProcessorEv+0x180>
    40001e24:	53                   	push   %rbx
    40001e25:	48 8d b7 70 02 00 00 	lea    0x270(%rdi),%rsi
    40001e2c:	44 8d 5a ff          	lea    -0x1(%rdx),%r11d
    40001e30:	45 31 c0             	xor    %r8d,%r8d
    40001e33:	49 ba 20 60 81 00 00 	movabs $0x816020,%r10
    40001e3a:	00 00 00 
    40001e3d:	49 01 c2             	add    %rax,%r10
    40001e40:	eb 09                	jmp    40001e4b <_ZN9CCounters13LockProcessorEv+0x5b>
    40001e42:	66 0f 1f 44 00 00    	nopw   0x0(%rax,%rax,1)
    40001e48:	49 89 c0             	mov    %rax,%r8
    40001e4b:	43 8b 1c 82          	mov    (%r10,%r8,4),%ebx
    40001e4f:	49 63 c0             	movslq %r8d,%rax
    40001e52:	85 db                	test   %ebx,%ebx
    40001e54:	0f 88 f9 00 00 00    	js     40001f53 <_ZN9CCounters13LockProcessorEv+0x163>
    40001e5a:	8b 16                	mov    (%rsi),%edx
    40001e5c:	83 fa 1f             	cmp    $0x1f,%edx
    40001e5f:	0f 8f 0c 01 00 00    	jg     40001f71 <_ZN9CCounters13LockProcessorEv+0x181>
    40001e65:	4c 69 c8 18 02 00 00 	imul   $0x218,%rax,%r9
    40001e6c:	48 63 ca             	movslq %edx,%rcx
    40001e6f:	83 c2 01             	add    $0x1,%edx
    40001e72:	48 c1 e1 04          	shl    $0x4,%rcx
    40001e76:	4c 01 c9             	add    %r9,%rcx
    40001e79:	48 01 f9             	add    %rdi,%rcx
    40001e7c:	48 c7 41 60 09 00 00 	movq   $0x9,0x60(%rcx)
    40001e83:	00 
    40001e84:	89 59 68             	mov    %ebx,0x68(%rcx)
    40001e87:	c7 41 6c 00 00 00 00 	movl   $0x0,0x6c(%rcx)
    40001e8e:	8b 8e 00 86 00 00    	mov    0x8600(%rsi),%ecx
    40001e94:	89 16                	mov    %edx,(%rsi)
    40001e96:	83 f9 1f             	cmp    $0x1f,%ecx
    40001e99:	0f 8f e9 00 00 00    	jg     40001f88 <_ZN9CCounters13LockProcessorEv+0x198>
    40001e9f:	4c 69 c8 18 02 00 00 	imul   $0x218,%rax,%r9
    40001ea6:	48 63 d1             	movslq %ecx,%rdx
    40001ea9:	83 c1 01             	add    $0x1,%ecx
    40001eac:	48 c1 e2 04          	shl    $0x4,%rdx
    40001eb0:	4c 01 ca             	add    %r9,%rdx
    40001eb3:	48 01 fa             	add    %rdi,%rdx
    40001eb6:	48 c7 82 60 86 00 00 	movq   $0x9,0x8660(%rdx)
    40001ebd:	09 00 00 00 
    40001ec1:	89 9a 68 86 00 00    	mov    %ebx,0x8668(%rdx)
    40001ec7:	c7 82 6c 86 00 00 00 	movl   $0x0,0x866c(%rdx)
    40001ece:	00 00 00 
    40001ed1:	8b 16                	mov    (%rsi),%edx
    40001ed3:	89 8e 00 86 00 00    	mov    %ecx,0x8600(%rsi)
    40001ed9:	83 fa 1f             	cmp    $0x1f,%edx
    40001edc:	7f 31                	jg     40001f0f <_ZN9CCounters13LockProcessorEv+0x11f>
    40001ede:	48 69 d8 18 02 00 00 	imul   $0x218,%rax,%rbx
    40001ee5:	4c 63 ca             	movslq %edx,%r9
    40001ee8:	83 c2 01             	add    $0x1,%edx
    40001eeb:	49 c1 e1 04          	shl    $0x4,%r9
    40001eef:	49 01 d9             	add    %rbx,%r9
    40001ef2:	49 01 f9             	add    %rdi,%r9
    40001ef5:	49 c7 41 60 06 00 00 	movq   $0x6,0x60(%r9)
    40001efc:	00 
    40001efd:	41 c7 41 68 00 00 00 	movl   $0x0,0x68(%r9)
    40001f04:	00 
    40001f05:	41 c7 41 6c 00 00 00 	movl   $0x0,0x6c(%r9)
    40001f0c:	00 
    40001f0d:	89 16                	mov    %edx,(%rsi)
    40001f0f:	83 f9 1f             	cmp    $0x1f,%ecx
    40001f12:	7f 3f                	jg     40001f53 <_ZN9CCounters13LockProcessorEv+0x163>
    40001f14:	48 69 d0 18 02 00 00 	imul   $0x218,%rax,%rdx
    40001f1b:	4c 63 c9             	movslq %ecx,%r9
    40001f1e:	83 c1 01             	add    $0x1,%ecx
    40001f21:	4c 89 c8             	mov    %r9,%rax
    40001f24:	48 c1 e0 04          	shl    $0x4,%rax
    40001f28:	48 01 d0             	add    %rdx,%rax
    40001f2b:	48 01 f8             	add    %rdi,%rax
    40001f2e:	48 c7 80 60 86 00 00 	movq   $0x7,0x8660(%rax)
    40001f35:	07 00 00 00 
    40001f39:	c7 80 68 86 00 00 00 	movl   $0x0,0x8668(%rax)
    40001f40:	00 00 00 
    40001f43:	c7 80 6c 86 00 00 00 	movl   $0x0,0x866c(%rax)
    40001f4a:	00 00 00 
    40001f4d:	89 8e 00 86 00 00    	mov    %ecx,0x8600(%rsi)
    40001f53:	49 8d 40 01          	lea    0x1(%r8),%rax
    40001f57:	48 81 c6 18 02 00 00 	add    $0x218,%rsi
    40001f5e:	4d 39 d8             	cmp    %r11,%r8
    40001f61:	0f 85 e1 fe ff ff    	jne    40001e48 <_ZN9CCounters13LockProcessorEv+0x58>
    40001f67:	5b                   	pop    %rbx
    40001f68:	c3                   	ret    
    40001f69:	0f 1f 80 00 00 00 00 	nopl   0x0(%rax)
    40001f70:	c3                   	ret    
    40001f71:	8b 8e 00 86 00 00    	mov    0x8600(%rsi),%ecx
    40001f77:	83 f9 1f             	cmp    $0x1f,%ecx
    40001f7a:	0f 8e 1f ff ff ff    	jle    40001e9f <_ZN9CCounters13LockProcessorEv+0xaf>
    40001f80:	eb d1                	jmp    40001f53 <_ZN9CCounters13LockProcessorEv+0x163>
    40001f82:	66 0f 1f 44 00 00    	nopw   0x0(%rax,%rax,1)
    40001f88:	83 fa 1f             	cmp    $0x1f,%edx
    40001f8b:	0f 8e 4d ff ff ff    	jle    40001ede <_ZN9CCounters13LockProcessorEv+0xee>
    40001f91:	eb c0                	jmp    40001f53 <_ZN9CCounters13LockProcessorEv+0x163>
    40001f93:	90                   	nop
    40001f94:	66 66 2e 0f 1f 84 00 	data16 cs nopw 0x0(%rax,%rax,1)
    40001f9b:	00 00 00 00 
    40001f9f:	90                   	nop

0000000040001fa0 <_ZN9CCounters11StartDriverEv>:
    40001fa0:	f3 0f 1e fa          	endbr64 
    40001fa4:	f3 0f 1e fa          	endbr64 
    40001fa8:	48 8d 05 f5 ff ff ff 	lea    -0xb(%rip),%rax        # 40001fa4 <_ZN9CCounters11StartDriverEv+0x4>
    40001faf:	49 bb 5c 60 00 00 00 	movabs $0x605c,%r11
    40001fb6:	00 00 00 
    40001fb9:	48 ba a0 ff ff ff ff 	movabs $0xffffffffffffffa0,%rdx
    40001fc0:	ff ff ff 
    40001fc3:	4c 01 d8             	add    %r11,%rax
    40001fc6:	48 8b 14 10          	mov    (%rax,%rdx,1),%rdx
    40001fca:	8b 12                	mov    (%rdx),%edx
    40001fcc:	85 d2                	test   %edx,%edx
    40001fce:	75 08                	jne    40001fd8 <_ZN9CCounters11StartDriverEv+0x38>
    40001fd0:	31 c0                	xor    %eax,%eax
    40001fd2:	c3                   	ret    
    40001fd3:	0f 1f 44 00 00       	nopl   0x0(%rax,%rax,1)
    40001fd8:	48 ba f0 95 ff ff ff 	movabs $0xffffffffffff95f0,%rdx
    40001fdf:	ff ff ff 
    40001fe2:	48 01 d0             	add    %rdx,%rax
    40001fe5:	ff e0                	jmp    *%rax
    40001fe7:	90                   	nop
    40001fe8:	0f 1f 84 00 00 00 00 	nopl   0x0(%rax,%rax,1)
    40001fef:	00 

0000000040001ff0 <_ZN9CCounters7CleanUpEv>:
    40001ff0:	f3 0f 1e fa          	endbr64 
    40001ff4:	f3 0f 1e fa          	endbr64 
    40001ff8:	4c 8d 15 f5 ff ff ff 	lea    -0xb(%rip),%r10        # 40001ff4 <_ZN9CCounters7CleanUpEv+0x4>
    40001fff:	41 57                	push   %r15
    40002001:	49 bb 0c 60 00 00 00 	movabs $0x600c,%r11
    40002008:	00 00 00 
    4000200b:	48 b8 98 ff ff ff ff 	movabs $0xffffffffffffff98,%rax
    40002012:	ff ff ff 
    40002015:	4d 01 da             	add    %r11,%r10
    40002018:	41 56                	push   %r14
    4000201a:	49 8b 04 02          	mov    (%r10,%rax,1),%rax
    4000201e:	41 55                	push   %r13
    40002020:	41 54                	push   %r12
    40002022:	55                   	push   %rbp
    40002023:	53                   	push   %rbx
    40002024:	44 8b 28             	mov    (%rax),%r13d
    40002027:	48 89 7c 24 e8       	mov    %rdi,-0x18(%rsp)
    4000202c:	45 85 ed             	test   %r13d,%r13d
    4000202f:	0f 8e e3 00 00 00    	jle    40002118 <_ZN9CCounters7CleanUpEv+0x128>
    40002035:	48 b8 d0 55 80 00 00 	movabs $0x8055d0,%rax
    4000203c:	00 00 00 
    4000203f:	44 8b 7f 58          	mov    0x58(%rdi),%r15d
    40002043:	31 f6                	xor    %esi,%esi
    40002045:	48 bd e0 5f 81 00 00 	movabs $0x815fe0,%rbp
    4000204c:	00 00 00 
    4000204f:	4d 8d 0c 02          	lea    (%r10,%rax,1),%r9
    40002053:	4c 01 d5             	add    %r10,%rbp
    40002056:	48 b8 60 53 80 00 00 	movabs $0x805360,%rax
    4000205d:	00 00 00 
    40002060:	49 be 80 da ff ff ff 	movabs $0xffffffffffffda80,%r14
    40002067:	ff ff ff 
    4000206a:	48 89 44 24 f8       	mov    %rax,-0x8(%rsp)
    4000206f:	eb 27                	jmp    40002098 <_ZN9CCounters7CleanUpEv+0xa8>
    40002071:	0f 1f 80 00 00 00 00 	nopl   0x0(%rax)
    40002078:	f2 43 0f 10 04 32    	movsd  (%r10,%r14,1),%xmm0
    4000207e:	f2 0f 11 44 f5 00    	movsd  %xmm0,0x0(%rbp,%rsi,8)
    40002084:	48 83 c6 01          	add    $0x1,%rsi
    40002088:	49 81 c1 18 02 00 00 	add    $0x218,%r9
    4000208f:	41 39 f5             	cmp    %esi,%r13d
    40002092:	0f 8e 80 00 00 00    	jle    40002118 <_ZN9CCounters7CleanUpEv+0x128>
    40002098:	4c 63 e6             	movslq %esi,%r12
    4000209b:	41 81 ff 00 20 00 00 	cmp    $0x2000,%r15d
    400020a2:	75 d4                	jne    40002078 <_ZN9CCounters7CleanUpEv+0x88>
    400020a4:	48 8b 44 24 e8       	mov    -0x18(%rsp),%rax
    400020a9:	45 8b 81 00 86 00 00 	mov    0x8600(%r9),%r8d
    400020b0:	8b 98 70 0c 01 00    	mov    0x10c70(%rax),%ebx
    400020b6:	45 85 c0             	test   %r8d,%r8d
    400020b9:	0f 8e d4 01 00 00    	jle    40002293 <_ZN9CCounters7CleanUpEv+0x2a3>
    400020bf:	49 8d 91 f4 fd ff ff 	lea    -0x20c(%r9),%rdx
    400020c6:	31 c9                	xor    %ecx,%ecx
    400020c8:	48 89 d0             	mov    %rdx,%rax
    400020cb:	eb 0f                	jmp    400020dc <_ZN9CCounters7CleanUpEv+0xec>
    400020cd:	0f 1f 00             	nopl   (%rax)
    400020d0:	83 c1 01             	add    $0x1,%ecx
    400020d3:	48 83 c0 10          	add    $0x10,%rax
    400020d7:	44 39 c1             	cmp    %r8d,%ecx
    400020da:	74 4c                	je     40002128 <_ZN9CCounters7CleanUpEv+0x138>
    400020dc:	83 b8 fc 85 00 00 02 	cmpl   $0x2,0x85fc(%rax)
    400020e3:	75 eb                	jne    400020d0 <_ZN9CCounters7CleanUpEv+0xe0>
    400020e5:	3b 18                	cmp    (%rax),%ebx
    400020e7:	75 e7                	jne    400020d0 <_ZN9CCounters7CleanUpEv+0xe0>
    400020e9:	49 63 c4             	movslq %r12d,%rax
    400020ec:	48 63 c9             	movslq %ecx,%rcx
    400020ef:	48 8b 7c 24 f8       	mov    -0x8(%rsp),%rdi
    400020f4:	48 69 c0 18 02 00 00 	imul   $0x218,%rax,%rax
    400020fb:	48 c1 e1 04          	shl    $0x4,%rcx
    400020ff:	48 01 c8             	add    %rcx,%rax
    40002102:	4c 01 d0             	add    %r10,%rax
    40002105:	48 8b 84 07 68 86 00 	mov    0x8668(%rdi,%rax,1),%rax
    4000210c:	00 
    4000210d:	48 89 44 24 f0       	mov    %rax,-0x10(%rsp)
    40002112:	eb 1d                	jmp    40002131 <_ZN9CCounters7CleanUpEv+0x141>
    40002114:	0f 1f 40 00          	nopl   0x0(%rax)
    40002118:	5b                   	pop    %rbx
    40002119:	5d                   	pop    %rbp
    4000211a:	41 5c                	pop    %r12
    4000211c:	41 5d                	pop    %r13
    4000211e:	41 5e                	pop    %r14
    40002120:	41 5f                	pop    %r15
    40002122:	c3                   	ret    
    40002123:	0f 1f 44 00 00       	nopl   0x0(%rax,%rax,1)
    40002128:	48 c7 44 24 f0 00 00 	movq   $0x0,-0x10(%rsp)
    4000212f:	00 00 
    40002131:	48 8b 44 24 e8       	mov    -0x18(%rsp),%rax
    40002136:	41 8b 39             	mov    (%r9),%edi
    40002139:	44 8b 98 74 0c 01 00 	mov    0x10c74(%rax),%r11d
    40002140:	85 ff                	test   %edi,%edi
    40002142:	7e 5f                	jle    400021a3 <_ZN9CCounters7CleanUpEv+0x1b3>
    40002144:	49 8d 81 f0 fd ff ff 	lea    -0x210(%r9),%rax
    4000214b:	31 c9                	xor    %ecx,%ecx
    4000214d:	48 89 c2             	mov    %rax,%rdx
    40002150:	eb 15                	jmp    40002167 <_ZN9CCounters7CleanUpEv+0x177>
    40002152:	66 0f 1f 44 00 00    	nopw   0x0(%rax,%rax,1)
    40002158:	83 c1 01             	add    $0x1,%ecx
    4000215b:	48 83 c2 10          	add    $0x10,%rdx
    4000215f:	39 f9                	cmp    %edi,%ecx
    40002161:	0f 84 91 00 00 00    	je     400021f8 <_ZN9CCounters7CleanUpEv+0x208>
    40002167:	83 3a 02             	cmpl   $0x2,(%rdx)
    4000216a:	75 ec                	jne    40002158 <_ZN9CCounters7CleanUpEv+0x168>
    4000216c:	3b 5a 04             	cmp    0x4(%rdx),%ebx
    4000216f:	75 e7                	jne    40002158 <_ZN9CCounters7CleanUpEv+0x168>
    40002171:	49 63 d4             	movslq %r12d,%rdx
    40002174:	48 63 c9             	movslq %ecx,%rcx
    40002177:	48 69 d2 18 02 00 00 	imul   $0x218,%rdx,%rdx
    4000217e:	48 c1 e1 04          	shl    $0x4,%rcx
    40002182:	48 01 ca             	add    %rcx,%rdx
    40002185:	48 8b 4c 24 f8       	mov    -0x8(%rsp),%rcx
    4000218a:	4c 01 d2             	add    %r10,%rdx
    4000218d:	48 8b 54 11 68       	mov    0x68(%rcx,%rdx,1),%rdx
    40002192:	48 29 54 24 f0       	sub    %rdx,-0x10(%rsp)
    40002197:	49 8d 91 f4 fd ff ff 	lea    -0x20c(%r9),%rdx
    4000219e:	45 85 c0             	test   %r8d,%r8d
    400021a1:	7e 61                	jle    40002204 <_ZN9CCounters7CleanUpEv+0x214>
    400021a3:	31 c0                	xor    %eax,%eax
    400021a5:	eb 19                	jmp    400021c0 <_ZN9CCounters7CleanUpEv+0x1d0>
    400021a7:	66 0f 1f 84 00 00 00 	nopw   0x0(%rax,%rax,1)
    400021ae:	00 00 
    400021b0:	83 c0 01             	add    $0x1,%eax
    400021b3:	48 83 c2 10          	add    $0x10,%rdx
    400021b7:	44 39 c0             	cmp    %r8d,%eax
    400021ba:	0f 8d a0 00 00 00    	jge    40002260 <_ZN9CCounters7CleanUpEv+0x270>
    400021c0:	83 ba fc 85 00 00 02 	cmpl   $0x2,0x85fc(%rdx)
    400021c7:	75 e7                	jne    400021b0 <_ZN9CCounters7CleanUpEv+0x1c0>
    400021c9:	44 3b 1a             	cmp    (%rdx),%r11d
    400021cc:	75 e2                	jne    400021b0 <_ZN9CCounters7CleanUpEv+0x1c0>
    400021ce:	49 63 d4             	movslq %r12d,%rdx
    400021d1:	48 98                	cltq   
    400021d3:	48 8b 5c 24 f8       	mov    -0x8(%rsp),%rbx
    400021d8:	48 69 d2 18 02 00 00 	imul   $0x218,%rdx,%rdx
    400021df:	48 c1 e0 04          	shl    $0x4,%rax
    400021e3:	48 01 d0             	add    %rdx,%rax
    400021e6:	4c 01 d0             	add    %r10,%rax
    400021e9:	48 8b 94 03 68 86 00 	mov    0x8668(%rbx,%rax,1),%rdx
    400021f0:	00 
    400021f1:	eb 6f                	jmp    40002262 <_ZN9CCounters7CleanUpEv+0x272>
    400021f3:	0f 1f 44 00 00       	nopl   0x0(%rax,%rax,1)
    400021f8:	49 8d 91 f4 fd ff ff 	lea    -0x20c(%r9),%rdx
    400021ff:	45 85 c0             	test   %r8d,%r8d
    40002202:	7f 9f                	jg     400021a3 <_ZN9CCounters7CleanUpEv+0x1b3>
    40002204:	31 d2                	xor    %edx,%edx
    40002206:	66 2e 0f 1f 84 00 00 	cs nopw 0x0(%rax,%rax,1)
    4000220d:	00 00 00 
    40002210:	31 c9                	xor    %ecx,%ecx
    40002212:	eb 0f                	jmp    40002223 <_ZN9CCounters7CleanUpEv+0x233>
    40002214:	0f 1f 40 00          	nopl   0x0(%rax)
    40002218:	83 c1 01             	add    $0x1,%ecx
    4000221b:	48 83 c0 10          	add    $0x10,%rax
    4000221f:	39 f9                	cmp    %edi,%ecx
    40002221:	7d 4d                	jge    40002270 <_ZN9CCounters7CleanUpEv+0x280>
    40002223:	83 38 02             	cmpl   $0x2,(%rax)
    40002226:	75 f0                	jne    40002218 <_ZN9CCounters7CleanUpEv+0x228>
    40002228:	44 3b 58 04          	cmp    0x4(%rax),%r11d
    4000222c:	75 ea                	jne    40002218 <_ZN9CCounters7CleanUpEv+0x228>
    4000222e:	48 63 c1             	movslq %ecx,%rax
    40002231:	48 8b 5c 24 f8       	mov    -0x8(%rsp),%rbx
    40002236:	66 0f ef c0          	pxor   %xmm0,%xmm0
    4000223a:	48 c1 e0 04          	shl    $0x4,%rax
    4000223e:	48 89 c1             	mov    %rax,%rcx
    40002241:	49 69 c4 18 02 00 00 	imul   $0x218,%r12,%rax
    40002248:	48 01 c8             	add    %rcx,%rax
    4000224b:	4c 01 d0             	add    %r10,%rax
    4000224e:	48 2b 54 03 68       	sub    0x68(%rbx,%rax,1),%rdx
    40002253:	f2 48 0f 2a c2       	cvtsi2sd %rdx,%xmm0
    40002258:	eb 1f                	jmp    40002279 <_ZN9CCounters7CleanUpEv+0x289>
    4000225a:	66 0f 1f 44 00 00    	nopw   0x0(%rax,%rax,1)
    40002260:	31 d2                	xor    %edx,%edx
    40002262:	85 ff                	test   %edi,%edi
    40002264:	7e 0a                	jle    40002270 <_ZN9CCounters7CleanUpEv+0x280>
    40002266:	49 8d 81 f0 fd ff ff 	lea    -0x210(%r9),%rax
    4000226d:	eb a1                	jmp    40002210 <_ZN9CCounters7CleanUpEv+0x220>
    4000226f:	90                   	nop
    40002270:	66 0f ef c0          	pxor   %xmm0,%xmm0
    40002274:	f2 48 0f 2a c2       	cvtsi2sd %rdx,%xmm0
    40002279:	66 0f ef c9          	pxor   %xmm1,%xmm1
    4000227d:	f2 48 0f 2a 4c 24 f0 	cvtsi2sdq -0x10(%rsp),%xmm1
    40002284:	f2 0f 5e c1          	divsd  %xmm1,%xmm0
    40002288:	f2 0f 11 44 f5 00    	movsd  %xmm0,0x0(%rbp,%rsi,8)
    4000228e:	e9 f1 fd ff ff       	jmp    40002084 <_ZN9CCounters7CleanUpEv+0x94>
    40002293:	48 8b 44 24 e8       	mov    -0x18(%rsp),%rax
    40002298:	41 8b 39             	mov    (%r9),%edi
    4000229b:	66 0f ef c0          	pxor   %xmm0,%xmm0
    4000229f:	48 c7 44 24 f0 00 00 	movq   $0x0,-0x10(%rsp)
    400022a6:	00 00 
    400022a8:	44 8b 98 74 0c 01 00 	mov    0x10c74(%rax),%r11d
    400022af:	85 ff                	test   %edi,%edi
    400022b1:	0f 8f 8d fe ff ff    	jg     40002144 <_ZN9CCounters7CleanUpEv+0x154>
    400022b7:	eb c0                	jmp    40002279 <_ZN9CCounters7CleanUpEv+0x289>
    400022b9:	90                   	nop
    400022ba:	66 0f 1f 44 00 00    	nopw   0x0(%rax,%rax,1)

00000000400022c0 <_ZN9CCounters4Put1Ei12EMSR_COMMANDjjj>:
    400022c0:	f3 0f 1e fa          	endbr64 
    400022c4:	f3 0f 1e fa          	endbr64 
    400022c8:	85 f6                	test   %esi,%esi
    400022ca:	7e 64                	jle    40002330 <_ZN9CCounters4Put1Ei12EMSR_COMMANDjjj+0x70>
    400022cc:	55                   	push   %rbp
    400022cd:	48 8d af 70 02 00 00 	lea    0x270(%rdi),%rbp
    400022d4:	53                   	push   %rbx
    400022d5:	31 db                	xor    %ebx,%ebx
    400022d7:	66 0f 1f 84 00 00 00 	nopw   0x0(%rax,%rax,1)
    400022de:	00 00 
    400022e0:	44 8b 55 00          	mov    0x0(%rbp),%r10d
    400022e4:	41 83 fa 1f          	cmp    $0x1f,%r10d
    400022e8:	7f 2d                	jg     40002317 <_ZN9CCounters4Put1Ei12EMSR_COMMANDjjj+0x57>
    400022ea:	4c 63 db             	movslq %ebx,%r11
    400022ed:	49 63 c2             	movslq %r10d,%rax
    400022f0:	41 83 c2 01          	add    $0x1,%r10d
    400022f4:	4d 69 db 18 02 00 00 	imul   $0x218,%r11,%r11
    400022fb:	48 c1 e0 04          	shl    $0x4,%rax
    400022ff:	4c 01 d8             	add    %r11,%rax
    40002302:	48 01 f8             	add    %rdi,%rax
    40002305:	89 50 60             	mov    %edx,0x60(%rax)
    40002308:	89 48 64             	mov    %ecx,0x64(%rax)
    4000230b:	44 89 40 68          	mov    %r8d,0x68(%rax)
    4000230f:	44 89 48 6c          	mov    %r9d,0x6c(%rax)
    40002313:	44 89 55 00          	mov    %r10d,0x0(%rbp)
    40002317:	83 c3 01             	add    $0x1,%ebx
    4000231a:	48 81 c5 18 02 00 00 	add    $0x218,%rbp
    40002321:	39 de                	cmp    %ebx,%esi
    40002323:	75 bb                	jne    400022e0 <_ZN9CCounters4Put1Ei12EMSR_COMMANDjjj+0x20>
    40002325:	5b                   	pop    %rbx
    40002326:	5d                   	pop    %rbp
    40002327:	c3                   	ret    
    40002328:	0f 1f 84 00 00 00 00 	nopl   0x0(%rax,%rax,1)
    4000232f:	00 
    40002330:	c3                   	ret    
    40002331:	90                   	nop
    40002332:	66 66 2e 0f 1f 84 00 	data16 cs nopw 0x0(%rax,%rax,1)
    40002339:	00 00 00 00 
    4000233d:	0f 1f 00             	nopl   (%rax)

0000000040002340 <_ZN9CCounters4Put2Ei12EMSR_COMMANDjjj>:
    40002340:	f3 0f 1e fa          	endbr64 
    40002344:	f3 0f 1e fa          	endbr64 
    40002348:	85 f6                	test   %esi,%esi
    4000234a:	7e 6c                	jle    400023b8 <_ZN9CCounters4Put2Ei12EMSR_COMMANDjjj+0x78>
    4000234c:	55                   	push   %rbp
    4000234d:	48 8d af 70 88 00 00 	lea    0x8870(%rdi),%rbp
    40002354:	53                   	push   %rbx
    40002355:	31 db                	xor    %ebx,%ebx
    40002357:	66 0f 1f 84 00 00 00 	nopw   0x0(%rax,%rax,1)
    4000235e:	00 00 
    40002360:	44 8b 55 00          	mov    0x0(%rbp),%r10d
    40002364:	41 83 fa 1f          	cmp    $0x1f,%r10d
    40002368:	7f 39                	jg     400023a3 <_ZN9CCounters4Put2Ei12EMSR_COMMANDjjj+0x63>
    4000236a:	4c 63 db             	movslq %ebx,%r11
    4000236d:	49 63 c2             	movslq %r10d,%rax
    40002370:	41 83 c2 01          	add    $0x1,%r10d
    40002374:	4d 69 db 18 02 00 00 	imul   $0x218,%r11,%r11
    4000237b:	48 c1 e0 04          	shl    $0x4,%rax
    4000237f:	4c 01 d8             	add    %r11,%rax
    40002382:	48 01 f8             	add    %rdi,%rax
    40002385:	89 90 60 86 00 00    	mov    %edx,0x8660(%rax)
    4000238b:	89 88 64 86 00 00    	mov    %ecx,0x8664(%rax)
    40002391:	44 89 80 68 86 00 00 	mov    %r8d,0x8668(%rax)
    40002398:	44 89 88 6c 86 00 00 	mov    %r9d,0x866c(%rax)
    4000239f:	44 89 55 00          	mov    %r10d,0x0(%rbp)
    400023a3:	83 c3 01             	add    $0x1,%ebx
    400023a6:	48 81 c5 18 02 00 00 	add    $0x218,%rbp
    400023ad:	39 de                	cmp    %ebx,%esi
    400023af:	75 af                	jne    40002360 <_ZN9CCounters4Put2Ei12EMSR_COMMANDjjj+0x20>
    400023b1:	5b                   	pop    %rbx
    400023b2:	5d                   	pop    %rbp
    400023b3:	c3                   	ret    
    400023b4:	0f 1f 40 00          	nopl   0x0(%rax)
    400023b8:	c3                   	ret    
    400023b9:	90                   	nop
    400023ba:	66 0f 1f 44 00 00    	nopw   0x0(%rax,%rax,1)

00000000400023c0 <_ZN9CCounters5read1Eji>:
    400023c0:	f3 0f 1e fa          	endbr64 
    400023c4:	f3 0f 1e fa          	endbr64 
    400023c8:	48 63 d2             	movslq %edx,%rdx
    400023cb:	48 69 c2 18 02 00 00 	imul   $0x218,%rdx,%rax
    400023d2:	48 8d 44 07 60       	lea    0x60(%rdi,%rax,1),%rax
    400023d7:	44 8b 80 10 02 00 00 	mov    0x210(%rax),%r8d
    400023de:	45 85 c0             	test   %r8d,%r8d
    400023e1:	7e 3d                	jle    40002420 <_ZN9CCounters5read1Eji+0x60>
    400023e3:	31 c9                	xor    %ecx,%ecx
    400023e5:	eb 15                	jmp    400023fc <_ZN9CCounters5read1Eji+0x3c>
    400023e7:	66 0f 1f 84 00 00 00 	nopw   0x0(%rax,%rax,1)
    400023ee:	00 00 
    400023f0:	83 c1 01             	add    $0x1,%ecx
    400023f3:	48 83 c0 10          	add    $0x10,%rax
    400023f7:	44 39 c1             	cmp    %r8d,%ecx
    400023fa:	74 24                	je     40002420 <_ZN9CCounters5read1Eji+0x60>
    400023fc:	83 38 02             	cmpl   $0x2,(%rax)
    400023ff:	75 ef                	jne    400023f0 <_ZN9CCounters5read1Eji+0x30>
    40002401:	39 70 04             	cmp    %esi,0x4(%rax)
    40002404:	75 ea                	jne    400023f0 <_ZN9CCounters5read1Eji+0x30>
    40002406:	48 69 c2 18 02 00 00 	imul   $0x218,%rdx,%rax
    4000240d:	48 63 c9             	movslq %ecx,%rcx
    40002410:	48 c1 e1 04          	shl    $0x4,%rcx
    40002414:	48 01 c8             	add    %rcx,%rax
    40002417:	48 8b 44 07 68       	mov    0x68(%rdi,%rax,1),%rax
    4000241c:	c3                   	ret    
    4000241d:	0f 1f 00             	nopl   (%rax)
    40002420:	31 c0                	xor    %eax,%eax
    40002422:	c3                   	ret    
    40002423:	90                   	nop
    40002424:	66 66 2e 0f 1f 84 00 	data16 cs nopw 0x0(%rax,%rax,1)
    4000242b:	00 00 00 00 
    4000242f:	90                   	nop

0000000040002430 <_ZN9CCounters5read2Eji>:
    40002430:	f3 0f 1e fa          	endbr64 
    40002434:	f3 0f 1e fa          	endbr64 
    40002438:	48 63 d2             	movslq %edx,%rdx
    4000243b:	48 69 c2 18 02 00 00 	imul   $0x218,%rdx,%rax
    40002442:	44 8b 84 07 70 88 00 	mov    0x8870(%rdi,%rax,1),%r8d
    40002449:	00 
    4000244a:	45 85 c0             	test   %r8d,%r8d
    4000244d:	7e 49                	jle    40002498 <_ZN9CCounters5read2Eji+0x68>
    4000244f:	48 8d 44 07 64       	lea    0x64(%rdi,%rax,1),%rax
    40002454:	31 c9                	xor    %ecx,%ecx
    40002456:	eb 14                	jmp    4000246c <_ZN9CCounters5read2Eji+0x3c>
    40002458:	0f 1f 84 00 00 00 00 	nopl   0x0(%rax,%rax,1)
    4000245f:	00 
    40002460:	83 c1 01             	add    $0x1,%ecx
    40002463:	48 83 c0 10          	add    $0x10,%rax
    40002467:	44 39 c1             	cmp    %r8d,%ecx
    4000246a:	74 2c                	je     40002498 <_ZN9CCounters5read2Eji+0x68>
    4000246c:	83 b8 fc 85 00 00 02 	cmpl   $0x2,0x85fc(%rax)
    40002473:	75 eb                	jne    40002460 <_ZN9CCounters5read2Eji+0x30>
    40002475:	39 30                	cmp    %esi,(%rax)
    40002477:	75 e7                	jne    40002460 <_ZN9CCounters5read2Eji+0x30>
    40002479:	48 69 c2 18 02 00 00 	imul   $0x218,%rdx,%rax
    40002480:	48 63 c9             	movslq %ecx,%rcx
    40002483:	48 c1 e1 04          	shl    $0x4,%rcx
    40002487:	48 01 c8             	add    %rcx,%rax
    4000248a:	48 8b 84 07 68 86 00 	mov    0x8668(%rdi,%rax,1),%rax
    40002491:	00 
    40002492:	c3                   	ret    
    40002493:	0f 1f 44 00 00       	nopl   0x0(%rax,%rax,1)
    40002498:	31 c0                	xor    %eax,%eax
    4000249a:	c3                   	ret    
    4000249b:	90                   	nop
    4000249c:	0f 1f 40 00          	nopl   0x0(%rax)

00000000400024a0 <_ZN9CCounters13StartCountersEi>:
    400024a0:	f3 0f 1e fa          	endbr64 
    400024a4:	f3 0f 1e fa          	endbr64 
    400024a8:	48 8d 05 f5 ff ff ff 	lea    -0xb(%rip),%rax        # 400024a4 <_ZN9CCounters13StartCountersEi+0x4>
    400024af:	49 bb 5c 5b 00 00 00 	movabs $0x5b5c,%r11
    400024b6:	00 00 00 
    400024b9:	48 ba a0 ff ff ff ff 	movabs $0xffffffffffffffa0,%rdx
    400024c0:	ff ff ff 
    400024c3:	4c 01 d8             	add    %r11,%rax
    400024c6:	48 8b 14 10          	mov    (%rax,%rdx,1),%rdx
    400024ca:	8b 12                	mov    (%rdx),%edx
    400024cc:	85 d2                	test   %edx,%edx
    400024ce:	74 10                	je     400024e0 <_ZN9CCounters13StartCountersEi+0x40>
    400024d0:	48 ba 50 99 ff ff ff 	movabs $0xffffffffffff9950,%rdx
    400024d7:	ff ff ff 
    400024da:	48 01 d0             	add    %rdx,%rax
    400024dd:	ff e0                	jmp    *%rax
    400024df:	90                   	nop
    400024e0:	c3                   	ret    
    400024e1:	90                   	nop
    400024e2:	66 66 2e 0f 1f 84 00 	data16 cs nopw 0x0(%rax,%rax,1)
    400024e9:	00 00 00 00 
    400024ed:	0f 1f 00             	nopl   (%rax)

00000000400024f0 <_ZN9CCounters12StopCountersEi>:
    400024f0:	f3 0f 1e fa          	endbr64 
    400024f4:	f3 0f 1e fa          	endbr64 
    400024f8:	48 8d 05 f5 ff ff ff 	lea    -0xb(%rip),%rax        # 400024f4 <_ZN9CCounters12StopCountersEi+0x4>
    400024ff:	49 bb 0c 5b 00 00 00 	movabs $0x5b0c,%r11
    40002506:	00 00 00 
    40002509:	48 ba a0 ff ff ff ff 	movabs $0xffffffffffffffa0,%rdx
    40002510:	ff ff ff 
    40002513:	4c 01 d8             	add    %r11,%rax
    40002516:	48 8b 14 10          	mov    (%rax,%rdx,1),%rdx
    4000251a:	8b 12                	mov    (%rdx),%edx
    4000251c:	85 d2                	test   %edx,%edx
    4000251e:	74 10                	je     40002530 <_ZN9CCounters12StopCountersEi+0x40>
    40002520:	48 ba 90 96 ff ff ff 	movabs $0xffffffffffff9690,%rdx
    40002527:	ff ff ff 
    4000252a:	48 01 d0             	add    %rdx,%rax
    4000252d:	ff e0                	jmp    *%rax
    4000252f:	90                   	nop
    40002530:	c3                   	ret    
    40002531:	90                   	nop
    40002532:	66 66 2e 0f 1f 84 00 	data16 cs nopw 0x0(%rax,%rax,1)
    40002539:	00 00 00 00 
    4000253d:	0f 1f 00             	nopl   (%rax)

0000000040002540 <_ZN9CCounters18GetProcessorVendorEv>:
    40002540:	f3 0f 1e fa          	endbr64 
    40002544:	f3 0f 1e fa          	endbr64 
    40002548:	49 bb bc 5a 00 00 00 	movabs $0x5abc,%r11
    4000254f:	00 00 00 
    40002552:	41 57                	push   %r15
    40002554:	31 c0                	xor    %eax,%eax
    40002556:	4c 8d 3d e7 ff ff ff 	lea    -0x19(%rip),%r15        # 40002544 <_ZN9CCounters18GetProcessorVendorEv+0x4>
    4000255d:	53                   	push   %rbx
    4000255e:	89 c1                	mov    %eax,%ecx
    40002560:	4d 01 df             	add    %r11,%r15
    40002563:	0f a2                	cpuid  
    40002565:	81 f9 6e 74 65 6c    	cmp    $0x6c65746e,%ecx
    4000256b:	74 3b                	je     400025a8 <_ZN9CCounters18GetProcessorVendorEv+0x68>
    4000256d:	31 c0                	xor    %eax,%eax
    4000256f:	81 f9 63 41 4d 44    	cmp    $0x444d4163,%ecx
    40002575:	0f 94 c0             	sete   %al
    40002578:	01 c0                	add    %eax,%eax
    4000257a:	89 47 50             	mov    %eax,0x50(%rdi)
    4000257d:	81 fb 43 65 6e 74    	cmp    $0x746e6543,%ebx
    40002583:	75 07                	jne    4000258c <_ZN9CCounters18GetProcessorVendorEv+0x4c>
    40002585:	c7 47 50 03 00 00 00 	movl   $0x3,0x50(%rdi)
    4000258c:	48 b8 48 61 81 00 00 	movabs $0x816148,%rax
    40002593:	00 00 00 
    40002596:	41 8b 04 07          	mov    (%r15,%rax,1),%eax
    4000259a:	85 c0                	test   %eax,%eax
    4000259c:	75 1a                	jne    400025b8 <_ZN9CCounters18GetProcessorVendorEv+0x78>
    4000259e:	5b                   	pop    %rbx
    4000259f:	41 5f                	pop    %r15
    400025a1:	c3                   	ret    
    400025a2:	66 0f 1f 44 00 00    	nopw   0x0(%rax,%rax,1)
    400025a8:	c7 47 50 01 00 00 00 	movl   $0x1,0x50(%rdi)
    400025af:	eb cc                	jmp    4000257d <_ZN9CCounters18GetProcessorVendorEv+0x3d>
    400025b1:	0f 1f 80 00 00 00 00 	nopl   0x0(%rax)
    400025b8:	48 b8 60 d2 ff ff ff 	movabs $0xffffffffffffd260,%rax
    400025bf:	ff ff ff 
    400025c2:	8b 57 50             	mov    0x50(%rdi),%edx
    400025c5:	5b                   	pop    %rbx
    400025c6:	bf 01 00 00 00       	mov    $0x1,%edi
    400025cb:	48 b9 30 90 3f c0 ff 	movabs $0xffffffffc03f9030,%rcx
    400025d2:	ff ff ff 
    400025d5:	49 8d 34 07          	lea    (%r15,%rax,1),%rsi
    400025d9:	31 c0                	xor    %eax,%eax
    400025db:	4c 01 f9             	add    %r15,%rcx
    400025de:	41 5f                	pop    %r15
    400025e0:	ff e1                	jmp    *%rcx
    400025e2:	66 66 2e 0f 1f 84 00 	data16 cs nopw 0x0(%rax,%rax,1)
    400025e9:	00 00 00 00 
    400025ed:	0f 1f 00             	nopl   (%rax)

00000000400025f0 <_ZN9CCounters18GetProcessorFamilyEv>:
    400025f0:	f3 0f 1e fa          	endbr64 
    400025f4:	f3 0f 1e fa          	endbr64 
    400025f8:	31 c9                	xor    %ecx,%ecx
    400025fa:	48 8d 35 f3 ff ff ff 	lea    -0xd(%rip),%rsi        # 400025f4 <_ZN9CCounters18GetProcessorFamilyEv+0x4>
    40002601:	53                   	push   %rbx
    40002602:	49 bb 0c 5a 00 00 00 	movabs $0x5a0c,%r11
    40002609:	00 00 00 
    4000260c:	89 c8                	mov    %ecx,%eax
    4000260e:	c7 47 54 00 00 00 00 	movl   $0x0,0x54(%rdi)
    40002615:	4c 01 de             	add    %r11,%rsi
    40002618:	0f a2                	cpuid  
    4000261a:	85 c0                	test   %eax,%eax
    4000261c:	74 12                	je     40002630 <_ZN9CCounters18GetProcessorFamilyEv+0x40>
    4000261e:	48 b8 00 97 ff ff ff 	movabs $0xffffffffffff9700,%rax
    40002625:	ff ff ff 
    40002628:	5b                   	pop    %rbx
    40002629:	48 01 f0             	add    %rsi,%rax
    4000262c:	ff e0                	jmp    *%rax
    4000262e:	66 90                	xchg   %ax,%ax
    40002630:	5b                   	pop    %rbx
    40002631:	c3                   	ret    
    40002632:	66 66 2e 0f 1f 84 00 	data16 cs nopw 0x0(%rax,%rax,1)
    40002639:	00 00 00 00 
    4000263d:	0f 1f 00             	nopl   (%rax)

0000000040002640 <_ZN9CCounters12GetPMCSchemeEv>:
    40002640:	f3 0f 1e fa          	endbr64 
    40002644:	f3 0f 1e fa          	endbr64 
    40002648:	49 bb bc 59 00 00 00 	movabs $0x59bc,%r11
    4000264f:	00 00 00 
    40002652:	41 57                	push   %r15
    40002654:	4c 8d 3d e9 ff ff ff 	lea    -0x17(%rip),%r15        # 40002644 <_ZN9CCounters12GetPMCSchemeEv+0x4>
    4000265b:	55                   	push   %rbp
    4000265c:	4d 01 df             	add    %r11,%r15
    4000265f:	48 89 fd             	mov    %rdi,%rbp
    40002662:	53                   	push   %rbx
    40002663:	8b 47 50             	mov    0x50(%rdi),%eax
    40002666:	c7 47 58 00 00 00 00 	movl   $0x0,0x58(%rdi)
    4000266d:	48 c7 87 64 0c 01 00 	movq   $0x2,0x10c64(%rdi)
    40002674:	02 00 00 00 
    40002678:	83 f8 02             	cmp    $0x2,%eax
    4000267b:	0f 84 2f 01 00 00    	je     400027b0 <_ZN9CCounters12GetPMCSchemeEv+0x170>
    40002681:	83 f8 03             	cmp    $0x3,%eax
    40002684:	75 4a                	jne    400026d0 <_ZN9CCounters12GetPMCSchemeEv+0x90>
    40002686:	c7 47 58 00 00 10 00 	movl   $0x100000,0x58(%rdi)
    4000268d:	48 b8 48 61 81 00 00 	movabs $0x816148,%rax
    40002694:	00 00 00 
    40002697:	48 bb 30 90 3f c0 ff 	movabs $0xffffffffc03f9030,%rbx
    4000269e:	ff ff ff 
    400026a1:	41 8b 04 07          	mov    (%r15,%rax,1),%eax
    400026a5:	85 c0                	test   %eax,%eax
    400026a7:	0f 84 fa 00 00 00    	je     400027a7 <_ZN9CCounters12GetPMCSchemeEv+0x167>
    400026ad:	4a 8d 0c 3b          	lea    (%rbx,%r15,1),%rcx
    400026b1:	8b 55 58             	mov    0x58(%rbp),%edx
    400026b4:	5b                   	pop    %rbx
    400026b5:	bf 01 00 00 00       	mov    $0x1,%edi
    400026ba:	48 b8 8b d2 ff ff ff 	movabs $0xffffffffffffd28b,%rax
    400026c1:	ff ff ff 
    400026c4:	5d                   	pop    %rbp
    400026c5:	49 8d 34 07          	lea    (%r15,%rax,1),%rsi
    400026c9:	31 c0                	xor    %eax,%eax
    400026cb:	41 5f                	pop    %r15
    400026cd:	ff e1                	jmp    *%rcx
    400026cf:	90                   	nop
    400026d0:	83 f8 01             	cmp    $0x1,%eax
    400026d3:	75 b8                	jne    4000268d <_ZN9CCounters12GetPMCSchemeEv+0x4d>
    400026d5:	31 f6                	xor    %esi,%esi
    400026d7:	89 f0                	mov    %esi,%eax
    400026d9:	89 f1                	mov    %esi,%ecx
    400026db:	0f a2                	cpuid  
    400026dd:	83 f8 09             	cmp    $0x9,%eax
    400026e0:	0f 8e 8a 00 00 00    	jle    40002770 <_ZN9CCounters12GetPMCSchemeEv+0x130>
    400026e6:	b8 0a 00 00 00       	mov    $0xa,%eax
    400026eb:	89 f1                	mov    %esi,%ecx
    400026ed:	0f a2                	cpuid  
    400026ef:	89 c1                	mov    %eax,%ecx
    400026f1:	81 e1 ff 00 00 00    	and    $0xff,%ecx
    400026f7:	74 77                	je     40002770 <_ZN9CCounters12GetPMCSchemeEv+0x130>
    400026f9:	0f b6 c4             	movzbl %ah,%eax
    400026fc:	83 e9 01             	sub    $0x1,%ecx
    400026ff:	bf 20 00 00 00       	mov    $0x20,%edi
    40002704:	89 85 64 0c 01 00    	mov    %eax,0x10c64(%rbp)
    4000270a:	89 d0                	mov    %edx,%eax
    4000270c:	d3 e7                	shl    %cl,%edi
    4000270e:	83 e0 1f             	and    $0x1f,%eax
    40002711:	89 7d 58             	mov    %edi,0x58(%rbp)
    40002714:	89 85 68 0c 01 00    	mov    %eax,0x10c68(%rbp)
    4000271a:	48 b8 48 61 81 00 00 	movabs $0x816148,%rax
    40002721:	00 00 00 
    40002724:	41 8b 0c 07          	mov    (%r15,%rax,1),%ecx
    40002728:	85 ff                	test   %edi,%edi
    4000272a:	74 52                	je     4000277e <_ZN9CCounters12GetPMCSchemeEv+0x13e>
    4000272c:	85 c9                	test   %ecx,%ecx
    4000272e:	74 77                	je     400027a7 <_ZN9CCounters12GetPMCSchemeEv+0x167>
    40002730:	48 b8 6d d2 ff ff ff 	movabs $0xffffffffffffd26d,%rax
    40002737:	ff ff ff 
    4000273a:	8b 8d 68 0c 01 00    	mov    0x10c68(%rbp),%ecx
    40002740:	bf 01 00 00 00       	mov    $0x1,%edi
    40002745:	48 bb 30 90 3f c0 ff 	movabs $0xffffffffc03f9030,%rbx
    4000274c:	ff ff ff 
    4000274f:	49 8d 34 07          	lea    (%r15,%rax,1),%rsi
    40002753:	8b 95 64 0c 01 00    	mov    0x10c64(%rbp),%edx
    40002759:	31 c0                	xor    %eax,%eax
    4000275b:	4e 8d 04 3b          	lea    (%rbx,%r15,1),%r8
    4000275f:	41 ff d0             	call   *%r8
    40002762:	e9 46 ff ff ff       	jmp    400026ad <_ZN9CCounters12GetPMCSchemeEv+0x6d>
    40002767:	66 0f 1f 84 00 00 00 	nopw   0x0(%rax,%rax,1)
    4000276e:	00 00 
    40002770:	48 b8 48 61 81 00 00 	movabs $0x816148,%rax
    40002777:	00 00 00 
    4000277a:	41 8b 0c 07          	mov    (%r15,%rax,1),%ecx
    4000277e:	8b 45 54             	mov    0x54(%rbp),%eax
    40002781:	83 f8 20             	cmp    $0x20,%eax
    40002784:	0f 87 8e 00 00 00    	ja     40002818 <_ZN9CCounters12GetPMCSchemeEv+0x1d8>
    4000278a:	85 c0                	test   %eax,%eax
    4000278c:	74 15                	je     400027a3 <_ZN9CCounters12GetPMCSchemeEv+0x163>
    4000278e:	83 f8 20             	cmp    $0x20,%eax
    40002791:	77 10                	ja     400027a3 <_ZN9CCounters12GetPMCSchemeEv+0x163>
    40002793:	89 c2                	mov    %eax,%edx
    40002795:	48 8d 05 14 31 00 00 	lea    0x3114(%rip),%rax        # 400058b0 <_IO_stdin_used+0x8b0>
    4000279c:	48 03 04 d0          	add    (%rax,%rdx,8),%rax
    400027a0:	3e ff e0             	notrack jmp *%rax
    400027a3:	85 c9                	test   %ecx,%ecx
    400027a5:	75 89                	jne    40002730 <_ZN9CCounters12GetPMCSchemeEv+0xf0>
    400027a7:	5b                   	pop    %rbx
    400027a8:	5d                   	pop    %rbp
    400027a9:	41 5f                	pop    %r15
    400027ab:	c3                   	ret    
    400027ac:	0f 1f 40 00          	nopl   0x0(%rax)
    400027b0:	31 f6                	xor    %esi,%esi
    400027b2:	b8 06 00 00 00       	mov    $0x6,%eax
    400027b7:	c7 47 58 00 10 00 00 	movl   $0x1000,0x58(%rdi)
    400027be:	c7 87 64 0c 01 00 04 	movl   $0x4,0x10c64(%rdi)
    400027c5:	00 00 00 
    400027c8:	89 f1                	mov    %esi,%ecx
    400027ca:	0f a2                	cpuid  
    400027cc:	83 e1 01             	and    $0x1,%ecx
    400027cf:	0f 84 b8 fe ff ff    	je     4000268d <_ZN9CCounters12GetPMCSchemeEv+0x4d>
    400027d5:	b8 01 00 00 80       	mov    $0x80000001,%eax
    400027da:	89 f1                	mov    %esi,%ecx
    400027dc:	0f a2                	cpuid  
    400027de:	81 e1 00 00 00 10    	and    $0x10000000,%ecx
    400027e4:	0f 84 a3 fe ff ff    	je     4000268d <_ZN9CCounters12GetPMCSchemeEv+0x4d>
    400027ea:	48 b8 10 00 00 00 e8 	movabs $0xc00000e800000010,%rax
    400027f1:	00 00 c0 
    400027f4:	c7 47 58 00 20 00 00 	movl   $0x2000,0x58(%rdi)
    400027fb:	c7 87 64 0c 01 00 06 	movl   $0x6,0x10c64(%rdi)
    40002802:	00 00 00 
    40002805:	48 89 87 70 0c 01 00 	mov    %rax,0x10c70(%rdi)
    4000280c:	e9 7c fe ff ff       	jmp    4000268d <_ZN9CCounters12GetPMCSchemeEv+0x4d>
    40002811:	0f 1f 80 00 00 00 00 	nopl   0x0(%rax)
    40002818:	8d 90 00 f0 ff ff    	lea    -0x1000(%rax),%edx
    4000281e:	81 e2 ff ef ff ff    	and    $0xffffefff,%edx
    40002824:	74 09                	je     4000282f <_ZN9CCounters12GetPMCSchemeEv+0x1ef>
    40002826:	83 f8 40             	cmp    $0x40,%eax
    40002829:	0f 85 74 ff ff ff    	jne    400027a3 <_ZN9CCounters12GetPMCSchemeEv+0x163>
    4000282f:	c7 45 58 80 00 00 00 	movl   $0x80,0x58(%rbp)
    40002836:	e9 f1 fe ff ff       	jmp    4000272c <_ZN9CCounters12GetPMCSchemeEv+0xec>
    4000283b:	c7 45 58 40 00 00 00 	movl   $0x40,0x58(%rbp)
    40002842:	e9 e5 fe ff ff       	jmp    4000272c <_ZN9CCounters12GetPMCSchemeEv+0xec>
    40002847:	c7 45 58 20 00 00 00 	movl   $0x20,0x58(%rbp)
    4000284e:	e9 d9 fe ff ff       	jmp    4000272c <_ZN9CCounters12GetPMCSchemeEv+0xec>
    40002853:	c7 45 58 02 00 00 00 	movl   $0x2,0x58(%rbp)
    4000285a:	e9 cd fe ff ff       	jmp    4000272c <_ZN9CCounters12GetPMCSchemeEv+0xec>
    4000285f:	c7 45 58 10 00 00 00 	movl   $0x10,0x58(%rbp)
    40002866:	e9 c1 fe ff ff       	jmp    4000272c <_ZN9CCounters12GetPMCSchemeEv+0xec>
    4000286b:	c7 45 58 01 00 00 00 	movl   $0x1,0x58(%rbp)
    40002872:	e9 b5 fe ff ff       	jmp    4000272c <_ZN9CCounters12GetPMCSchemeEv+0xec>
    40002877:	90                   	nop
    40002878:	0f 1f 84 00 00 00 00 	nopl   0x0(%rax,%rax,1)
    4000287f:	00 

0000000040002880 <_ZN9CCounters13DefineCounterER18SCounterDefinition>:
    40002880:	f3 0f 1e fa          	endbr64 
    40002884:	f3 0f 1e fa          	endbr64 
    40002888:	48 8d 15 f5 ff ff ff 	lea    -0xb(%rip),%rdx        # 40002884 <_ZN9CCounters13DefineCounterER18SCounterDefinition+0x4>
    4000288f:	44 8b 57 54          	mov    0x54(%rdi),%r10d
    40002893:	49 bb 7c 57 00 00 00 	movabs $0x577c,%r11
    4000289a:	00 00 00 
    4000289d:	48 b8 98 d0 ff ff ff 	movabs $0xffffffffffffd098,%rax
    400028a4:	ff ff ff 
    400028a7:	4c 01 da             	add    %r11,%rdx
    400028aa:	48 01 d0             	add    %rdx,%rax
    400028ad:	44 85 56 08          	test   %r10d,0x8(%rsi)
    400028b1:	0f 84 59 01 00 00    	je     40002a10 <_ZN9CCounters13DefineCounterER18SCounterDefinition+0x190>
    400028b7:	41 57                	push   %r15
    400028b9:	49 bf e0 ff ff ff ff 	movabs $0xffffffffffffffe0,%r15
    400028c0:	ff ff ff 
    400028c3:	49 8b 04 17          	mov    (%r15,%rdx,1),%rax
    400028c7:	41 56                	push   %r14
    400028c9:	41 55                	push   %r13
    400028cb:	41 54                	push   %r12
    400028cd:	55                   	push   %rbp
    400028ce:	53                   	push   %rbx
    400028cf:	44 8b 00             	mov    (%rax),%r8d
    400028d2:	48 b8 c0 ff ff ff ff 	movabs $0xffffffffffffffc0,%rax
    400028d9:	ff ff ff 
    400028dc:	48 8b 0c 02          	mov    (%rdx,%rax,1),%rcx
    400028e0:	48 b8 99 d2 ff ff ff 	movabs $0xffffffffffffd299,%rax
    400028e7:	ff ff ff 
    400028ea:	48 01 d0             	add    %rdx,%rax
    400028ed:	44 3b 01             	cmp    (%rcx),%r8d
    400028f0:	0f 8d 8d 00 00 00    	jge    40002983 <_ZN9CCounters13DefineCounterER18SCounterDefinition+0x103>
    400028f6:	8b 46 0c             	mov    0xc(%rsi),%eax
    400028f9:	a9 00 00 00 40       	test   $0x40000000,%eax
    400028fe:	0f 85 14 01 00 00    	jne    40002a18 <_ZN9CCounters13DefineCounterER18SCounterDefinition+0x198>
    40002904:	44 8b 76 10          	mov    0x10(%rsi),%r14d
    40002908:	44 39 f0             	cmp    %r14d,%eax
    4000290b:	0f 8f 7f 0a 00 00    	jg     40003390 <_ZN9CCounters13DefineCounterER18SCounterDefinition+0xb10>
    40002911:	48 bb 88 ff ff ff ff 	movabs $0xffffffffffffff88,%rbx
    40002918:	ff ff ff 
    4000291b:	45 8d 48 ff          	lea    -0x1(%r8),%r9d
    4000291f:	49 bc c8 ff ff ff ff 	movabs $0xffffffffffffffc8,%r12
    40002926:	ff ff ff 
    40002929:	4c 8b 2c 13          	mov    (%rbx,%rdx,1),%r13
    4000292d:	48 89 5c 24 e8       	mov    %rbx,-0x18(%rsp)
    40002932:	49 c1 e1 02          	shl    $0x2,%r9
    40002936:	49 8b 1c 14          	mov    (%r12,%rdx,1),%rbx
    4000293a:	49 bc 00 da ff ff ff 	movabs $0xffffffffffffda00,%r12
    40002941:	ff ff ff 
    40002944:	4b 8d 4c 0d 04       	lea    0x4(%r13,%r9,1),%rcx
    40002949:	49 01 d4             	add    %rdx,%r12
    4000294c:	48 89 5c 24 f0       	mov    %rbx,-0x10(%rsp)
    40002951:	4e 8d 4c 0b 04       	lea    0x4(%rbx,%r9,1),%r9
    40002956:	45 85 c0             	test   %r8d,%r8d
    40002959:	7e 35                	jle    40002990 <_ZN9CCounters13DefineCounterER18SCounterDefinition+0x110>
    4000295b:	4d 89 eb             	mov    %r13,%r11
    4000295e:	eb 09                	jmp    40002969 <_ZN9CCounters13DefineCounterER18SCounterDefinition+0xe9>
    40002960:	49 83 c3 04          	add    $0x4,%r11
    40002964:	49 39 cb             	cmp    %rcx,%r11
    40002967:	74 27                	je     40002990 <_ZN9CCounters13DefineCounterER18SCounterDefinition+0x110>
    40002969:	41 39 03             	cmp    %eax,(%r11)
    4000296c:	75 f2                	jne    40002960 <_ZN9CCounters13DefineCounterER18SCounterDefinition+0xe0>
    4000296e:	83 c0 01             	add    $0x1,%eax
    40002971:	44 39 f0             	cmp    %r14d,%eax
    40002974:	7e e0                	jle    40002956 <_ZN9CCounters13DefineCounterER18SCounterDefinition+0xd6>
    40002976:	48 b8 08 d1 ff ff ff 	movabs $0xffffffffffffd108,%rax
    4000297d:	ff ff ff 
    40002980:	48 01 d0             	add    %rdx,%rax
    40002983:	5b                   	pop    %rbx
    40002984:	5d                   	pop    %rbp
    40002985:	41 5c                	pop    %r12
    40002987:	41 5d                	pop    %r13
    40002989:	41 5e                	pop    %r14
    4000298b:	41 5f                	pop    %r15
    4000298d:	c3                   	ret    
    4000298e:	66 90                	xchg   %ax,%ax
    40002990:	41 83 fa 08          	cmp    $0x8,%r10d
    40002994:	0f 85 06 0a 00 00    	jne    400033a0 <_ZN9CCounters13DefineCounterER18SCounterDefinition+0xb20>
    4000299a:	48 63 5e 14          	movslq 0x14(%rsi),%rbx
    4000299e:	83 f8 11             	cmp    $0x11,%eax
    400029a1:	0f 87 9a 0f 00 00    	ja     40003941 <_ZN9CCounters13DefineCounterER18SCounterDefinition+0x10c1>
    400029a7:	44 8d 58 fd          	lea    -0x3(%rax),%r11d
    400029ab:	83 f8 0f             	cmp    $0xf,%eax
    400029ae:	44 0f 46 d8          	cmovbe %eax,%r11d
    400029b2:	83 fb 07             	cmp    $0x7,%ebx
    400029b5:	0f 87 86 0f 00 00    	ja     40003941 <_ZN9CCounters13DefineCounterER18SCounterDefinition+0x10c1>
    400029bb:	44 89 dd             	mov    %r11d,%ebp
    400029be:	c1 ed 02             	shr    $0x2,%ebp
    400029c1:	48 8d 1c eb          	lea    (%rbx,%rbp,8),%rbx
    400029c5:	41 8b 1c 9c          	mov    (%r12,%rbx,4),%ebx
    400029c9:	85 db                	test   %ebx,%ebx
    400029cb:	78 0b                	js     400029d8 <_ZN9CCounters13DefineCounterER18SCounterDefinition+0x158>
    400029cd:	41 83 e3 02          	and    $0x2,%r11d
    400029d1:	41 83 fb 01          	cmp    $0x1,%r11d
    400029d5:	83 db ff             	sbb    $0xffffffff,%ebx
    400029d8:	45 85 c0             	test   %r8d,%r8d
    400029db:	0f 8e bf 09 00 00    	jle    400033a0 <_ZN9CCounters13DefineCounterER18SCounterDefinition+0xb20>
    400029e1:	4c 8b 5c 24 f0       	mov    -0x10(%rsp),%r11
    400029e6:	eb 15                	jmp    400029fd <_ZN9CCounters13DefineCounterER18SCounterDefinition+0x17d>
    400029e8:	0f 1f 84 00 00 00 00 	nopl   0x0(%rax,%rax,1)
    400029ef:	00 
    400029f0:	49 83 c3 04          	add    $0x4,%r11
    400029f4:	4d 39 cb             	cmp    %r9,%r11
    400029f7:	0f 84 a3 09 00 00    	je     400033a0 <_ZN9CCounters13DefineCounterER18SCounterDefinition+0xb20>
    400029fd:	41 39 1b             	cmp    %ebx,(%r11)
    40002a00:	75 ee                	jne    400029f0 <_ZN9CCounters13DefineCounterER18SCounterDefinition+0x170>
    40002a02:	e9 67 ff ff ff       	jmp    4000296e <_ZN9CCounters13DefineCounterER18SCounterDefinition+0xee>
    40002a07:	66 0f 1f 84 00 00 00 	nopw   0x0(%rax,%rax,1)
    40002a0e:	00 00 
    40002a10:	c3                   	ret    
    40002a11:	0f 1f 80 00 00 00 00 	nopl   0x0(%rax)
    40002a18:	49 63 d8             	movslq %r8d,%rbx
    40002a1b:	48 8d 4e 20          	lea    0x20(%rsi),%rcx
    40002a1f:	48 89 4c df 10       	mov    %rcx,0x10(%rdi,%rbx,8)
    40002a24:	8b 4f 58             	mov    0x58(%rdi),%ecx
    40002a27:	48 89 5c 24 f0       	mov    %rbx,-0x10(%rsp)
    40002a2c:	81 f9 00 01 00 00    	cmp    $0x100,%ecx
    40002a32:	0f 84 8d 09 00 00    	je     400033c5 <_ZN9CCounters13DefineCounterER18SCounterDefinition+0xb45>
    40002a38:	81 f9 00 01 00 00    	cmp    $0x100,%ecx
    40002a3e:	77 48                	ja     40002a88 <_ZN9CCounters13DefineCounterER18SCounterDefinition+0x208>
    40002a40:	83 f9 02             	cmp    $0x2,%ecx
    40002a43:	0f 84 d7 0a 00 00    	je     40003520 <_ZN9CCounters13DefineCounterER18SCounterDefinition+0xca0>
    40002a49:	0f 86 06 06 00 00    	jbe    40003055 <_ZN9CCounters13DefineCounterER18SCounterDefinition+0x7d5>
    40002a4f:	83 f9 20             	cmp    $0x20,%ecx
    40002a52:	0f 84 27 04 00 00    	je     40002e7f <_ZN9CCounters13DefineCounterER18SCounterDefinition+0x5ff>
    40002a58:	0f 86 18 04 00 00    	jbe    40002e76 <_ZN9CCounters13DefineCounterER18SCounterDefinition+0x5f6>
    40002a5e:	83 e9 40             	sub    $0x40,%ecx
    40002a61:	83 e1 bf             	and    $0xffffffbf,%ecx
    40002a64:	0f 84 be 07 00 00    	je     40003228 <_ZN9CCounters13DefineCounterER18SCounterDefinition+0x9a8>
    40002a6a:	48 b8 d0 d0 ff ff ff 	movabs $0xffffffffffffd0d0,%rax
    40002a71:	ff ff ff 
    40002a74:	5b                   	pop    %rbx
    40002a75:	5d                   	pop    %rbp
    40002a76:	48 01 d0             	add    %rdx,%rax
    40002a79:	41 5c                	pop    %r12
    40002a7b:	41 5d                	pop    %r13
    40002a7d:	41 5e                	pop    %r14
    40002a7f:	41 5f                	pop    %r15
    40002a81:	c3                   	ret    
    40002a82:	66 0f 1f 44 00 00    	nopw   0x0(%rax,%rax,1)
    40002a88:	81 f9 00 20 00 00    	cmp    $0x2000,%ecx
    40002a8e:	0f 84 9c 0d 00 00    	je     40003830 <_ZN9CCounters13DefineCounterER18SCounterDefinition+0xfb0>
    40002a94:	0f 86 f6 01 00 00    	jbe    40002c90 <_ZN9CCounters13DefineCounterER18SCounterDefinition+0x410>
    40002a9a:	81 f9 00 00 10 00    	cmp    $0x100000,%ecx
    40002aa0:	75 c8                	jne    40002a6a <_ZN9CCounters13DefineCounterER18SCounterDefinition+0x1ea>
    40002aa2:	48 b9 98 ff ff ff ff 	movabs $0xffffffffffffff98,%rcx
    40002aa9:	ff ff ff 
    40002aac:	44 8b 6e 18          	mov    0x18(%rsi),%r13d
    40002ab0:	48 bb 88 ff ff ff ff 	movabs $0xffffffffffffff88,%rbx
    40002ab7:	ff ff ff 
    40002aba:	8d a8 c1 00 00 00    	lea    0xc1(%rax),%ebp
    40002ac0:	48 8b 0c 0a          	mov    (%rdx,%rcx,1),%rcx
    40002ac4:	48 89 5c 24 e8       	mov    %rbx,-0x18(%rsp)
    40002ac9:	44 8d a0 86 01 00 00 	lea    0x186(%rax),%r12d
    40002ad0:	41 81 cd 00 00 41 00 	or     $0x410000,%r13d
    40002ad7:	44 8b 11             	mov    (%rcx),%r10d
    40002ada:	45 85 d2             	test   %r10d,%r10d
    40002add:	0f 8e 83 01 00 00    	jle    40002c66 <_ZN9CCounters13DefineCounterER18SCounterDefinition+0x3e6>
    40002ae3:	4c 8d 9f 70 02 00 00 	lea    0x270(%rdi),%r11
    40002aea:	31 db                	xor    %ebx,%ebx
    40002aec:	4d 89 de             	mov    %r11,%r14
    40002aef:	90                   	nop
    40002af0:	41 8b 36             	mov    (%r14),%esi
    40002af3:	83 fe 1f             	cmp    $0x1f,%esi
    40002af6:	7f 33                	jg     40002b2b <_ZN9CCounters13DefineCounterER18SCounterDefinition+0x2ab>
    40002af8:	4c 63 cb             	movslq %ebx,%r9
    40002afb:	48 63 ce             	movslq %esi,%rcx
    40002afe:	83 c6 01             	add    $0x1,%esi
    40002b01:	4d 69 c9 18 02 00 00 	imul   $0x218,%r9,%r9
    40002b08:	48 c1 e1 04          	shl    $0x4,%rcx
    40002b0c:	4c 01 c9             	add    %r9,%rcx
    40002b0f:	48 01 f9             	add    %rdi,%rcx
    40002b12:	c7 41 60 03 00 00 00 	movl   $0x3,0x60(%rcx)
    40002b19:	44 89 61 64          	mov    %r12d,0x64(%rcx)
    40002b1d:	44 89 69 68          	mov    %r13d,0x68(%rcx)
    40002b21:	c7 41 6c 00 00 00 00 	movl   $0x0,0x6c(%rcx)
    40002b28:	41 89 36             	mov    %esi,(%r14)
    40002b2b:	83 c3 01             	add    $0x1,%ebx
    40002b2e:	49 81 c6 18 02 00 00 	add    $0x218,%r14
    40002b35:	41 39 da             	cmp    %ebx,%r10d
    40002b38:	75 b6                	jne    40002af0 <_ZN9CCounters13DefineCounterER18SCounterDefinition+0x270>
    40002b3a:	48 8d 9f 70 88 00 00 	lea    0x8870(%rdi),%rbx
    40002b41:	45 31 ed             	xor    %r13d,%r13d
    40002b44:	49 89 de             	mov    %rbx,%r14
    40002b47:	66 0f 1f 84 00 00 00 	nopw   0x0(%rax,%rax,1)
    40002b4e:	00 00 
    40002b50:	41 8b 36             	mov    (%r14),%esi
    40002b53:	83 fe 1f             	cmp    $0x1f,%esi
    40002b56:	7f 42                	jg     40002b9a <_ZN9CCounters13DefineCounterER18SCounterDefinition+0x31a>
    40002b58:	4d 63 cd             	movslq %r13d,%r9
    40002b5b:	48 63 ce             	movslq %esi,%rcx
    40002b5e:	83 c6 01             	add    $0x1,%esi
    40002b61:	4d 69 c9 18 02 00 00 	imul   $0x218,%r9,%r9
    40002b68:	48 c1 e1 04          	shl    $0x4,%rcx
    40002b6c:	4c 01 c9             	add    %r9,%rcx
    40002b6f:	48 01 f9             	add    %rdi,%rcx
    40002b72:	c7 81 60 86 00 00 03 	movl   $0x3,0x8660(%rcx)
    40002b79:	00 00 00 
    40002b7c:	44 89 a1 64 86 00 00 	mov    %r12d,0x8664(%rcx)
    40002b83:	c7 81 68 86 00 00 00 	movl   $0x0,0x8668(%rcx)
    40002b8a:	00 00 00 
    40002b8d:	c7 81 6c 86 00 00 00 	movl   $0x0,0x866c(%rcx)
    40002b94:	00 00 00 
    40002b97:	41 89 36             	mov    %esi,(%r14)
    40002b9a:	41 83 c5 01          	add    $0x1,%r13d
    40002b9e:	49 81 c6 18 02 00 00 	add    $0x218,%r14
    40002ba5:	45 39 ea             	cmp    %r13d,%r10d
    40002ba8:	75 a6                	jne    40002b50 <_ZN9CCounters13DefineCounterER18SCounterDefinition+0x2d0>
    40002baa:	45 31 c9             	xor    %r9d,%r9d
    40002bad:	0f 1f 00             	nopl   (%rax)
    40002bb0:	41 8b 33             	mov    (%r11),%esi
    40002bb3:	83 fe 1f             	cmp    $0x1f,%esi
    40002bb6:	7f 35                	jg     40002bed <_ZN9CCounters13DefineCounterER18SCounterDefinition+0x36d>
    40002bb8:	4d 63 e1             	movslq %r9d,%r12
    40002bbb:	48 63 ce             	movslq %esi,%rcx
    40002bbe:	83 c6 01             	add    $0x1,%esi
    40002bc1:	4d 69 e4 18 02 00 00 	imul   $0x218,%r12,%r12
    40002bc8:	48 c1 e1 04          	shl    $0x4,%rcx
    40002bcc:	4c 01 e1             	add    %r12,%rcx
    40002bcf:	48 01 f9             	add    %rdi,%rcx
    40002bd2:	c7 41 60 03 00 00 00 	movl   $0x3,0x60(%rcx)
    40002bd9:	89 69 64             	mov    %ebp,0x64(%rcx)
    40002bdc:	c7 41 68 00 00 00 00 	movl   $0x0,0x68(%rcx)
    40002be3:	c7 41 6c 00 00 00 00 	movl   $0x0,0x6c(%rcx)
    40002bea:	41 89 33             	mov    %esi,(%r11)
    40002bed:	41 83 c1 01          	add    $0x1,%r9d
    40002bf1:	49 81 c3 18 02 00 00 	add    $0x218,%r11
    40002bf8:	45 39 ca             	cmp    %r9d,%r10d
    40002bfb:	75 b3                	jne    40002bb0 <_ZN9CCounters13DefineCounterER18SCounterDefinition+0x330>
    40002bfd:	45 31 c9             	xor    %r9d,%r9d
    40002c00:	8b 33                	mov    (%rbx),%esi
    40002c02:	83 fe 1f             	cmp    $0x1f,%esi
    40002c05:	7f 40                	jg     40002c47 <_ZN9CCounters13DefineCounterER18SCounterDefinition+0x3c7>
    40002c07:	4d 63 d9             	movslq %r9d,%r11
    40002c0a:	48 63 ce             	movslq %esi,%rcx
    40002c0d:	83 c6 01             	add    $0x1,%esi
    40002c10:	4d 69 db 18 02 00 00 	imul   $0x218,%r11,%r11
    40002c17:	48 c1 e1 04          	shl    $0x4,%rcx
    40002c1b:	4c 01 d9             	add    %r11,%rcx
    40002c1e:	48 01 f9             	add    %rdi,%rcx
    40002c21:	c7 81 60 86 00 00 03 	movl   $0x3,0x8660(%rcx)
    40002c28:	00 00 00 
    40002c2b:	89 a9 64 86 00 00    	mov    %ebp,0x8664(%rcx)
    40002c31:	c7 81 68 86 00 00 00 	movl   $0x0,0x8668(%rcx)
    40002c38:	00 00 00 
    40002c3b:	c7 81 6c 86 00 00 00 	movl   $0x0,0x866c(%rcx)
    40002c42:	00 00 00 
    40002c45:	89 33                	mov    %esi,(%rbx)
    40002c47:	41 83 c1 01          	add    $0x1,%r9d
    40002c4b:	48 81 c3 18 02 00 00 	add    $0x218,%rbx
    40002c52:	45 39 ca             	cmp    %r9d,%r10d
    40002c55:	75 a9                	jne    40002c00 <_ZN9CCounters13DefineCounterER18SCounterDefinition+0x380>
    40002c57:	48 bf 88 ff ff ff ff 	movabs $0xffffffffffffff88,%rdi
    40002c5e:	ff ff ff 
    40002c61:	48 89 7c 24 e8       	mov    %rdi,-0x18(%rsp)
    40002c66:	48 8b 7c 24 e8       	mov    -0x18(%rsp),%rdi
    40002c6b:	49 8b 0c 17          	mov    (%r15,%rdx,1),%rcx
    40002c6f:	41 83 c0 01          	add    $0x1,%r8d
    40002c73:	48 8b 14 17          	mov    (%rdi,%rdx,1),%rdx
    40002c77:	48 8b 7c 24 f0       	mov    -0x10(%rsp),%rdi
    40002c7c:	44 89 01             	mov    %r8d,(%rcx)
    40002c7f:	89 04 ba             	mov    %eax,(%rdx,%rdi,4)
    40002c82:	31 c0                	xor    %eax,%eax
    40002c84:	5b                   	pop    %rbx
    40002c85:	5d                   	pop    %rbp
    40002c86:	41 5c                	pop    %r12
    40002c88:	41 5d                	pop    %r13
    40002c8a:	41 5e                	pop    %r14
    40002c8c:	41 5f                	pop    %r15
    40002c8e:	c3                   	ret    
    40002c8f:	90                   	nop
    40002c90:	81 f9 00 02 00 00    	cmp    $0x200,%ecx
    40002c96:	0f 84 8c 05 00 00    	je     40003228 <_ZN9CCounters13DefineCounterER18SCounterDefinition+0x9a8>
    40002c9c:	81 f9 00 10 00 00    	cmp    $0x1000,%ecx
    40002ca2:	0f 85 c2 fd ff ff    	jne    40002a6a <_ZN9CCounters13DefineCounterER18SCounterDefinition+0x1ea>
    40002ca8:	44 8b 6e 1c          	mov    0x1c(%rsi),%r13d
    40002cac:	8d a8 00 00 01 c0    	lea    -0x3fff0000(%rax),%ebp
    40002cb2:	48 b9 98 ff ff ff ff 	movabs $0xffffffffffffff98,%rcx
    40002cb9:	ff ff ff 
    40002cbc:	8d 98 04 00 01 c0    	lea    -0x3ffefffc(%rax),%ebx
    40002cc2:	48 8b 0c 0a          	mov    (%rdx,%rcx,1),%rcx
    40002cc6:	41 c1 e5 08          	shl    $0x8,%r13d
    40002cca:	44 0b 6e 18          	or     0x18(%rsi),%r13d
    40002cce:	48 be 88 ff ff ff ff 	movabs $0xffffffffffffff88,%rsi
    40002cd5:	ff ff ff 
    40002cd8:	44 8b 11             	mov    (%rcx),%r10d
    40002cdb:	48 89 74 24 e8       	mov    %rsi,-0x18(%rsp)
    40002ce0:	41 81 cd 00 00 41 00 	or     $0x410000,%r13d
    40002ce7:	45 85 d2             	test   %r10d,%r10d
    40002cea:	0f 8e 76 ff ff ff    	jle    40002c66 <_ZN9CCounters13DefineCounterER18SCounterDefinition+0x3e6>
    40002cf0:	4c 8d a7 70 02 00 00 	lea    0x270(%rdi),%r12
    40002cf7:	45 31 db             	xor    %r11d,%r11d
    40002cfa:	4d 89 e6             	mov    %r12,%r14
    40002cfd:	0f 1f 00             	nopl   (%rax)
    40002d00:	41 8b 36             	mov    (%r14),%esi
    40002d03:	83 fe 1f             	cmp    $0x1f,%esi
    40002d06:	7f 32                	jg     40002d3a <_ZN9CCounters13DefineCounterER18SCounterDefinition+0x4ba>
    40002d08:	4d 63 cb             	movslq %r11d,%r9
    40002d0b:	48 63 ce             	movslq %esi,%rcx
    40002d0e:	83 c6 01             	add    $0x1,%esi
    40002d11:	4d 69 c9 18 02 00 00 	imul   $0x218,%r9,%r9
    40002d18:	48 c1 e1 04          	shl    $0x4,%rcx
    40002d1c:	4c 01 c9             	add    %r9,%rcx
    40002d1f:	48 01 f9             	add    %rdi,%rcx
    40002d22:	c7 41 60 03 00 00 00 	movl   $0x3,0x60(%rcx)
    40002d29:	89 69 64             	mov    %ebp,0x64(%rcx)
    40002d2c:	44 89 69 68          	mov    %r13d,0x68(%rcx)
    40002d30:	c7 41 6c 00 00 00 00 	movl   $0x0,0x6c(%rcx)
    40002d37:	41 89 36             	mov    %esi,(%r14)
    40002d3a:	41 83 c3 01          	add    $0x1,%r11d
    40002d3e:	49 81 c6 18 02 00 00 	add    $0x218,%r14
    40002d45:	45 39 da             	cmp    %r11d,%r10d
    40002d48:	75 b6                	jne    40002d00 <_ZN9CCounters13DefineCounterER18SCounterDefinition+0x480>
    40002d4a:	4c 8d 9f 70 88 00 00 	lea    0x8870(%rdi),%r11
    40002d51:	45 31 ed             	xor    %r13d,%r13d
    40002d54:	4d 89 de             	mov    %r11,%r14
    40002d57:	66 0f 1f 84 00 00 00 	nopw   0x0(%rax,%rax,1)
    40002d5e:	00 00 
    40002d60:	41 8b 36             	mov    (%r14),%esi
    40002d63:	83 fe 1f             	cmp    $0x1f,%esi
    40002d66:	7f 41                	jg     40002da9 <_ZN9CCounters13DefineCounterER18SCounterDefinition+0x529>
    40002d68:	4d 63 cd             	movslq %r13d,%r9
    40002d6b:	48 63 ce             	movslq %esi,%rcx
    40002d6e:	83 c6 01             	add    $0x1,%esi
    40002d71:	4d 69 c9 18 02 00 00 	imul   $0x218,%r9,%r9
    40002d78:	48 c1 e1 04          	shl    $0x4,%rcx
    40002d7c:	4c 01 c9             	add    %r9,%rcx
    40002d7f:	48 01 f9             	add    %rdi,%rcx
    40002d82:	c7 81 60 86 00 00 03 	movl   $0x3,0x8660(%rcx)
    40002d89:	00 00 00 
    40002d8c:	89 a9 64 86 00 00    	mov    %ebp,0x8664(%rcx)
    40002d92:	c7 81 68 86 00 00 00 	movl   $0x0,0x8668(%rcx)
    40002d99:	00 00 00 
    40002d9c:	c7 81 6c 86 00 00 00 	movl   $0x0,0x866c(%rcx)
    40002da3:	00 00 00 
    40002da6:	41 89 36             	mov    %esi,(%r14)
    40002da9:	41 83 c5 01          	add    $0x1,%r13d
    40002dad:	49 81 c6 18 02 00 00 	add    $0x218,%r14
    40002db4:	45 39 ea             	cmp    %r13d,%r10d
    40002db7:	75 a7                	jne    40002d60 <_ZN9CCounters13DefineCounterER18SCounterDefinition+0x4e0>
    40002db9:	45 31 c9             	xor    %r9d,%r9d
    40002dbc:	0f 1f 40 00          	nopl   0x0(%rax)
    40002dc0:	41 8b 34 24          	mov    (%r12),%esi
    40002dc4:	83 fe 1f             	cmp    $0x1f,%esi
    40002dc7:	7f 36                	jg     40002dff <_ZN9CCounters13DefineCounterER18SCounterDefinition+0x57f>
    40002dc9:	49 63 e9             	movslq %r9d,%rbp
    40002dcc:	48 63 ce             	movslq %esi,%rcx
    40002dcf:	83 c6 01             	add    $0x1,%esi
    40002dd2:	48 69 ed 18 02 00 00 	imul   $0x218,%rbp,%rbp
    40002dd9:	48 c1 e1 04          	shl    $0x4,%rcx
    40002ddd:	48 01 e9             	add    %rbp,%rcx
    40002de0:	48 01 f9             	add    %rdi,%rcx
    40002de3:	c7 41 60 03 00 00 00 	movl   $0x3,0x60(%rcx)
    40002dea:	89 59 64             	mov    %ebx,0x64(%rcx)
    40002ded:	c7 41 68 00 00 00 00 	movl   $0x0,0x68(%rcx)
    40002df4:	c7 41 6c 00 00 00 00 	movl   $0x0,0x6c(%rcx)
    40002dfb:	41 89 34 24          	mov    %esi,(%r12)
    40002dff:	41 83 c1 01          	add    $0x1,%r9d
    40002e03:	49 81 c4 18 02 00 00 	add    $0x218,%r12
    40002e0a:	45 39 ca             	cmp    %r9d,%r10d
    40002e0d:	75 b1                	jne    40002dc0 <_ZN9CCounters13DefineCounterER18SCounterDefinition+0x540>
    40002e0f:	45 31 c9             	xor    %r9d,%r9d
    40002e12:	66 0f 1f 44 00 00    	nopw   0x0(%rax,%rax,1)
    40002e18:	41 8b 33             	mov    (%r11),%esi
    40002e1b:	83 fe 1f             	cmp    $0x1f,%esi
    40002e1e:	7f 41                	jg     40002e61 <_ZN9CCounters13DefineCounterER18SCounterDefinition+0x5e1>
    40002e20:	49 63 e9             	movslq %r9d,%rbp
    40002e23:	48 63 ce             	movslq %esi,%rcx
    40002e26:	83 c6 01             	add    $0x1,%esi
    40002e29:	48 69 ed 18 02 00 00 	imul   $0x218,%rbp,%rbp
    40002e30:	48 c1 e1 04          	shl    $0x4,%rcx
    40002e34:	48 01 e9             	add    %rbp,%rcx
    40002e37:	48 01 f9             	add    %rdi,%rcx
    40002e3a:	c7 81 60 86 00 00 03 	movl   $0x3,0x8660(%rcx)
    40002e41:	00 00 00 
    40002e44:	89 99 64 86 00 00    	mov    %ebx,0x8664(%rcx)
    40002e4a:	c7 81 68 86 00 00 00 	movl   $0x0,0x8668(%rcx)
    40002e51:	00 00 00 
    40002e54:	c7 81 6c 86 00 00 00 	movl   $0x0,0x866c(%rcx)
    40002e5b:	00 00 00 
    40002e5e:	41 89 33             	mov    %esi,(%r11)
    40002e61:	41 83 c1 01          	add    $0x1,%r9d
    40002e65:	49 81 c3 18 02 00 00 	add    $0x218,%r11
    40002e6c:	45 39 ca             	cmp    %r9d,%r10d
    40002e6f:	75 a7                	jne    40002e18 <_ZN9CCounters13DefineCounterER18SCounterDefinition+0x598>
    40002e71:	e9 e1 fd ff ff       	jmp    40002c57 <_ZN9CCounters13DefineCounterER18SCounterDefinition+0x3d7>
    40002e76:	83 f9 10             	cmp    $0x10,%ecx
    40002e79:	0f 85 eb fb ff ff    	jne    40002a6a <_ZN9CCounters13DefineCounterER18SCounterDefinition+0x1ea>
    40002e7f:	49 b9 98 ff ff ff ff 	movabs $0xffffffffffffff98,%r9
    40002e86:	ff ff ff 
    40002e89:	48 bb 88 ff ff ff ff 	movabs $0xffffffffffffff88,%rbx
    40002e90:	ff ff ff 
    40002e93:	4e 8b 0c 0a          	mov    (%rdx,%r9,1),%r9
    40002e97:	48 89 5c 24 e8       	mov    %rbx,-0x18(%rsp)
    40002e9c:	45 8b 11             	mov    (%r9),%r10d
    40002e9f:	44 8b 4e 1c          	mov    0x1c(%rsi),%r9d
    40002ea3:	41 c1 e1 08          	shl    $0x8,%r9d
    40002ea7:	44 0b 4e 18          	or     0x18(%rsi),%r9d
    40002eab:	45 89 ce             	mov    %r9d,%r14d
    40002eae:	44 89 ce             	mov    %r9d,%esi
    40002eb1:	41 81 ce 00 40 41 00 	or     $0x414000,%r14d
    40002eb8:	83 f9 20             	cmp    $0x20,%ecx
    40002ebb:	0f 85 be 04 00 00    	jne    4000337f <_ZN9CCounters13DefineCounterER18SCounterDefinition+0xaff>
    40002ec1:	44 8d a0 c1 00 00 00 	lea    0xc1(%rax),%r12d
    40002ec8:	44 8d a8 86 01 00 00 	lea    0x186(%rax),%r13d
    40002ecf:	45 85 d2             	test   %r10d,%r10d
    40002ed2:	0f 8e 8e fd ff ff    	jle    40002c66 <_ZN9CCounters13DefineCounterER18SCounterDefinition+0x3e6>
    40002ed8:	4c 8d 9f 70 02 00 00 	lea    0x270(%rdi),%r11
    40002edf:	31 db                	xor    %ebx,%ebx
    40002ee1:	4c 89 dd             	mov    %r11,%rbp
    40002ee4:	0f 1f 40 00          	nopl   0x0(%rax)
    40002ee8:	8b 75 00             	mov    0x0(%rbp),%esi
    40002eeb:	83 fe 1f             	cmp    $0x1f,%esi
    40002eee:	7f 33                	jg     40002f23 <_ZN9CCounters13DefineCounterER18SCounterDefinition+0x6a3>
    40002ef0:	4c 63 cb             	movslq %ebx,%r9
    40002ef3:	48 63 ce             	movslq %esi,%rcx
    40002ef6:	83 c6 01             	add    $0x1,%esi
    40002ef9:	4d 69 c9 18 02 00 00 	imul   $0x218,%r9,%r9
    40002f00:	48 c1 e1 04          	shl    $0x4,%rcx
    40002f04:	4c 01 c9             	add    %r9,%rcx
    40002f07:	48 01 f9             	add    %rdi,%rcx
    40002f0a:	c7 41 60 03 00 00 00 	movl   $0x3,0x60(%rcx)
    40002f11:	44 89 69 64          	mov    %r13d,0x64(%rcx)
    40002f15:	44 89 71 68          	mov    %r14d,0x68(%rcx)
    40002f19:	c7 41 6c 00 00 00 00 	movl   $0x0,0x6c(%rcx)
    40002f20:	89 75 00             	mov    %esi,0x0(%rbp)
    40002f23:	83 c3 01             	add    $0x1,%ebx
    40002f26:	48 81 c5 18 02 00 00 	add    $0x218,%rbp
    40002f2d:	44 39 d3             	cmp    %r10d,%ebx
    40002f30:	75 b6                	jne    40002ee8 <_ZN9CCounters13DefineCounterER18SCounterDefinition+0x668>
    40002f32:	48 8d 9f 70 88 00 00 	lea    0x8870(%rdi),%rbx
    40002f39:	31 ed                	xor    %ebp,%ebp
    40002f3b:	49 89 de             	mov    %rbx,%r14
    40002f3e:	66 90                	xchg   %ax,%ax
    40002f40:	41 8b 36             	mov    (%r14),%esi
    40002f43:	83 fe 1f             	cmp    $0x1f,%esi
    40002f46:	7f 42                	jg     40002f8a <_ZN9CCounters13DefineCounterER18SCounterDefinition+0x70a>
    40002f48:	4c 63 cd             	movslq %ebp,%r9
    40002f4b:	48 63 ce             	movslq %esi,%rcx
    40002f4e:	83 c6 01             	add    $0x1,%esi
    40002f51:	4d 69 c9 18 02 00 00 	imul   $0x218,%r9,%r9
    40002f58:	48 c1 e1 04          	shl    $0x4,%rcx
    40002f5c:	4c 01 c9             	add    %r9,%rcx
    40002f5f:	48 01 f9             	add    %rdi,%rcx
    40002f62:	c7 81 60 86 00 00 03 	movl   $0x3,0x8660(%rcx)
    40002f69:	00 00 00 
    40002f6c:	44 89 a9 64 86 00 00 	mov    %r13d,0x8664(%rcx)
    40002f73:	c7 81 68 86 00 00 00 	movl   $0x0,0x8668(%rcx)
    40002f7a:	00 00 00 
    40002f7d:	c7 81 6c 86 00 00 00 	movl   $0x0,0x866c(%rcx)
    40002f84:	00 00 00 
    40002f87:	41 89 36             	mov    %esi,(%r14)
    40002f8a:	83 c5 01             	add    $0x1,%ebp
    40002f8d:	49 81 c6 18 02 00 00 	add    $0x218,%r14
    40002f94:	44 39 d5             	cmp    %r10d,%ebp
    40002f97:	75 a7                	jne    40002f40 <_ZN9CCounters13DefineCounterER18SCounterDefinition+0x6c0>
    40002f99:	45 31 c9             	xor    %r9d,%r9d
    40002f9c:	0f 1f 40 00          	nopl   0x0(%rax)
    40002fa0:	41 8b 33             	mov    (%r11),%esi
    40002fa3:	83 fe 1f             	cmp    $0x1f,%esi
    40002fa6:	7f 36                	jg     40002fde <_ZN9CCounters13DefineCounterER18SCounterDefinition+0x75e>
    40002fa8:	49 63 e9             	movslq %r9d,%rbp
    40002fab:	48 63 ce             	movslq %esi,%rcx
    40002fae:	83 c6 01             	add    $0x1,%esi
    40002fb1:	48 69 ed 18 02 00 00 	imul   $0x218,%rbp,%rbp
    40002fb8:	48 c1 e1 04          	shl    $0x4,%rcx
    40002fbc:	48 01 e9             	add    %rbp,%rcx
    40002fbf:	48 01 f9             	add    %rdi,%rcx
    40002fc2:	c7 41 60 03 00 00 00 	movl   $0x3,0x60(%rcx)
    40002fc9:	44 89 61 64          	mov    %r12d,0x64(%rcx)
    40002fcd:	c7 41 68 00 00 00 00 	movl   $0x0,0x68(%rcx)
    40002fd4:	c7 41 6c 00 00 00 00 	movl   $0x0,0x6c(%rcx)
    40002fdb:	41 89 33             	mov    %esi,(%r11)
    40002fde:	41 83 c1 01          	add    $0x1,%r9d
    40002fe2:	49 81 c3 18 02 00 00 	add    $0x218,%r11
    40002fe9:	45 39 d1             	cmp    %r10d,%r9d
    40002fec:	75 b2                	jne    40002fa0 <_ZN9CCounters13DefineCounterER18SCounterDefinition+0x720>
    40002fee:	45 31 c9             	xor    %r9d,%r9d
    40002ff1:	0f 1f 80 00 00 00 00 	nopl   0x0(%rax)
    40002ff8:	8b 33                	mov    (%rbx),%esi
    40002ffa:	83 fe 1f             	cmp    $0x1f,%esi
    40002ffd:	7f 41                	jg     40003040 <_ZN9CCounters13DefineCounterER18SCounterDefinition+0x7c0>
    40002fff:	4d 63 d9             	movslq %r9d,%r11
    40003002:	48 63 ce             	movslq %esi,%rcx
    40003005:	83 c6 01             	add    $0x1,%esi
    40003008:	4d 69 db 18 02 00 00 	imul   $0x218,%r11,%r11
    4000300f:	48 c1 e1 04          	shl    $0x4,%rcx
    40003013:	4c 01 d9             	add    %r11,%rcx
    40003016:	48 01 f9             	add    %rdi,%rcx
    40003019:	c7 81 60 86 00 00 03 	movl   $0x3,0x8660(%rcx)
    40003020:	00 00 00 
    40003023:	44 89 a1 64 86 00 00 	mov    %r12d,0x8664(%rcx)
    4000302a:	c7 81 68 86 00 00 00 	movl   $0x0,0x8668(%rcx)
    40003031:	00 00 00 
    40003034:	c7 81 6c 86 00 00 00 	movl   $0x0,0x866c(%rcx)
    4000303b:	00 00 00 
    4000303e:	89 33                	mov    %esi,(%rbx)
    40003040:	41 83 c1 01          	add    $0x1,%r9d
    40003044:	48 81 c3 18 02 00 00 	add    $0x218,%rbx
    4000304b:	45 39 d1             	cmp    %r10d,%r9d
    4000304e:	75 a8                	jne    40002ff8 <_ZN9CCounters13DefineCounterER18SCounterDefinition+0x778>
    40003050:	e9 11 fc ff ff       	jmp    40002c66 <_ZN9CCounters13DefineCounterER18SCounterDefinition+0x3e6>
    40003055:	83 f9 01             	cmp    $0x1,%ecx
    40003058:	0f 85 0c fa ff ff    	jne    40002a6a <_ZN9CCounters13DefineCounterER18SCounterDefinition+0x1ea>
    4000305e:	49 bc c8 ff ff ff ff 	movabs $0xffffffffffffffc8,%r12
    40003065:	ff ff ff 
    40003068:	44 8b 76 1c          	mov    0x1c(%rsi),%r14d
    4000306c:	41 c1 e6 06          	shl    $0x6,%r14d
    40003070:	44 0b 76 18          	or     0x18(%rsi),%r14d
    40003074:	83 f8 01             	cmp    $0x1,%eax
    40003077:	0f 84 8a 04 00 00    	je     40003507 <_ZN9CCounters13DefineCounterER18SCounterDefinition+0xc87>
    4000307d:	48 b9 98 ff ff ff ff 	movabs $0xffffffffffffff98,%rcx
    40003084:	ff ff ff 
    40003087:	45 31 d2             	xor    %r10d,%r10d
    4000308a:	4c 8d 9f 70 02 00 00 	lea    0x270(%rdi),%r11
    40003091:	49 bd 03 00 00 00 11 	movabs $0x1100000003,%r13
    40003098:	00 00 00 
    4000309b:	48 8b 0c 0a          	mov    (%rdx,%rcx,1),%rcx
    4000309f:	4c 89 db             	mov    %r11,%rbx
    400030a2:	44 8b 09             	mov    (%rcx),%r9d
    400030a5:	45 85 c9             	test   %r9d,%r9d
    400030a8:	0f 8e 5c 01 00 00    	jle    4000320a <_ZN9CCounters13DefineCounterER18SCounterDefinition+0x98a>
    400030ae:	66 90                	xchg   %ax,%ax
    400030b0:	8b 33                	mov    (%rbx),%esi
    400030b2:	83 fe 1f             	cmp    $0x1f,%esi
    400030b5:	7f 2b                	jg     400030e2 <_ZN9CCounters13DefineCounterER18SCounterDefinition+0x862>
    400030b7:	49 63 ea             	movslq %r10d,%rbp
    400030ba:	48 63 ce             	movslq %esi,%rcx
    400030bd:	83 c6 01             	add    $0x1,%esi
    400030c0:	48 69 ed 18 02 00 00 	imul   $0x218,%rbp,%rbp
    400030c7:	48 c1 e1 04          	shl    $0x4,%rcx
    400030cb:	48 01 e9             	add    %rbp,%rcx
    400030ce:	48 01 f9             	add    %rdi,%rcx
    400030d1:	4c 89 69 60          	mov    %r13,0x60(%rcx)
    400030d5:	44 89 71 68          	mov    %r14d,0x68(%rcx)
    400030d9:	c7 41 6c 00 00 00 00 	movl   $0x0,0x6c(%rcx)
    400030e0:	89 33                	mov    %esi,(%rbx)
    400030e2:	41 83 c2 01          	add    $0x1,%r10d
    400030e6:	48 81 c3 18 02 00 00 	add    $0x218,%rbx
    400030ed:	45 39 d1             	cmp    %r10d,%r9d
    400030f0:	75 be                	jne    400030b0 <_ZN9CCounters13DefineCounterER18SCounterDefinition+0x830>
    400030f2:	4c 8d 97 70 88 00 00 	lea    0x8870(%rdi),%r10
    400030f9:	31 db                	xor    %ebx,%ebx
    400030fb:	4c 89 d5             	mov    %r10,%rbp
    400030fe:	66 90                	xchg   %ax,%ax
    40003100:	8b 75 00             	mov    0x0(%rbp),%esi
    40003103:	83 fe 1f             	cmp    $0x1f,%esi
    40003106:	7f 42                	jg     4000314a <_ZN9CCounters13DefineCounterER18SCounterDefinition+0x8ca>
    40003108:	4c 63 eb             	movslq %ebx,%r13
    4000310b:	48 63 ce             	movslq %esi,%rcx
    4000310e:	83 c6 01             	add    $0x1,%esi
    40003111:	4d 69 ed 18 02 00 00 	imul   $0x218,%r13,%r13
    40003118:	48 c1 e1 04          	shl    $0x4,%rcx
    4000311c:	4c 01 e9             	add    %r13,%rcx
    4000311f:	49 bd 03 00 00 00 11 	movabs $0x1100000003,%r13
    40003126:	00 00 00 
    40003129:	48 01 f9             	add    %rdi,%rcx
    4000312c:	4c 89 a9 60 86 00 00 	mov    %r13,0x8660(%rcx)
    40003133:	c7 81 68 86 00 00 00 	movl   $0x0,0x8668(%rcx)
    4000313a:	00 00 00 
    4000313d:	c7 81 6c 86 00 00 00 	movl   $0x0,0x866c(%rcx)
    40003144:	00 00 00 
    40003147:	89 75 00             	mov    %esi,0x0(%rbp)
    4000314a:	83 c3 01             	add    $0x1,%ebx
    4000314d:	48 81 c5 18 02 00 00 	add    $0x218,%rbp
    40003154:	41 39 d9             	cmp    %ebx,%r9d
    40003157:	75 a7                	jne    40003100 <_ZN9CCounters13DefineCounterER18SCounterDefinition+0x880>
    40003159:	44 8d 68 12          	lea    0x12(%rax),%r13d
    4000315d:	31 ed                	xor    %ebp,%ebp
    4000315f:	90                   	nop
    40003160:	41 8b 33             	mov    (%r11),%esi
    40003163:	83 fe 1f             	cmp    $0x1f,%esi
    40003166:	7f 36                	jg     4000319e <_ZN9CCounters13DefineCounterER18SCounterDefinition+0x91e>
    40003168:	48 63 dd             	movslq %ebp,%rbx
    4000316b:	48 63 ce             	movslq %esi,%rcx
    4000316e:	83 c6 01             	add    $0x1,%esi
    40003171:	48 69 db 18 02 00 00 	imul   $0x218,%rbx,%rbx
    40003178:	48 c1 e1 04          	shl    $0x4,%rcx
    4000317c:	48 01 d9             	add    %rbx,%rcx
    4000317f:	48 01 f9             	add    %rdi,%rcx
    40003182:	c7 41 60 03 00 00 00 	movl   $0x3,0x60(%rcx)
    40003189:	44 89 69 64          	mov    %r13d,0x64(%rcx)
    4000318d:	c7 41 68 00 00 00 00 	movl   $0x0,0x68(%rcx)
    40003194:	c7 41 6c 00 00 00 00 	movl   $0x0,0x6c(%rcx)
    4000319b:	41 89 33             	mov    %esi,(%r11)
    4000319e:	83 c5 01             	add    $0x1,%ebp
    400031a1:	49 81 c3 18 02 00 00 	add    $0x218,%r11
    400031a8:	41 39 e9             	cmp    %ebp,%r9d
    400031ab:	75 b3                	jne    40003160 <_ZN9CCounters13DefineCounterER18SCounterDefinition+0x8e0>
    400031ad:	45 31 db             	xor    %r11d,%r11d
    400031b0:	41 8b 32             	mov    (%r10),%esi
    400031b3:	83 fe 1f             	cmp    $0x1f,%esi
    400031b6:	7f 42                	jg     400031fa <_ZN9CCounters13DefineCounterER18SCounterDefinition+0x97a>
    400031b8:	49 63 db             	movslq %r11d,%rbx
    400031bb:	48 63 ce             	movslq %esi,%rcx
    400031be:	83 c6 01             	add    $0x1,%esi
    400031c1:	48 69 db 18 02 00 00 	imul   $0x218,%rbx,%rbx
    400031c8:	48 c1 e1 04          	shl    $0x4,%rcx
    400031cc:	48 01 d9             	add    %rbx,%rcx
    400031cf:	48 01 f9             	add    %rdi,%rcx
    400031d2:	c7 81 60 86 00 00 03 	movl   $0x3,0x8660(%rcx)
    400031d9:	00 00 00 
    400031dc:	44 89 a9 64 86 00 00 	mov    %r13d,0x8664(%rcx)
    400031e3:	c7 81 68 86 00 00 00 	movl   $0x0,0x8668(%rcx)
    400031ea:	00 00 00 
    400031ed:	c7 81 6c 86 00 00 00 	movl   $0x0,0x866c(%rcx)
    400031f4:	00 00 00 
    400031f7:	41 89 32             	mov    %esi,(%r10)
    400031fa:	41 83 c3 01          	add    $0x1,%r11d
    400031fe:	49 81 c2 18 02 00 00 	add    $0x218,%r10
    40003205:	45 39 d9             	cmp    %r11d,%r9d
    40003208:	75 a6                	jne    400031b0 <_ZN9CCounters13DefineCounterER18SCounterDefinition+0x930>
    4000320a:	48 bf 88 ff ff ff ff 	movabs $0xffffffffffffff88,%rdi
    40003211:	ff ff ff 
    40003214:	49 8b 0c 14          	mov    (%r12,%rdx,1),%rcx
    40003218:	48 89 7c 24 e8       	mov    %rdi,-0x18(%rsp)
    4000321d:	44 89 31             	mov    %r14d,(%rcx)
    40003220:	e9 41 fa ff ff       	jmp    40002c66 <_ZN9CCounters13DefineCounterER18SCounterDefinition+0x3e6>
    40003225:	0f 1f 00             	nopl   (%rax)
    40003228:	48 bb 88 ff ff ff ff 	movabs $0xffffffffffffff88,%rbx
    4000322f:	ff ff ff 
    40003232:	48 89 5c 24 e8       	mov    %rbx,-0x18(%rsp)
    40003237:	a9 00 00 00 40       	test   $0x40000000,%eax
    4000323c:	0f 85 92 01 00 00    	jne    400033d4 <_ZN9CCounters13DefineCounterER18SCounterDefinition+0xb54>
    40003242:	48 b9 50 61 81 00 00 	movabs $0x816150,%rcx
    40003249:	00 00 00 
    4000324c:	44 8b 2c 0a          	mov    (%rdx,%rcx,1),%r13d
    40003250:	41 8d 5d 01          	lea    0x1(%r13),%ebx
    40003254:	89 1c 0a             	mov    %ebx,(%rdx,%rcx,1)
    40003257:	48 b9 98 ff ff ff ff 	movabs $0xffffffffffffff98,%rcx
    4000325e:	ff ff ff 
    40003261:	48 8b 0c 0a          	mov    (%rdx,%rcx,1),%rcx
    40003265:	44 8b 11             	mov    (%rcx),%r10d
    40003268:	45 85 ed             	test   %r13d,%r13d
    4000326b:	0f 85 03 01 00 00    	jne    40003374 <_ZN9CCounters13DefineCounterER18SCounterDefinition+0xaf4>
    40003271:	8b 8f 68 0c 01 00    	mov    0x10c68(%rdi),%ecx
    40003277:	41 b9 01 00 00 00    	mov    $0x1,%r9d
    4000327d:	45 89 ce             	mov    %r9d,%r14d
    40003280:	41 d3 e6             	shl    %cl,%r14d
    40003283:	8b 8f 64 0c 01 00    	mov    0x10c64(%rdi),%ecx
    40003289:	45 8d 5e ff          	lea    -0x1(%r14),%r11d
    4000328d:	41 d3 e1             	shl    %cl,%r9d
    40003290:	41 8d 49 ff          	lea    -0x1(%r9),%ecx
    40003294:	45 85 d2             	test   %r10d,%r10d
    40003297:	0f 8e d7 00 00 00    	jle    40003374 <_ZN9CCounters13DefineCounterER18SCounterDefinition+0xaf4>
    4000329d:	89 44 24 fc          	mov    %eax,-0x4(%rsp)
    400032a1:	45 89 d9             	mov    %r11d,%r9d
    400032a4:	4c 8d a7 70 02 00 00 	lea    0x270(%rdi),%r12
    400032ab:	31 ed                	xor    %ebp,%ebp
    400032ad:	44 89 44 24 f8       	mov    %r8d,-0x8(%rsp)
    400032b2:	41 89 cb             	mov    %ecx,%r11d
    400032b5:	49 be 03 00 00 00 8f 	movabs $0x38f00000003,%r14
    400032bc:	03 00 00 
    400032bf:	90                   	nop
    400032c0:	41 8b 0c 24          	mov    (%r12),%ecx
    400032c4:	83 f9 1f             	cmp    $0x1f,%ecx
    400032c7:	7f 2a                	jg     400032f3 <_ZN9CCounters13DefineCounterER18SCounterDefinition+0xa73>
    400032c9:	4c 63 c5             	movslq %ebp,%r8
    400032cc:	48 63 c1             	movslq %ecx,%rax
    400032cf:	83 c1 01             	add    $0x1,%ecx
    400032d2:	4d 69 c0 18 02 00 00 	imul   $0x218,%r8,%r8
    400032d9:	48 c1 e0 04          	shl    $0x4,%rax
    400032dd:	4c 01 c0             	add    %r8,%rax
    400032e0:	48 01 f8             	add    %rdi,%rax
    400032e3:	4c 89 70 60          	mov    %r14,0x60(%rax)
    400032e7:	44 89 58 68          	mov    %r11d,0x68(%rax)
    400032eb:	44 89 48 6c          	mov    %r9d,0x6c(%rax)
    400032ef:	41 89 0c 24          	mov    %ecx,(%r12)
    400032f3:	83 c5 01             	add    $0x1,%ebp
    400032f6:	49 81 c4 18 02 00 00 	add    $0x218,%r12
    400032fd:	44 39 d5             	cmp    %r10d,%ebp
    40003300:	75 be                	jne    400032c0 <_ZN9CCounters13DefineCounterER18SCounterDefinition+0xa40>
    40003302:	44 8b 44 24 f8       	mov    -0x8(%rsp),%r8d
    40003307:	8b 44 24 fc          	mov    -0x4(%rsp),%eax
    4000330b:	4c 8d 9f 70 88 00 00 	lea    0x8870(%rdi),%r11
    40003312:	48 bd 03 00 00 00 8f 	movabs $0x38f00000003,%rbp
    40003319:	03 00 00 
    4000331c:	eb 05                	jmp    40003323 <_ZN9CCounters13DefineCounterER18SCounterDefinition+0xaa3>
    4000331e:	66 90                	xchg   %ax,%ax
    40003320:	83 c3 01             	add    $0x1,%ebx
    40003323:	45 8b 0b             	mov    (%r11),%r9d
    40003326:	41 83 f9 1f          	cmp    $0x1f,%r9d
    4000332a:	7f 39                	jg     40003365 <_ZN9CCounters13DefineCounterER18SCounterDefinition+0xae5>
    4000332c:	4d 63 e5             	movslq %r13d,%r12
    4000332f:	49 63 c9             	movslq %r9d,%rcx
    40003332:	41 83 c1 01          	add    $0x1,%r9d
    40003336:	4d 69 e4 18 02 00 00 	imul   $0x218,%r12,%r12
    4000333d:	48 c1 e1 04          	shl    $0x4,%rcx
    40003341:	4c 01 e1             	add    %r12,%rcx
    40003344:	48 01 f9             	add    %rdi,%rcx
    40003347:	48 89 a9 60 86 00 00 	mov    %rbp,0x8660(%rcx)
    4000334e:	c7 81 68 86 00 00 00 	movl   $0x0,0x8668(%rcx)
    40003355:	00 00 00 
    40003358:	c7 81 6c 86 00 00 00 	movl   $0x0,0x866c(%rcx)
    4000335f:	00 00 00 
    40003362:	45 89 0b             	mov    %r9d,(%r11)
    40003365:	41 89 dd             	mov    %ebx,%r13d
    40003368:	49 81 c3 18 02 00 00 	add    $0x218,%r11
    4000336f:	44 39 d3             	cmp    %r10d,%ebx
    40003372:	75 ac                	jne    40003320 <_ZN9CCounters13DefineCounterER18SCounterDefinition+0xaa0>
    40003374:	8b 4e 1c             	mov    0x1c(%rsi),%ecx
    40003377:	c1 e1 08             	shl    $0x8,%ecx
    4000337a:	0b 4e 18             	or     0x18(%rsi),%ecx
    4000337d:	89 ce                	mov    %ecx,%esi
    4000337f:	81 ce 00 00 41 00    	or     $0x410000,%esi
    40003385:	41 89 f6             	mov    %esi,%r14d
    40003388:	e9 34 fb ff ff       	jmp    40002ec1 <_ZN9CCounters13DefineCounterER18SCounterDefinition+0x641>
    4000338d:	0f 1f 00             	nopl   (%rax)
    40003390:	89 46 10             	mov    %eax,0x10(%rsi)
    40003393:	41 89 c6             	mov    %eax,%r14d
    40003396:	e9 76 f5 ff ff       	jmp    40002911 <_ZN9CCounters13DefineCounterER18SCounterDefinition+0x91>
    4000339b:	0f 1f 44 00 00       	nopl   0x0(%rax,%rax,1)
    400033a0:	49 63 d8             	movslq %r8d,%rbx
    400033a3:	48 8d 4e 20          	lea    0x20(%rsi),%rcx
    400033a7:	48 89 4c df 10       	mov    %rcx,0x10(%rdi,%rbx,8)
    400033ac:	8b 4f 58             	mov    0x58(%rdi),%ecx
    400033af:	48 89 5c 24 f0       	mov    %rbx,-0x10(%rsp)
    400033b4:	81 f9 00 01 00 00    	cmp    $0x100,%ecx
    400033ba:	0f 85 78 f6 ff ff    	jne    40002a38 <_ZN9CCounters13DefineCounterER18SCounterDefinition+0x1b8>
    400033c0:	e9 72 fe ff ff       	jmp    40003237 <_ZN9CCounters13DefineCounterER18SCounterDefinition+0x9b7>
    400033c5:	48 bb 88 ff ff ff ff 	movabs $0xffffffffffffff88,%rbx
    400033cc:	ff ff ff 
    400033cf:	48 89 5c 24 e8       	mov    %rbx,-0x18(%rsp)
    400033d4:	48 b9 4c 61 81 00 00 	movabs $0x81614c,%rcx
    400033db:	00 00 00 
    400033de:	48 63 34 0a          	movslq (%rdx,%rcx,1),%rsi
    400033e2:	44 8d 5e 01          	lea    0x1(%rsi),%r11d
    400033e6:	44 89 1c 0a          	mov    %r11d,(%rdx,%rcx,1)
    400033ea:	85 f6                	test   %esi,%esi
    400033ec:	0f 85 74 f8 ff ff    	jne    40002c66 <_ZN9CCounters13DefineCounterER18SCounterDefinition+0x3e6>
    400033f2:	44 8b 97 68 0c 01 00 	mov    0x10c68(%rdi),%r10d
    400033f9:	45 85 d2             	test   %r10d,%r10d
    400033fc:	0f 8e 65 05 00 00    	jle    40003967 <_ZN9CCounters13DefineCounterER18SCounterDefinition+0x10e7>
    40003402:	41 c1 e2 02          	shl    $0x2,%r10d
    40003406:	45 31 ed             	xor    %r13d,%r13d
    40003409:	31 c9                	xor    %ecx,%ecx
    4000340b:	bb 02 00 00 00       	mov    $0x2,%ebx
    40003410:	41 89 d9             	mov    %ebx,%r9d
    40003413:	41 d3 e1             	shl    %cl,%r9d
    40003416:	83 c1 04             	add    $0x4,%ecx
    40003419:	45 09 cd             	or     %r9d,%r13d
    4000341c:	41 39 ca             	cmp    %ecx,%r10d
    4000341f:	75 ef                	jne    40003410 <_ZN9CCounters13DefineCounterER18SCounterDefinition+0xb90>
    40003421:	48 b9 98 ff ff ff ff 	movabs $0xffffffffffffff98,%rcx
    40003428:	ff ff ff 
    4000342b:	48 8b 0c 0a          	mov    (%rdx,%rcx,1),%rcx
    4000342f:	44 8b 21             	mov    (%rcx),%r12d
    40003432:	45 85 e4             	test   %r12d,%r12d
    40003435:	0f 8e 2b f8 ff ff    	jle    40002c66 <_ZN9CCounters13DefineCounterER18SCounterDefinition+0x3e6>
    4000343b:	48 8d af 70 02 00 00 	lea    0x270(%rdi),%rbp
    40003442:	31 db                	xor    %ebx,%ebx
    40003444:	49 be 03 00 00 00 8d 	movabs $0x38d00000003,%r14
    4000344b:	03 00 00 
    4000344e:	66 90                	xchg   %ax,%ax
    40003450:	44 8b 4d 00          	mov    0x0(%rbp),%r9d
    40003454:	41 83 f9 1f          	cmp    $0x1f,%r9d
    40003458:	7f 2e                	jg     40003488 <_ZN9CCounters13DefineCounterER18SCounterDefinition+0xc08>
    4000345a:	4c 63 d3             	movslq %ebx,%r10
    4000345d:	49 63 c9             	movslq %r9d,%rcx
    40003460:	41 83 c1 01          	add    $0x1,%r9d
    40003464:	4d 69 d2 18 02 00 00 	imul   $0x218,%r10,%r10
    4000346b:	48 c1 e1 04          	shl    $0x4,%rcx
    4000346f:	4c 01 d1             	add    %r10,%rcx
    40003472:	48 01 f9             	add    %rdi,%rcx
    40003475:	4c 89 71 60          	mov    %r14,0x60(%rcx)
    40003479:	44 89 69 68          	mov    %r13d,0x68(%rcx)
    4000347d:	c7 41 6c 00 00 00 00 	movl   $0x0,0x6c(%rcx)
    40003484:	44 89 4d 00          	mov    %r9d,0x0(%rbp)
    40003488:	83 c3 01             	add    $0x1,%ebx
    4000348b:	48 81 c5 18 02 00 00 	add    $0x218,%rbp
    40003492:	41 39 dc             	cmp    %ebx,%r12d
    40003495:	75 b9                	jne    40003450 <_ZN9CCounters13DefineCounterER18SCounterDefinition+0xbd0>
    40003497:	4c 8d 97 70 88 00 00 	lea    0x8870(%rdi),%r10
    4000349e:	48 bb 03 00 00 00 8d 	movabs $0x38d00000003,%rbx
    400034a5:	03 00 00 
    400034a8:	eb 0a                	jmp    400034b4 <_ZN9CCounters13DefineCounterER18SCounterDefinition+0xc34>
    400034aa:	66 0f 1f 44 00 00    	nopw   0x0(%rax,%rax,1)
    400034b0:	41 83 c3 01          	add    $0x1,%r11d
    400034b4:	45 8b 0a             	mov    (%r10),%r9d
    400034b7:	41 83 f9 1f          	cmp    $0x1f,%r9d
    400034bb:	7f 36                	jg     400034f3 <_ZN9CCounters13DefineCounterER18SCounterDefinition+0xc73>
    400034bd:	48 69 f6 18 02 00 00 	imul   $0x218,%rsi,%rsi
    400034c4:	49 63 c9             	movslq %r9d,%rcx
    400034c7:	41 83 c1 01          	add    $0x1,%r9d
    400034cb:	48 c1 e1 04          	shl    $0x4,%rcx
    400034cf:	48 01 f1             	add    %rsi,%rcx
    400034d2:	48 01 f9             	add    %rdi,%rcx
    400034d5:	48 89 99 60 86 00 00 	mov    %rbx,0x8660(%rcx)
    400034dc:	c7 81 68 86 00 00 00 	movl   $0x0,0x8668(%rcx)
    400034e3:	00 00 00 
    400034e6:	c7 81 6c 86 00 00 00 	movl   $0x0,0x866c(%rcx)
    400034ed:	00 00 00 
    400034f0:	45 89 0a             	mov    %r9d,(%r10)
    400034f3:	49 63 f3             	movslq %r11d,%rsi
    400034f6:	49 81 c2 18 02 00 00 	add    $0x218,%r10
    400034fd:	45 39 dc             	cmp    %r11d,%r12d
    40003500:	75 ae                	jne    400034b0 <_ZN9CCounters13DefineCounterER18SCounterDefinition+0xc30>
    40003502:	e9 5f f7 ff ff       	jmp    40002c66 <_ZN9CCounters13DefineCounterER18SCounterDefinition+0x3e6>
    40003507:	49 8b 0c 14          	mov    (%r12,%rdx,1),%rcx
    4000350b:	41 c1 e6 10          	shl    $0x10,%r14d
    4000350f:	44 0b 31             	or     (%rcx),%r14d
    40003512:	e9 66 fb ff ff       	jmp    4000307d <_ZN9CCounters13DefineCounterER18SCounterDefinition+0x7fd>
    40003517:	66 0f 1f 84 00 00 00 	nopw   0x0(%rax,%rax,1)
    4000351e:	00 00 
    40003520:	4c 63 4e 14          	movslq 0x14(%rsi),%r9
    40003524:	83 f8 11             	cmp    $0x11,%eax
    40003527:	0f 87 42 04 00 00    	ja     4000396f <_ZN9CCounters13DefineCounterER18SCounterDefinition+0x10ef>
    4000352d:	8d 48 fd             	lea    -0x3(%rax),%ecx
    40003530:	83 f8 0f             	cmp    $0xf,%eax
    40003533:	0f 46 c8             	cmovbe %eax,%ecx
    40003536:	41 83 f9 07          	cmp    $0x7,%r9d
    4000353a:	0f 87 2f 04 00 00    	ja     4000396f <_ZN9CCounters13DefineCounterER18SCounterDefinition+0x10ef>
    40003540:	41 89 ca             	mov    %ecx,%r10d
    40003543:	41 c1 ea 02          	shr    $0x2,%r10d
    40003547:	4f 8d 14 d1          	lea    (%r9,%r10,8),%r10
    4000354b:	49 b9 00 da ff ff ff 	movabs $0xffffffffffffda00,%r9
    40003552:	ff ff ff 
    40003555:	49 01 d1             	add    %rdx,%r9
    40003558:	47 8b 2c 91          	mov    (%r9,%r10,4),%r13d
    4000355c:	45 85 ed             	test   %r13d,%r13d
    4000355f:	78 0a                	js     4000356b <_ZN9CCounters13DefineCounterER18SCounterDefinition+0xceb>
    40003561:	83 e1 02             	and    $0x2,%ecx
    40003564:	83 f9 01             	cmp    $0x1,%ecx
    40003567:	41 83 dd ff          	sbb    $0xffffffff,%r13d
    4000356b:	44 8b 76 1c          	mov    0x1c(%rsi),%r14d
    4000356f:	8b 4e 18             	mov    0x18(%rsi),%ecx
    40003572:	41 c1 e6 09          	shl    $0x9,%r14d
    40003576:	c1 e1 19             	shl    $0x19,%ecx
    40003579:	41 09 ce             	or     %ecx,%r14d
    4000357c:	48 b9 98 ff ff ff ff 	movabs $0xffffffffffffff98,%rcx
    40003583:	ff ff ff 
    40003586:	48 8b 0c 0a          	mov    (%rdx,%rcx,1),%rcx
    4000358a:	41 83 ce 3c          	or     $0x3c,%r14d
    4000358e:	44 8b 09             	mov    (%rcx),%r9d
    40003591:	45 85 c9             	test   %r9d,%r9d
    40003594:	0f 8e b1 03 00 00    	jle    4000394b <_ZN9CCounters13DefineCounterER18SCounterDefinition+0x10cb>
    4000359a:	4c 8d 9f 70 02 00 00 	lea    0x270(%rdi),%r11
    400035a1:	31 ed                	xor    %ebp,%ebp
    400035a3:	4d 89 dc             	mov    %r11,%r12
    400035a6:	66 2e 0f 1f 84 00 00 	cs nopw 0x0(%rax,%rax,1)
    400035ad:	00 00 00 
    400035b0:	45 8b 14 24          	mov    (%r12),%r10d
    400035b4:	41 83 fa 1f          	cmp    $0x1f,%r10d
    400035b8:	7f 35                	jg     400035ef <_ZN9CCounters13DefineCounterER18SCounterDefinition+0xd6f>
    400035ba:	48 63 dd             	movslq %ebp,%rbx
    400035bd:	49 63 ca             	movslq %r10d,%rcx
    400035c0:	41 83 c2 01          	add    $0x1,%r10d
    400035c4:	48 69 db 18 02 00 00 	imul   $0x218,%rbx,%rbx
    400035cb:	48 c1 e1 04          	shl    $0x4,%rcx
    400035cf:	48 01 d9             	add    %rbx,%rcx
    400035d2:	48 01 f9             	add    %rdi,%rcx
    400035d5:	c7 41 60 03 00 00 00 	movl   $0x3,0x60(%rcx)
    400035dc:	44 89 69 64          	mov    %r13d,0x64(%rcx)
    400035e0:	44 89 71 68          	mov    %r14d,0x68(%rcx)
    400035e4:	c7 41 6c 00 00 00 00 	movl   $0x0,0x6c(%rcx)
    400035eb:	45 89 14 24          	mov    %r10d,(%r12)
    400035ef:	83 c5 01             	add    $0x1,%ebp
    400035f2:	49 81 c4 18 02 00 00 	add    $0x218,%r12
    400035f9:	41 39 e9             	cmp    %ebp,%r9d
    400035fc:	75 b2                	jne    400035b0 <_ZN9CCounters13DefineCounterER18SCounterDefinition+0xd30>
    400035fe:	48 8d 9f 70 88 00 00 	lea    0x8870(%rdi),%rbx
    40003605:	45 31 e4             	xor    %r12d,%r12d
    40003608:	49 89 de             	mov    %rbx,%r14
    4000360b:	0f 1f 44 00 00       	nopl   0x0(%rax,%rax,1)
    40003610:	45 8b 16             	mov    (%r14),%r10d
    40003613:	41 83 fa 1f          	cmp    $0x1f,%r10d
    40003617:	7f 43                	jg     4000365c <_ZN9CCounters13DefineCounterER18SCounterDefinition+0xddc>
    40003619:	49 63 ec             	movslq %r12d,%rbp
    4000361c:	49 63 ca             	movslq %r10d,%rcx
    4000361f:	41 83 c2 01          	add    $0x1,%r10d
    40003623:	48 69 ed 18 02 00 00 	imul   $0x218,%rbp,%rbp
    4000362a:	48 c1 e1 04          	shl    $0x4,%rcx
    4000362e:	48 01 e9             	add    %rbp,%rcx
    40003631:	48 01 f9             	add    %rdi,%rcx
    40003634:	c7 81 60 86 00 00 03 	movl   $0x3,0x8660(%rcx)
    4000363b:	00 00 00 
    4000363e:	44 89 a9 64 86 00 00 	mov    %r13d,0x8664(%rcx)
    40003645:	c7 81 68 86 00 00 00 	movl   $0x0,0x8668(%rcx)
    4000364c:	00 00 00 
    4000364f:	c7 81 6c 86 00 00 00 	movl   $0x0,0x866c(%rcx)
    40003656:	00 00 00 
    40003659:	45 89 16             	mov    %r10d,(%r14)
    4000365c:	41 83 c4 01          	add    $0x1,%r12d
    40003660:	49 81 c6 18 02 00 00 	add    $0x218,%r14
    40003667:	45 39 e1             	cmp    %r12d,%r9d
    4000366a:	75 a4                	jne    40003610 <_ZN9CCounters13DefineCounterER18SCounterDefinition+0xd90>
    4000366c:	48 b9 c8 ff ff ff ff 	movabs $0xffffffffffffffc8,%rcx
    40003673:	ff ff ff 
    40003676:	4c 8b 74 24 f0       	mov    -0x10(%rsp),%r14
    4000367b:	4d 89 dc             	mov    %r11,%r12
    4000367e:	31 ed                	xor    %ebp,%ebp
    40003680:	48 8b 0c 0a          	mov    (%rdx,%rcx,1),%rcx
    40003684:	46 89 2c b1          	mov    %r13d,(%rcx,%r14,4)
    40003688:	44 8b 76 14          	mov    0x14(%rsi),%r14d
    4000368c:	44 8d a8 60 03 00 00 	lea    0x360(%rax),%r13d
    40003693:	41 c1 e6 0d          	shl    $0xd,%r14d
    40003697:	41 81 ce 00 10 03 00 	or     $0x31000,%r14d
    4000369e:	66 90                	xchg   %ax,%ax
    400036a0:	41 8b 34 24          	mov    (%r12),%esi
    400036a4:	83 fe 1f             	cmp    $0x1f,%esi
    400036a7:	7f 34                	jg     400036dd <_ZN9CCounters13DefineCounterER18SCounterDefinition+0xe5d>
    400036a9:	4c 63 d5             	movslq %ebp,%r10
    400036ac:	48 63 ce             	movslq %esi,%rcx
    400036af:	83 c6 01             	add    $0x1,%esi
    400036b2:	4d 69 d2 18 02 00 00 	imul   $0x218,%r10,%r10
    400036b9:	48 c1 e1 04          	shl    $0x4,%rcx
    400036bd:	4c 01 d1             	add    %r10,%rcx
    400036c0:	48 01 f9             	add    %rdi,%rcx
    400036c3:	c7 41 60 03 00 00 00 	movl   $0x3,0x60(%rcx)
    400036ca:	44 89 69 64          	mov    %r13d,0x64(%rcx)
    400036ce:	44 89 71 68          	mov    %r14d,0x68(%rcx)
    400036d2:	c7 41 6c 00 00 00 00 	movl   $0x0,0x6c(%rcx)
    400036d9:	41 89 34 24          	mov    %esi,(%r12)
    400036dd:	83 c5 01             	add    $0x1,%ebp
    400036e0:	49 81 c4 18 02 00 00 	add    $0x218,%r12
    400036e7:	41 39 e9             	cmp    %ebp,%r9d
    400036ea:	75 b4                	jne    400036a0 <_ZN9CCounters13DefineCounterER18SCounterDefinition+0xe20>
    400036ec:	48 89 dd             	mov    %rbx,%rbp
    400036ef:	45 31 d2             	xor    %r10d,%r10d
    400036f2:	66 0f 1f 44 00 00    	nopw   0x0(%rax,%rax,1)
    400036f8:	8b 75 00             	mov    0x0(%rbp),%esi
    400036fb:	83 fe 1f             	cmp    $0x1f,%esi
    400036fe:	7f 42                	jg     40003742 <_ZN9CCounters13DefineCounterER18SCounterDefinition+0xec2>
    40003700:	4d 63 e2             	movslq %r10d,%r12
    40003703:	48 63 ce             	movslq %esi,%rcx
    40003706:	83 c6 01             	add    $0x1,%esi
    40003709:	4d 69 e4 18 02 00 00 	imul   $0x218,%r12,%r12
    40003710:	48 c1 e1 04          	shl    $0x4,%rcx
    40003714:	4c 01 e1             	add    %r12,%rcx
    40003717:	48 01 f9             	add    %rdi,%rcx
    4000371a:	c7 81 60 86 00 00 03 	movl   $0x3,0x8660(%rcx)
    40003721:	00 00 00 
    40003724:	44 89 a9 64 86 00 00 	mov    %r13d,0x8664(%rcx)
    4000372b:	c7 81 68 86 00 00 00 	movl   $0x0,0x8668(%rcx)
    40003732:	00 00 00 
    40003735:	c7 81 6c 86 00 00 00 	movl   $0x0,0x866c(%rcx)
    4000373c:	00 00 00 
    4000373f:	89 75 00             	mov    %esi,0x0(%rbp)
    40003742:	41 83 c2 01          	add    $0x1,%r10d
    40003746:	48 81 c5 18 02 00 00 	add    $0x218,%rbp
    4000374d:	45 39 d1             	cmp    %r10d,%r9d
    40003750:	75 a6                	jne    400036f8 <_ZN9CCounters13DefineCounterER18SCounterDefinition+0xe78>
    40003752:	8d b0 00 03 00 00    	lea    0x300(%rax),%esi
    40003758:	31 ed                	xor    %ebp,%ebp
    4000375a:	66 0f 1f 44 00 00    	nopw   0x0(%rax,%rax,1)
    40003760:	45 8b 13             	mov    (%r11),%r10d
    40003763:	41 83 fa 1f          	cmp    $0x1f,%r10d
    40003767:	7f 36                	jg     4000379f <_ZN9CCounters13DefineCounterER18SCounterDefinition+0xf1f>
    40003769:	4c 63 e5             	movslq %ebp,%r12
    4000376c:	49 63 ca             	movslq %r10d,%rcx
    4000376f:	41 83 c2 01          	add    $0x1,%r10d
    40003773:	4d 69 e4 18 02 00 00 	imul   $0x218,%r12,%r12
    4000377a:	48 c1 e1 04          	shl    $0x4,%rcx
    4000377e:	4c 01 e1             	add    %r12,%rcx
    40003781:	48 01 f9             	add    %rdi,%rcx
    40003784:	c7 41 60 03 00 00 00 	movl   $0x3,0x60(%rcx)
    4000378b:	89 71 64             	mov    %esi,0x64(%rcx)
    4000378e:	c7 41 68 00 00 00 00 	movl   $0x0,0x68(%rcx)
    40003795:	c7 41 6c 00 00 00 00 	movl   $0x0,0x6c(%rcx)
    4000379c:	45 89 13             	mov    %r10d,(%r11)
    4000379f:	83 c5 01             	add    $0x1,%ebp
    400037a2:	49 81 c3 18 02 00 00 	add    $0x218,%r11
    400037a9:	41 39 e9             	cmp    %ebp,%r9d
    400037ac:	75 b2                	jne    40003760 <_ZN9CCounters13DefineCounterER18SCounterDefinition+0xee0>
    400037ae:	45 31 db             	xor    %r11d,%r11d
    400037b1:	0f 1f 80 00 00 00 00 	nopl   0x0(%rax)
    400037b8:	44 8b 13             	mov    (%rbx),%r10d
    400037bb:	41 83 fa 1f          	cmp    $0x1f,%r10d
    400037bf:	7f 42                	jg     40003803 <_ZN9CCounters13DefineCounterER18SCounterDefinition+0xf83>
    400037c1:	49 63 eb             	movslq %r11d,%rbp
    400037c4:	49 63 ca             	movslq %r10d,%rcx
    400037c7:	41 83 c2 01          	add    $0x1,%r10d
    400037cb:	48 69 ed 18 02 00 00 	imul   $0x218,%rbp,%rbp
    400037d2:	48 c1 e1 04          	shl    $0x4,%rcx
    400037d6:	48 01 e9             	add    %rbp,%rcx
    400037d9:	48 01 f9             	add    %rdi,%rcx
    400037dc:	c7 81 60 86 00 00 03 	movl   $0x3,0x8660(%rcx)
    400037e3:	00 00 00 
    400037e6:	89 b1 64 86 00 00    	mov    %esi,0x8664(%rcx)
    400037ec:	c7 81 68 86 00 00 00 	movl   $0x0,0x8668(%rcx)
    400037f3:	00 00 00 
    400037f6:	c7 81 6c 86 00 00 00 	movl   $0x0,0x866c(%rcx)
    400037fd:	00 00 00 
    40003800:	44 89 13             	mov    %r10d,(%rbx)
    40003803:	41 83 c3 01          	add    $0x1,%r11d
    40003807:	48 81 c3 18 02 00 00 	add    $0x218,%rbx
    4000380e:	45 39 d9             	cmp    %r11d,%r9d
    40003811:	75 a5                	jne    400037b8 <_ZN9CCounters13DefineCounterER18SCounterDefinition+0xf38>
    40003813:	48 bf 88 ff ff ff ff 	movabs $0xffffffffffffff88,%rdi
    4000381a:	ff ff ff 
    4000381d:	0d 00 00 00 80       	or     $0x80000000,%eax
    40003822:	48 89 7c 24 e8       	mov    %rdi,-0x18(%rsp)
    40003827:	e9 3a f4 ff ff       	jmp    40002c66 <_ZN9CCounters13DefineCounterER18SCounterDefinition+0x3e6>
    4000382c:	0f 1f 40 00          	nopl   0x0(%rax)
    40003830:	48 b9 98 ff ff ff ff 	movabs $0xffffffffffffff98,%rcx
    40003837:	ff ff ff 
    4000383a:	8b 5e 1c             	mov    0x1c(%rsi),%ebx
    4000383d:	44 8d 8c 00 00 02 01 	lea    -0x3ffefe00(%rax,%rax,1),%r9d
    40003844:	c0 
    40003845:	48 8b 0c 0a          	mov    (%rdx,%rcx,1),%rcx
    40003849:	c1 e3 08             	shl    $0x8,%ebx
    4000384c:	0b 5e 18             	or     0x18(%rsi),%ebx
    4000384f:	8b 31                	mov    (%rcx),%esi
    40003851:	81 cb 00 00 41 00    	or     $0x410000,%ebx
    40003857:	48 b9 88 ff ff ff ff 	movabs $0xffffffffffffff88,%rcx
    4000385e:	ff ff ff 
    40003861:	48 89 4c 24 e8       	mov    %rcx,-0x18(%rsp)
    40003866:	85 f6                	test   %esi,%esi
    40003868:	0f 8e f8 f3 ff ff    	jle    40002c66 <_ZN9CCounters13DefineCounterER18SCounterDefinition+0x3e6>
    4000386e:	48 8d af 70 02 00 00 	lea    0x270(%rdi),%rbp
    40003875:	45 31 db             	xor    %r11d,%r11d
    40003878:	0f 1f 84 00 00 00 00 	nopl   0x0(%rax,%rax,1)
    4000387f:	00 
    40003880:	44 8b 55 00          	mov    0x0(%rbp),%r10d
    40003884:	41 83 fa 1f          	cmp    $0x1f,%r10d
    40003888:	7f 34                	jg     400038be <_ZN9CCounters13DefineCounterER18SCounterDefinition+0x103e>
    4000388a:	4d 63 e3             	movslq %r11d,%r12
    4000388d:	49 63 ca             	movslq %r10d,%rcx
    40003890:	41 83 c2 01          	add    $0x1,%r10d
    40003894:	4d 69 e4 18 02 00 00 	imul   $0x218,%r12,%r12
    4000389b:	48 c1 e1 04          	shl    $0x4,%rcx
    4000389f:	4c 01 e1             	add    %r12,%rcx
    400038a2:	48 01 f9             	add    %rdi,%rcx
    400038a5:	c7 41 60 03 00 00 00 	movl   $0x3,0x60(%rcx)
    400038ac:	44 89 49 64          	mov    %r9d,0x64(%rcx)
    400038b0:	89 59 68             	mov    %ebx,0x68(%rcx)
    400038b3:	c7 41 6c 00 00 00 00 	movl   $0x0,0x6c(%rcx)
    400038ba:	44 89 55 00          	mov    %r10d,0x0(%rbp)
    400038be:	41 83 c3 01          	add    $0x1,%r11d
    400038c2:	48 81 c5 18 02 00 00 	add    $0x218,%rbp
    400038c9:	44 39 de             	cmp    %r11d,%esi
    400038cc:	75 b2                	jne    40003880 <_ZN9CCounters13DefineCounterER18SCounterDefinition+0x1000>
    400038ce:	48 8d 9f 70 88 00 00 	lea    0x8870(%rdi),%rbx
    400038d5:	45 31 db             	xor    %r11d,%r11d
    400038d8:	0f 1f 84 00 00 00 00 	nopl   0x0(%rax,%rax,1)
    400038df:	00 
    400038e0:	44 8b 13             	mov    (%rbx),%r10d
    400038e3:	41 83 fa 1f          	cmp    $0x1f,%r10d
    400038e7:	7f 43                	jg     4000392c <_ZN9CCounters13DefineCounterER18SCounterDefinition+0x10ac>
    400038e9:	49 63 eb             	movslq %r11d,%rbp
    400038ec:	49 63 ca             	movslq %r10d,%rcx
    400038ef:	41 83 c2 01          	add    $0x1,%r10d
    400038f3:	48 69 ed 18 02 00 00 	imul   $0x218,%rbp,%rbp
    400038fa:	48 c1 e1 04          	shl    $0x4,%rcx
    400038fe:	48 01 e9             	add    %rbp,%rcx
    40003901:	48 01 f9             	add    %rdi,%rcx
    40003904:	c7 81 60 86 00 00 03 	movl   $0x3,0x8660(%rcx)
    4000390b:	00 00 00 
    4000390e:	44 89 89 64 86 00 00 	mov    %r9d,0x8664(%rcx)
    40003915:	c7 81 68 86 00 00 00 	movl   $0x0,0x8668(%rcx)
    4000391c:	00 00 00 
    4000391f:	c7 81 6c 86 00 00 00 	movl   $0x0,0x866c(%rcx)
    40003926:	00 00 00 
    40003929:	44 89 13             	mov    %r10d,(%rbx)
    4000392c:	41 83 c3 01          	add    $0x1,%r11d
    40003930:	48 81 c3 18 02 00 00 	add    $0x218,%rbx
    40003937:	44 39 de             	cmp    %r11d,%esi
    4000393a:	75 a4                	jne    400038e0 <_ZN9CCounters13DefineCounterER18SCounterDefinition+0x1060>
    4000393c:	e9 16 f3 ff ff       	jmp    40002c57 <_ZN9CCounters13DefineCounterER18SCounterDefinition+0x3d7>
    40003941:	bb ff ff ff ff       	mov    $0xffffffff,%ebx
    40003946:	e9 8d f0 ff ff       	jmp    400029d8 <_ZN9CCounters13DefineCounterER18SCounterDefinition+0x158>
    4000394b:	48 b9 c8 ff ff ff ff 	movabs $0xffffffffffffffc8,%rcx
    40003952:	ff ff ff 
    40003955:	48 8b 7c 24 f0       	mov    -0x10(%rsp),%rdi
    4000395a:	48 8b 0c 0a          	mov    (%rdx,%rcx,1),%rcx
    4000395e:	44 89 2c b9          	mov    %r13d,(%rcx,%rdi,4)
    40003962:	e9 ac fe ff ff       	jmp    40003813 <_ZN9CCounters13DefineCounterER18SCounterDefinition+0xf93>
    40003967:	45 31 ed             	xor    %r13d,%r13d
    4000396a:	e9 b2 fa ff ff       	jmp    40003421 <_ZN9CCounters13DefineCounterER18SCounterDefinition+0xba1>
    4000396f:	41 83 cd ff          	or     $0xffffffff,%r13d
    40003973:	e9 f3 fb ff ff       	jmp    4000356b <_ZN9CCounters13DefineCounterER18SCounterDefinition+0xceb>
    40003978:	0f 1f 84 00 00 00 00 	nopl   0x0(%rax,%rax,1)
    4000397f:	00 

0000000040003980 <_ZN9CCounters13DefineCounterEi.part.0>:
    40003980:	f3 0f 1e fa          	endbr64 
    40003984:	f3 0f 1e fa          	endbr64 
    40003988:	8b 97 60 0c 01 00    	mov    0x10c60(%rdi),%edx
    4000398e:	4c 8d 05 ef ff ff ff 	lea    -0x11(%rip),%r8        # 40003984 <_ZN9CCounters13DefineCounterEi.part.0+0x4>
    40003995:	89 f0                	mov    %esi,%eax
    40003997:	49 bb 7c 46 00 00 00 	movabs $0x467c,%r11
    4000399e:	00 00 00 
    400039a1:	4d 01 d8             	add    %r11,%r8
    400039a4:	85 d2                	test   %edx,%edx
    400039a6:	7e 58                	jle    40003a00 <_ZN9CCounters13DefineCounterEi.part.0+0x80>
    400039a8:	83 ea 01             	sub    $0x1,%edx
    400039ab:	48 83 c2 01          	add    $0x1,%rdx
    400039af:	48 8d 0c 92          	lea    (%rdx,%rdx,4),%rcx
    400039b3:	48 8d 14 4a          	lea    (%rdx,%rcx,2),%rdx
    400039b7:	48 b9 e0 00 00 00 00 	movabs $0xe0,%rcx
    400039be:	00 00 00 
    400039c1:	49 8d 34 08          	lea    (%r8,%rcx,1),%rsi
    400039c5:	48 8d 14 96          	lea    (%rsi,%rdx,4),%rdx
    400039c9:	eb 0e                	jmp    400039d9 <_ZN9CCounters13DefineCounterEi.part.0+0x59>
    400039cb:	0f 1f 44 00 00       	nopl   0x0(%rax,%rax,1)
    400039d0:	48 83 c6 2c          	add    $0x2c,%rsi
    400039d4:	48 39 d6             	cmp    %rdx,%rsi
    400039d7:	74 27                	je     40003a00 <_ZN9CCounters13DefineCounterEi.part.0+0x80>
    400039d9:	39 06                	cmp    %eax,(%rsi)
    400039db:	75 f3                	jne    400039d0 <_ZN9CCounters13DefineCounterEi.part.0+0x50>
    400039dd:	8b 4e 04             	mov    0x4(%rsi),%ecx
    400039e0:	85 4f 58             	test   %ecx,0x58(%rdi)
    400039e3:	74 eb                	je     400039d0 <_ZN9CCounters13DefineCounterEi.part.0+0x50>
    400039e5:	8b 4e 08             	mov    0x8(%rsi),%ecx
    400039e8:	85 4f 54             	test   %ecx,0x54(%rdi)
    400039eb:	74 e3                	je     400039d0 <_ZN9CCounters13DefineCounterEi.part.0+0x50>
    400039ed:	48 b8 80 a8 ff ff ff 	movabs $0xffffffffffffa880,%rax
    400039f4:	ff ff ff 
    400039f7:	4c 01 c0             	add    %r8,%rax
    400039fa:	ff e0                	jmp    *%rax
    400039fc:	0f 1f 40 00          	nopl   0x0(%rax)
    40003a00:	48 b8 30 d1 ff ff ff 	movabs $0xffffffffffffd130,%rax
    40003a07:	ff ff ff 
    40003a0a:	4c 01 c0             	add    %r8,%rax
    40003a0d:	c3                   	ret    
    40003a0e:	66 90                	xchg   %ax,%ax

0000000040003a10 <_ZN9CCounters13DefineCounterEi>:
    40003a10:	f3 0f 1e fa          	endbr64 
    40003a14:	f3 0f 1e fa          	endbr64 
    40003a18:	48 8d 05 f5 ff ff ff 	lea    -0xb(%rip),%rax        # 40003a14 <_ZN9CCounters13DefineCounterEi+0x4>
    40003a1f:	49 bb ec 45 00 00 00 	movabs $0x45ec,%r11
    40003a26:	00 00 00 
    40003a29:	4c 01 d8             	add    %r11,%rax
    40003a2c:	85 f6                	test   %esi,%esi
    40003a2e:	74 10                	je     40003a40 <_ZN9CCounters13DefineCounterEi+0x30>
    40003a30:	48 ba 80 b9 ff ff ff 	movabs $0xffffffffffffb980,%rdx
    40003a37:	ff ff ff 
    40003a3a:	48 01 d0             	add    %rdx,%rax
    40003a3d:	ff e0                	jmp    *%rax
    40003a3f:	90                   	nop
    40003a40:	31 c0                	xor    %eax,%eax
    40003a42:	c3                   	ret    
    40003a43:	90                   	nop
    40003a44:	66 66 2e 0f 1f 84 00 	data16 cs nopw 0x0(%rax,%rax,1)
    40003a4b:	00 00 00 00 
    40003a4f:	90                   	nop

0000000040003a50 <_ZN9CCounters13QueueCountersEv>:
    40003a50:	f3 0f 1e fa          	endbr64 
    40003a54:	f3 0f 1e fa          	endbr64 
    40003a58:	49 bb ac 45 00 00 00 	movabs $0x45ac,%r11
    40003a5f:	00 00 00 
    40003a62:	41 57                	push   %r15
    40003a64:	4c 8d 3d e9 ff ff ff 	lea    -0x17(%rip),%r15        # 40003a54 <_ZN9CCounters13QueueCountersEv+0x4>
    40003a6b:	31 d2                	xor    %edx,%edx
    40003a6d:	48 b8 e0 00 00 00 00 	movabs $0xe0,%rax
    40003a74:	00 00 00 
    40003a77:	41 56                	push   %r14
    40003a79:	4d 01 df             	add    %r11,%r15
    40003a7c:	41 55                	push   %r13
    40003a7e:	4c 01 f8             	add    %r15,%rax
    40003a81:	41 54                	push   %r12
    40003a83:	49 89 fc             	mov    %rdi,%r12
    40003a86:	55                   	push   %rbp
    40003a87:	53                   	push   %rbx
    40003a88:	48 83 ec 18          	sub    $0x18,%rsp
    40003a8c:	eb 09                	jmp    40003a97 <_ZN9CCounters13QueueCountersEv+0x47>
    40003a8e:	66 90                	xchg   %ax,%ax
    40003a90:	83 c2 01             	add    $0x1,%edx
    40003a93:	48 83 c0 2c          	add    $0x2c,%rax
    40003a97:	8b 48 08             	mov    0x8(%rax),%ecx
    40003a9a:	85 c9                	test   %ecx,%ecx
    40003a9c:	75 f2                	jne    40003a90 <_ZN9CCounters13QueueCountersEv+0x40>
    40003a9e:	8b 28                	mov    (%rax),%ebp
    40003aa0:	85 ed                	test   %ebp,%ebp
    40003aa2:	75 ec                	jne    40003a90 <_ZN9CCounters13QueueCountersEv+0x40>
    40003aa4:	48 b8 40 a5 ff ff ff 	movabs $0xffffffffffffa540,%rax
    40003aab:	ff ff ff 
    40003aae:	41 89 94 24 60 0c 01 	mov    %edx,0x10c60(%r12)
    40003ab5:	00 
    40003ab6:	4c 89 e7             	mov    %r12,%rdi
    40003ab9:	4c 01 f8             	add    %r15,%rax
    40003abc:	ff d0                	call   *%rax
    40003abe:	89 e8                	mov    %ebp,%eax
    40003ac0:	89 e9                	mov    %ebp,%ecx
    40003ac2:	41 c7 44 24 54 00 00 	movl   $0x0,0x54(%r12)
    40003ac9:	00 00 
    40003acb:	0f a2                	cpuid  
    40003acd:	85 c0                	test   %eax,%eax
    40003acf:	74 12                	je     40003ae3 <_ZN9CCounters13QueueCountersEv+0x93>
    40003ad1:	48 b8 00 97 ff ff ff 	movabs $0xffffffffffff9700,%rax
    40003ad8:	ff ff ff 
    40003adb:	4c 89 e7             	mov    %r12,%rdi
    40003ade:	4c 01 f8             	add    %r15,%rax
    40003ae1:	ff d0                	call   *%rax
    40003ae3:	48 b8 40 a6 ff ff ff 	movabs $0xffffffffffffa640,%rax
    40003aea:	ff ff ff 
    40003aed:	4c 89 e7             	mov    %r12,%rdi
    40003af0:	4c 01 f8             	add    %r15,%rax
    40003af3:	ff d0                	call   *%rax
    40003af5:	48 b8 a0 ff ff ff ff 	movabs $0xffffffffffffffa0,%rax
    40003afc:	ff ff ff 
    40003aff:	49 8b 04 07          	mov    (%r15,%rax,1),%rax
    40003b03:	8b 10                	mov    (%rax),%edx
    40003b05:	85 d2                	test   %edx,%edx
    40003b07:	0f 84 a7 00 00 00    	je     40003bb4 <_ZN9CCounters13QueueCountersEv+0x164>
    40003b0d:	48 bb c0 ff ff ff ff 	movabs $0xffffffffffffffc0,%rbx
    40003b14:	ff ff ff 
    40003b17:	4a 8b 04 3b          	mov    (%rbx,%r15,1),%rax
    40003b1b:	8b 00                	mov    (%rax),%eax
    40003b1d:	85 c0                	test   %eax,%eax
    40003b1f:	0f 8e 84 00 00 00    	jle    40003ba9 <_ZN9CCounters13QueueCountersEv+0x159>
    40003b25:	48 b8 b8 ff ff ff ff 	movabs $0xffffffffffffffb8,%rax
    40003b2c:	ff ff ff 
    40003b2f:	45 31 f6             	xor    %r14d,%r14d
    40003b32:	4d 8b 2c 07          	mov    (%r15,%rax,1),%r13
    40003b36:	48 b8 80 b9 ff ff ff 	movabs $0xffffffffffffb980,%rax
    40003b3d:	ff ff ff 
    40003b40:	4c 01 f8             	add    %r15,%rax
    40003b43:	48 89 04 24          	mov    %rax,(%rsp)
    40003b47:	48 b8 ab d2 ff ff ff 	movabs $0xffffffffffffd2ab,%rax
    40003b4e:	ff ff ff 
    40003b51:	4c 01 f8             	add    %r15,%rax
    40003b54:	48 89 44 24 08       	mov    %rax,0x8(%rsp)
    40003b59:	0f 1f 80 00 00 00 00 	nopl   0x0(%rax)
    40003b60:	41 8b 75 00          	mov    0x0(%r13),%esi
    40003b64:	41 83 c6 01          	add    $0x1,%r14d
    40003b68:	85 f6                	test   %esi,%esi
    40003b6a:	74 30                	je     40003b9c <_ZN9CCounters13QueueCountersEv+0x14c>
    40003b6c:	48 8b 04 24          	mov    (%rsp),%rax
    40003b70:	4c 89 e7             	mov    %r12,%rdi
    40003b73:	ff d0                	call   *%rax
    40003b75:	48 89 c1             	mov    %rax,%rcx
    40003b78:	48 85 c0             	test   %rax,%rax
    40003b7b:	74 1f                	je     40003b9c <_ZN9CCounters13QueueCountersEv+0x14c>
    40003b7d:	48 8b 74 24 08       	mov    0x8(%rsp),%rsi
    40003b82:	44 89 f2             	mov    %r14d,%edx
    40003b85:	bf 01 00 00 00       	mov    $0x1,%edi
    40003b8a:	31 c0                	xor    %eax,%eax
    40003b8c:	49 b9 30 90 3f c0 ff 	movabs $0xffffffffc03f9030,%r9
    40003b93:	ff ff ff 
    40003b96:	4d 01 f9             	add    %r15,%r9
    40003b99:	41 ff d1             	call   *%r9
    40003b9c:	4a 8b 04 3b          	mov    (%rbx,%r15,1),%rax
    40003ba0:	49 83 c5 04          	add    $0x4,%r13
    40003ba4:	44 39 30             	cmp    %r14d,(%rax)
    40003ba7:	7f b7                	jg     40003b60 <_ZN9CCounters13QueueCountersEv+0x110>
    40003ba9:	41 81 7c 24 58 00 20 	cmpl   $0x2000,0x58(%r12)
    40003bb0:	00 00 
    40003bb2:	74 0f                	je     40003bc3 <_ZN9CCounters13QueueCountersEv+0x173>
    40003bb4:	48 83 c4 18          	add    $0x18,%rsp
    40003bb8:	5b                   	pop    %rbx
    40003bb9:	5d                   	pop    %rbp
    40003bba:	41 5c                	pop    %r12
    40003bbc:	41 5d                	pop    %r13
    40003bbe:	41 5e                	pop    %r14
    40003bc0:	41 5f                	pop    %r15
    40003bc2:	c3                   	ret    
    40003bc3:	48 b8 98 ff ff ff ff 	movabs $0xffffffffffffff98,%rax
    40003bca:	ff ff ff 
    40003bcd:	49 8b 04 07          	mov    (%r15,%rax,1),%rax
    40003bd1:	44 8b 00             	mov    (%rax),%r8d
    40003bd4:	45 85 c0             	test   %r8d,%r8d
    40003bd7:	7e db                	jle    40003bb4 <_ZN9CCounters13QueueCountersEv+0x164>
    40003bd9:	41 8b bc 24 70 0c 01 	mov    0x10c70(%r12),%edi
    40003be0:	00 
    40003be1:	41 8b b4 24 74 0c 01 	mov    0x10c74(%r12),%esi
    40003be8:	00 
    40003be9:	49 8d 8c 24 70 02 00 	lea    0x270(%r12),%rcx
    40003bf0:	00 
    40003bf1:	0f 1f 80 00 00 00 00 	nopl   0x0(%rax)
    40003bf8:	44 8b 09             	mov    (%rcx),%r9d
    40003bfb:	41 83 f9 1f          	cmp    $0x1f,%r9d
    40003bff:	7f 5f                	jg     40003c60 <_ZN9CCounters13QueueCountersEv+0x210>
    40003c01:	48 63 c5             	movslq %ebp,%rax
    40003c04:	49 63 d1             	movslq %r9d,%rdx
    40003c07:	4c 69 d0 18 02 00 00 	imul   $0x218,%rax,%r10
    40003c0e:	48 c1 e2 04          	shl    $0x4,%rdx
    40003c12:	4c 01 d2             	add    %r10,%rdx
    40003c15:	4c 01 e2             	add    %r12,%rdx
    40003c18:	c7 42 60 02 00 00 00 	movl   $0x2,0x60(%rdx)
    40003c1f:	89 7a 64             	mov    %edi,0x64(%rdx)
    40003c22:	89 6a 68             	mov    %ebp,0x68(%rdx)
    40003c25:	c7 42 6c 00 00 00 00 	movl   $0x0,0x6c(%rdx)
    40003c2c:	41 8d 51 01          	lea    0x1(%r9),%edx
    40003c30:	89 11                	mov    %edx,(%rcx)
    40003c32:	83 fa 20             	cmp    $0x20,%edx
    40003c35:	74 29                	je     40003c60 <_ZN9CCounters13QueueCountersEv+0x210>
    40003c37:	48 63 c2             	movslq %edx,%rax
    40003c3a:	41 83 c1 02          	add    $0x2,%r9d
    40003c3e:	48 c1 e0 04          	shl    $0x4,%rax
    40003c42:	4a 8d 04 10          	lea    (%rax,%r10,1),%rax
    40003c46:	4c 01 e0             	add    %r12,%rax
    40003c49:	c7 40 60 02 00 00 00 	movl   $0x2,0x60(%rax)
    40003c50:	89 70 64             	mov    %esi,0x64(%rax)
    40003c53:	89 68 68             	mov    %ebp,0x68(%rax)
    40003c56:	c7 40 6c 00 00 00 00 	movl   $0x0,0x6c(%rax)
    40003c5d:	44 89 09             	mov    %r9d,(%rcx)
    40003c60:	44 8b 89 00 86 00 00 	mov    0x8600(%rcx),%r9d
    40003c67:	41 83 f9 1f          	cmp    $0x1f,%r9d
    40003c6b:	7f 7f                	jg     40003cec <_ZN9CCounters13QueueCountersEv+0x29c>
    40003c6d:	48 63 c5             	movslq %ebp,%rax
    40003c70:	49 63 d1             	movslq %r9d,%rdx
    40003c73:	4c 69 d0 18 02 00 00 	imul   $0x218,%rax,%r10
    40003c7a:	48 c1 e2 04          	shl    $0x4,%rdx
    40003c7e:	4c 01 d2             	add    %r10,%rdx
    40003c81:	4c 01 e2             	add    %r12,%rdx
    40003c84:	c7 82 60 86 00 00 02 	movl   $0x2,0x8660(%rdx)
    40003c8b:	00 00 00 
    40003c8e:	89 ba 64 86 00 00    	mov    %edi,0x8664(%rdx)
    40003c94:	89 aa 68 86 00 00    	mov    %ebp,0x8668(%rdx)
    40003c9a:	c7 82 6c 86 00 00 00 	movl   $0x0,0x866c(%rdx)
    40003ca1:	00 00 00 
    40003ca4:	41 8d 51 01          	lea    0x1(%r9),%edx
    40003ca8:	89 91 00 86 00 00    	mov    %edx,0x8600(%rcx)
    40003cae:	83 fa 20             	cmp    $0x20,%edx
    40003cb1:	74 39                	je     40003cec <_ZN9CCounters13QueueCountersEv+0x29c>
    40003cb3:	48 63 c2             	movslq %edx,%rax
    40003cb6:	41 83 c1 02          	add    $0x2,%r9d
    40003cba:	48 c1 e0 04          	shl    $0x4,%rax
    40003cbe:	4a 8d 04 10          	lea    (%rax,%r10,1),%rax
    40003cc2:	4c 01 e0             	add    %r12,%rax
    40003cc5:	c7 80 60 86 00 00 02 	movl   $0x2,0x8660(%rax)
    40003ccc:	00 00 00 
    40003ccf:	89 b0 64 86 00 00    	mov    %esi,0x8664(%rax)
    40003cd5:	89 a8 68 86 00 00    	mov    %ebp,0x8668(%rax)
    40003cdb:	c7 80 6c 86 00 00 00 	movl   $0x0,0x866c(%rax)
    40003ce2:	00 00 00 
    40003ce5:	44 89 89 00 86 00 00 	mov    %r9d,0x8600(%rcx)
    40003cec:	83 c5 01             	add    $0x1,%ebp
    40003cef:	48 81 c1 18 02 00 00 	add    $0x218,%rcx
    40003cf6:	41 39 e8             	cmp    %ebp,%r8d
    40003cf9:	0f 85 f9 fe ff ff    	jne    40003bf8 <_ZN9CCounters13QueueCountersEv+0x1a8>
    40003cff:	48 83 c4 18          	add    $0x18,%rsp
    40003d03:	5b                   	pop    %rbx
    40003d04:	5d                   	pop    %rbp
    40003d05:	41 5c                	pop    %r12
    40003d07:	41 5d                	pop    %r13
    40003d09:	41 5e                	pop    %r14
    40003d0b:	41 5f                	pop    %r15
    40003d0d:	c3                   	ret    
    40003d0e:	66 90                	xchg   %ax,%ax

0000000040003d10 <_Z11setcountersiPPc>:
    40003d10:	f3 0f 1e fa          	endbr64 
    40003d14:	f3 0f 1e fa          	endbr64 
    40003d18:	49 bb ec 42 00 00 00 	movabs $0x42ec,%r11
    40003d1f:	00 00 00 
    40003d22:	41 57                	push   %r15
    40003d24:	4c 8d 3d e9 ff ff ff 	lea    -0x17(%rip),%r15        # 40003d14 <_Z11setcountersiPPc+0x4>
    40003d2b:	41 56                	push   %r14
    40003d2d:	4d 01 df             	add    %r11,%r15
    40003d30:	41 55                	push   %r13
    40003d32:	41 54                	push   %r12
    40003d34:	41 89 fc             	mov    %edi,%r12d
    40003d37:	55                   	push   %rbp
    40003d38:	48 89 f5             	mov    %rsi,%rbp
    40003d3b:	53                   	push   %rbx
    40003d3c:	48 bb 40 90 3f c0 ff 	movabs $0xffffffffc03f9040,%rbx
    40003d43:	ff ff ff 
    40003d46:	4c 01 fb             	add    %r15,%rbx
    40003d49:	48 81 ec 58 01 00 00 	sub    $0x158,%rsp
    40003d50:	4c 8b 6e 08          	mov    0x8(%rsi),%r13
    40003d54:	64 48 8b 04 25 28 00 	mov    %fs:0x28,%rax
    40003d5b:	00 00 
    40003d5d:	48 89 84 24 48 01 00 	mov    %rax,0x148(%rsp)
    40003d64:	00 
    40003d65:	31 c0                	xor    %eax,%eax
    40003d67:	48 b8 c8 d2 ff ff ff 	movabs $0xffffffffffffd2c8,%rax
    40003d6e:	ff ff ff 
    40003d71:	49 8d 34 07          	lea    (%r15,%rax,1),%rsi
    40003d75:	4c 89 ef             	mov    %r13,%rdi
    40003d78:	ff d3                	call   *%rbx
    40003d7a:	c7 44 24 30 01 00 00 	movl   $0x1,0x30(%rsp)
    40003d81:	00 
    40003d82:	48 85 c0             	test   %rax,%rax
    40003d85:	0f 84 b9 03 00 00    	je     40004144 <_Z11setcountersiPPc+0x434>
    40003d8b:	41 83 fc 02          	cmp    $0x2,%r12d
    40003d8f:	0f 8f fd 02 00 00    	jg     40004092 <_Z11setcountersiPPc+0x382>
    40003d95:	48 8d 54 24 40       	lea    0x40(%rsp),%rdx
    40003d9a:	31 c0                	xor    %eax,%eax
    40003d9c:	b9 10 00 00 00       	mov    $0x10,%ecx
    40003da1:	be 80 00 00 00       	mov    $0x80,%esi
    40003da6:	48 89 d7             	mov    %rdx,%rdi
    40003da9:	f3 48 ab             	rep stos %rax,%es:(%rdi)
    40003dac:	31 ff                	xor    %edi,%edi
    40003dae:	48 b8 10 91 3f c0 ff 	movabs $0xffffffffc03f9110,%rax
    40003db5:	ff ff ff 
    40003db8:	4c 01 f8             	add    %r15,%rax
    40003dbb:	ff d0                	call   *%rax
    40003dbd:	85 c0                	test   %eax,%eax
    40003dbf:	0f 85 55 03 00 00    	jne    4000411a <_Z11setcountersiPPc+0x40a>
    40003dc5:	49 bd 98 ff ff ff ff 	movabs $0xffffffffffffff98,%r13
    40003dcc:	ff ff ff 
    40003dcf:	48 8b 74 24 40       	mov    0x40(%rsp),%rsi
    40003dd4:	45 31 e4             	xor    %r12d,%r12d
    40003dd7:	48 bb 20 60 81 00 00 	movabs $0x816020,%rbx
    40003dde:	00 00 00 
    40003de1:	4b 8b 44 3d 00       	mov    0x0(%r13,%r15,1),%rax
    40003de6:	4a 8d 0c 3b          	lea    (%rbx,%r15,1),%rcx
    40003dea:	c7 00 40 00 00 00    	movl   $0x40,(%rax)
    40003df0:	31 c0                	xor    %eax,%eax
    40003df2:	eb 15                	jmp    40003e09 <_Z11setcountersiPPc+0xf9>
    40003df4:	0f 1f 40 00          	nopl   0x0(%rax)
    40003df8:	89 14 81             	mov    %edx,(%rcx,%rax,4)
    40003dfb:	48 83 c0 01          	add    $0x1,%rax
    40003dff:	41 83 c4 01          	add    $0x1,%r12d
    40003e03:	48 83 f8 40          	cmp    $0x40,%rax
    40003e07:	74 1a                	je     40003e23 <_Z11setcountersiPPc+0x113>
    40003e09:	48 0f a3 c6          	bt     %rax,%rsi
    40003e0d:	89 c2                	mov    %eax,%edx
    40003e0f:	72 e7                	jb     40003df8 <_Z11setcountersiPPc+0xe8>
    40003e11:	ba ff ff ff ff       	mov    $0xffffffff,%edx
    40003e16:	89 14 81             	mov    %edx,(%rcx,%rax,4)
    40003e19:	48 83 c0 01          	add    $0x1,%rax
    40003e1d:	48 83 f8 40          	cmp    $0x40,%rax
    40003e21:	75 e6                	jne    40003e09 <_Z11setcountersiPPc+0xf9>
    40003e23:	49 be 60 53 80 00 00 	movabs $0x805360,%r14
    40003e2a:	00 00 00 
    40003e2d:	48 b8 f0 9d ff ff ff 	movabs $0xffffffffffff9df0,%rax
    40003e34:	ff ff ff 
    40003e37:	4b 8d 3c 3e          	lea    (%r14,%r15,1),%rdi
    40003e3b:	4c 89 74 24 18       	mov    %r14,0x18(%rsp)
    40003e40:	4c 01 f8             	add    %r15,%rax
    40003e43:	ff d0                	call   *%rax
    40003e45:	4b 8d 3c 3e          	lea    (%r14,%r15,1),%rdi
    40003e49:	48 b8 50 ba ff ff ff 	movabs $0xffffffffffffba50,%rax
    40003e50:	ff ff ff 
    40003e53:	49 be a0 ff ff ff ff 	movabs $0xffffffffffffffa0,%r14
    40003e5a:	ff ff ff 
    40003e5d:	4c 01 f8             	add    %r15,%rax
    40003e60:	ff d0                	call   *%rax
    40003e62:	4b 8b 04 3e          	mov    (%r14,%r15,1),%rax
    40003e66:	8b 08                	mov    (%rax),%ecx
    40003e68:	85 c9                	test   %ecx,%ecx
    40003e6a:	0f 85 85 02 00 00    	jne    400040f5 <_Z11setcountersiPPc+0x3e5>
    40003e70:	48 bf 30 90 3f c0 ff 	movabs $0xffffffffc03f9030,%rdi
    40003e77:	ff ff ff 
    40003e7a:	4b 8b 44 3d 00       	mov    0x0(%r13,%r15,1),%rax
    40003e7f:	48 89 7c 24 10       	mov    %rdi,0x10(%rsp)
    40003e84:	8b 10                	mov    (%rax),%edx
    40003e86:	85 d2                	test   %edx,%edx
    40003e88:	0f 8e 1f 01 00 00    	jle    40003fad <_Z11setcountersiPPc+0x29d>
    40003e8e:	48 b8 90 96 ff ff ff 	movabs $0xffffffffffff9690,%rax
    40003e95:	ff ff ff 
    40003e98:	44 89 64 24 34       	mov    %r12d,0x34(%rsp)
    40003e9d:	31 ed                	xor    %ebp,%ebp
    40003e9f:	48 89 44 24 20       	mov    %rax,0x20(%rsp)
    40003ea4:	48 b8 50 99 ff ff ff 	movabs $0xffffffffffff9950,%rax
    40003eab:	ff ff ff 
    40003eae:	4c 01 f8             	add    %r15,%rax
    40003eb1:	48 89 44 24 38       	mov    %rax,0x38(%rsp)
    40003eb6:	48 b8 70 d0 ff ff ff 	movabs $0xffffffffffffd070,%rax
    40003ebd:	ff ff ff 
    40003ec0:	48 89 44 24 28       	mov    %rax,0x28(%rsp)
    40003ec5:	eb 1a                	jmp    40003ee1 <_Z11setcountersiPPc+0x1d1>
    40003ec7:	66 0f 1f 84 00 00 00 	nopw   0x0(%rax,%rax,1)
    40003ece:	00 00 
    40003ed0:	4b 8b 44 3d 00       	mov    0x0(%r13,%r15,1),%rax
    40003ed5:	48 83 c5 01          	add    $0x1,%rbp
    40003ed9:	39 28                	cmp    %ebp,(%rax)
    40003edb:	0f 8e c7 00 00 00    	jle    40003fa8 <_Z11setcountersiPPc+0x298>
    40003ee1:	4a 8d 04 3b          	lea    (%rbx,%r15,1),%rax
    40003ee5:	41 89 ec             	mov    %ebp,%r12d
    40003ee8:	44 8b 0c a8          	mov    (%rax,%rbp,4),%r9d
    40003eec:	45 85 c9             	test   %r9d,%r9d
    40003eef:	78 df                	js     40003ed0 <_Z11setcountersiPPc+0x1c0>
    40003ef1:	48 8d 94 24 c0 00 00 	lea    0xc0(%rsp),%rdx
    40003ef8:	00 
    40003ef9:	b9 10 00 00 00       	mov    $0x10,%ecx
    40003efe:	31 c0                	xor    %eax,%eax
    40003f00:	48 89 d7             	mov    %rdx,%rdi
    40003f03:	f3 48 ab             	rep stos %rax,%es:(%rdi)
    40003f06:	41 81 f9 ff 03 00 00 	cmp    $0x3ff,%r9d
    40003f0d:	7f 16                	jg     40003f25 <_Z11setcountersiPPc+0x215>
    40003f0f:	49 63 c1             	movslq %r9d,%rax
    40003f12:	be 01 00 00 00       	mov    $0x1,%esi
    40003f17:	44 89 c9             	mov    %r9d,%ecx
    40003f1a:	48 c1 e8 06          	shr    $0x6,%rax
    40003f1e:	48 d3 e6             	shl    %cl,%rsi
    40003f21:	48 09 34 c2          	or     %rsi,(%rdx,%rax,8)
    40003f25:	48 b8 b0 90 3f c0 ff 	movabs $0xffffffffc03f90b0,%rax
    40003f2c:	ff ff ff 
    40003f2f:	44 89 0c 24          	mov    %r9d,(%rsp)
    40003f33:	48 89 54 24 08       	mov    %rdx,0x8(%rsp)
    40003f38:	4c 01 f8             	add    %r15,%rax
    40003f3b:	ff d0                	call   *%rax
    40003f3d:	48 8b 54 24 08       	mov    0x8(%rsp),%rdx
    40003f42:	be 80 00 00 00       	mov    $0x80,%esi
    40003f47:	89 c7                	mov    %eax,%edi
    40003f49:	48 b8 90 90 3f c0 ff 	movabs $0xffffffffc03f9090,%rax
    40003f50:	ff ff ff 
    40003f53:	4c 01 f8             	add    %r15,%rax
    40003f56:	ff d0                	call   *%rax
    40003f58:	44 8b 0c 24          	mov    (%rsp),%r9d
    40003f5c:	85 c0                	test   %eax,%eax
    40003f5e:	0f 85 0c 01 00 00    	jne    40004070 <_Z11setcountersiPPc+0x360>
    40003f64:	4b 8b 04 3e          	mov    (%r14,%r15,1),%rax
    40003f68:	83 7c 24 30 01       	cmpl   $0x1,0x30(%rsp)
    40003f6d:	8b 00                	mov    (%rax),%eax
    40003f6f:	0f 84 d3 00 00 00    	je     40004048 <_Z11setcountersiPPc+0x338>
    40003f75:	85 c0                	test   %eax,%eax
    40003f77:	0f 84 53 ff ff ff    	je     40003ed0 <_Z11setcountersiPPc+0x1c0>
    40003f7d:	48 8b 44 24 18       	mov    0x18(%rsp),%rax
    40003f82:	44 89 e6             	mov    %r12d,%esi
    40003f85:	48 83 c5 01          	add    $0x1,%rbp
    40003f89:	4a 8d 3c 38          	lea    (%rax,%r15,1),%rdi
    40003f8d:	48 8b 44 24 20       	mov    0x20(%rsp),%rax
    40003f92:	4c 01 f8             	add    %r15,%rax
    40003f95:	ff d0                	call   *%rax
    40003f97:	4b 8b 44 3d 00       	mov    0x0(%r13,%r15,1),%rax
    40003f9c:	39 28                	cmp    %ebp,(%rax)
    40003f9e:	0f 8f 3d ff ff ff    	jg     40003ee1 <_Z11setcountersiPPc+0x1d1>
    40003fa4:	0f 1f 40 00          	nopl   0x0(%rax)
    40003fa8:	44 8b 64 24 34       	mov    0x34(%rsp),%r12d
    40003fad:	48 8b 44 24 18       	mov    0x18(%rsp),%rax
    40003fb2:	4a 8d 3c 38          	lea    (%rax,%r15,1),%rdi
    40003fb6:	48 b8 f0 9f ff ff ff 	movabs $0xffffffffffff9ff0,%rax
    40003fbd:	ff ff ff 
    40003fc0:	4c 01 f8             	add    %r15,%rax
    40003fc3:	ff d0                	call   *%rax
    40003fc5:	83 7c 24 30 01       	cmpl   $0x1,0x30(%rsp)
    40003fca:	0f 84 c9 01 00 00    	je     40004199 <_Z11setcountersiPPc+0x489>
    40003fd0:	48 8b 6c 24 10       	mov    0x10(%rsp),%rbp
    40003fd5:	44 89 e1             	mov    %r12d,%ecx
    40003fd8:	bf 01 00 00 00       	mov    $0x1,%edi
    40003fdd:	48 b8 e0 ff ff ff ff 	movabs $0xffffffffffffffe0,%rax
    40003fe4:	ff ff ff 
    40003fe7:	49 8b 04 07          	mov    (%r15,%rax,1),%rax
    40003feb:	4c 01 fd             	add    %r15,%rbp
    40003fee:	8b 10                	mov    (%rax),%edx
    40003ff0:	48 b8 b0 d1 ff ff ff 	movabs $0xffffffffffffd1b0,%rax
    40003ff7:	ff ff ff 
    40003ffa:	49 8d 34 07          	lea    (%r15,%rax,1),%rsi
    40003ffe:	31 c0                	xor    %eax,%eax
    40004000:	ff d5                	call   *%rbp
    40004002:	48 b8 d0 90 3f c0 ff 	movabs $0xffffffffc03f90d0,%rax
    40004009:	ff ff ff 
    4000400c:	bf 0a 00 00 00       	mov    $0xa,%edi
    40004011:	4c 01 f8             	add    %r15,%rax
    40004014:	ff d0                	call   *%rax
    40004016:	31 c0                	xor    %eax,%eax
    40004018:	48 8b 9c 24 48 01 00 	mov    0x148(%rsp),%rbx
    4000401f:	00 
    40004020:	64 48 33 1c 25 28 00 	xor    %fs:0x28,%rbx
    40004027:	00 00 
    40004029:	0f 85 27 02 00 00    	jne    40004256 <_Z11setcountersiPPc+0x546>
    4000402f:	48 81 c4 58 01 00 00 	add    $0x158,%rsp
    40004036:	5b                   	pop    %rbx
    40004037:	5d                   	pop    %rbp
    40004038:	41 5c                	pop    %r12
    4000403a:	41 5d                	pop    %r13
    4000403c:	41 5e                	pop    %r14
    4000403e:	41 5f                	pop    %r15
    40004040:	c3                   	ret    
    40004041:	0f 1f 80 00 00 00 00 	nopl   0x0(%rax)
    40004048:	85 c0                	test   %eax,%eax
    4000404a:	0f 84 80 fe ff ff    	je     40003ed0 <_Z11setcountersiPPc+0x1c0>
    40004050:	48 8b 44 24 18       	mov    0x18(%rsp),%rax
    40004055:	44 89 e6             	mov    %r12d,%esi
    40004058:	4a 8d 3c 38          	lea    (%rax,%r15,1),%rdi
    4000405c:	48 8b 44 24 38       	mov    0x38(%rsp),%rax
    40004061:	ff d0                	call   *%rax
    40004063:	e9 68 fe ff ff       	jmp    40003ed0 <_Z11setcountersiPPc+0x1c0>
    40004068:	0f 1f 84 00 00 00 00 	nopl   0x0(%rax,%rax,1)
    4000406f:	00 
    40004070:	48 8b 44 24 28       	mov    0x28(%rsp),%rax
    40004075:	48 8b 4c 24 10       	mov    0x10(%rsp),%rcx
    4000407a:	44 89 ca             	mov    %r9d,%edx
    4000407d:	bf 01 00 00 00       	mov    $0x1,%edi
    40004082:	49 8d 34 07          	lea    (%r15,%rax,1),%rsi
    40004086:	4c 01 f9             	add    %r15,%rcx
    40004089:	31 c0                	xor    %eax,%eax
    4000408b:	ff d1                	call   *%rcx
    4000408d:	e9 d2 fe ff ff       	jmp    40003f64 <_Z11setcountersiPPc+0x254>
    40004092:	83 7c 24 30 02       	cmpl   $0x2,0x30(%rsp)
    40004097:	41 bd 64 00 00 00    	mov    $0x64,%r13d
    4000409d:	b8 00 00 00 00       	mov    $0x0,%eax
    400040a2:	49 be b8 ff ff ff ff 	movabs $0xffffffffffffffb8,%r14
    400040a9:	ff ff ff 
    400040ac:	44 0f 45 e8          	cmovne %eax,%r13d
    400040b0:	31 db                	xor    %ebx,%ebx
    400040b2:	eb 19                	jmp    400040cd <_Z11setcountersiPPc+0x3bd>
    400040b4:	0f 1f 40 00          	nopl   0x0(%rax)
    400040b8:	4b 8b 14 3e          	mov    (%r14,%r15,1),%rdx
    400040bc:	89 04 9a             	mov    %eax,(%rdx,%rbx,4)
    400040bf:	48 83 c3 01          	add    $0x1,%rbx
    400040c3:	48 83 fb 08          	cmp    $0x8,%rbx
    400040c7:	0f 84 c8 fc ff ff    	je     40003d95 <_Z11setcountersiPPc+0x85>
    400040cd:	8d 53 02             	lea    0x2(%rbx),%edx
    400040d0:	44 89 e8             	mov    %r13d,%eax
    400040d3:	41 39 d4             	cmp    %edx,%r12d
    400040d6:	7e e0                	jle    400040b8 <_Z11setcountersiPPc+0x3a8>
    400040d8:	48 8b 7c dd 10       	mov    0x10(%rbp,%rbx,8),%rdi
    400040dd:	ba 0a 00 00 00       	mov    $0xa,%edx
    400040e2:	31 f6                	xor    %esi,%esi
    400040e4:	48 b8 e0 90 3f c0 ff 	movabs $0xffffffffc03f90e0,%rax
    400040eb:	ff ff ff 
    400040ee:	4c 01 f8             	add    %r15,%rax
    400040f1:	ff d0                	call   *%rax
    400040f3:	eb c3                	jmp    400040b8 <_Z11setcountersiPPc+0x3a8>
    400040f5:	48 8b 44 24 18       	mov    0x18(%rsp),%rax
    400040fa:	4a 8d 3c 38          	lea    (%rax,%r15,1),%rdi
    400040fe:	48 b8 f0 95 ff ff ff 	movabs $0xffffffffffff95f0,%rax
    40004105:	ff ff ff 
    40004108:	4c 01 f8             	add    %r15,%rax
    4000410b:	ff d0                	call   *%rax
    4000410d:	85 c0                	test   %eax,%eax
    4000410f:	0f 84 5b fd ff ff    	je     40003e70 <_Z11setcountersiPPc+0x160>
    40004115:	e9 fe fe ff ff       	jmp    40004018 <_Z11setcountersiPPc+0x308>
    4000411a:	48 b8 e3 d2 ff ff ff 	movabs $0xffffffffffffd2e3,%rax
    40004121:	ff ff ff 
    40004124:	bf 01 00 00 00       	mov    $0x1,%edi
    40004129:	48 bb 30 90 3f c0 ff 	movabs $0xffffffffc03f9030,%rbx
    40004130:	ff ff ff 
    40004133:	49 8d 34 07          	lea    (%r15,%rax,1),%rsi
    40004137:	4a 8d 2c 3b          	lea    (%rbx,%r15,1),%rbp
    4000413b:	31 c0                	xor    %eax,%eax
    4000413d:	ff d5                	call   *%rbp
    4000413f:	e9 81 fc ff ff       	jmp    40003dc5 <_Z11setcountersiPPc+0xb5>
    40004144:	48 b8 d6 d2 ff ff ff 	movabs $0xffffffffffffd2d6,%rax
    4000414b:	ff ff ff 
    4000414e:	4c 89 ef             	mov    %r13,%rdi
    40004151:	49 8d 34 07          	lea    (%r15,%rax,1),%rsi
    40004155:	ff d3                	call   *%rbx
    40004157:	c7 44 24 30 02 00 00 	movl   $0x2,0x30(%rsp)
    4000415e:	00 
    4000415f:	48 85 c0             	test   %rax,%rax
    40004162:	0f 85 23 fc ff ff    	jne    40003d8b <_Z11setcountersiPPc+0x7b>
    40004168:	48 b8 58 d1 ff ff ff 	movabs $0xffffffffffffd158,%rax
    4000416f:	ff ff ff 
    40004172:	4c 89 ea             	mov    %r13,%rdx
    40004175:	bf 01 00 00 00       	mov    $0x1,%edi
    4000417a:	48 b9 30 90 3f c0 ff 	movabs $0xffffffffc03f9030,%rcx
    40004181:	ff ff ff 
    40004184:	49 8d 34 07          	lea    (%r15,%rax,1),%rsi
    40004188:	4c 01 f9             	add    %r15,%rcx
    4000418b:	31 c0                	xor    %eax,%eax
    4000418d:	ff d1                	call   *%rcx
    4000418f:	b8 01 00 00 00       	mov    $0x1,%eax
    40004194:	e9 7f fe ff ff       	jmp    40004018 <_Z11setcountersiPPc+0x308>
    40004199:	48 8b 5c 24 10       	mov    0x10(%rsp),%rbx
    4000419e:	44 89 e1             	mov    %r12d,%ecx
    400041a1:	bf 01 00 00 00       	mov    $0x1,%edi
    400041a6:	49 be e0 ff ff ff ff 	movabs $0xffffffffffffffe0,%r14
    400041ad:	ff ff ff 
    400041b0:	48 b8 80 d1 ff ff ff 	movabs $0xffffffffffffd180,%rax
    400041b7:	ff ff ff 
    400041ba:	4f 8b 04 3e          	mov    (%r14,%r15,1),%r8
    400041be:	49 bd 70 53 80 00 00 	movabs $0x805370,%r13
    400041c5:	00 00 00 
    400041c8:	48 bd 1b d3 ff ff ff 	movabs $0xffffffffffffd31b,%rbp
    400041cf:	ff ff ff 
    400041d2:	49 8d 34 07          	lea    (%r15,%rax,1),%rsi
    400041d6:	4c 01 fb             	add    %r15,%rbx
    400041d9:	31 c0                	xor    %eax,%eax
    400041db:	4c 89 04 24          	mov    %r8,(%rsp)
    400041df:	41 8b 10             	mov    (%r8),%edx
    400041e2:	ff d3                	call   *%rbx
    400041e4:	bf 01 00 00 00       	mov    $0x1,%edi
    400041e9:	48 b8 fd d2 ff ff ff 	movabs $0xffffffffffffd2fd,%rax
    400041f0:	ff ff ff 
    400041f3:	49 8d 34 07          	lea    (%r15,%rax,1),%rsi
    400041f7:	31 c0                	xor    %eax,%eax
    400041f9:	ff d3                	call   *%rbx
    400041fb:	4c 8b 04 24          	mov    (%rsp),%r8
    400041ff:	31 db                	xor    %ebx,%ebx
    40004201:	41 8b 00             	mov    (%r8),%eax
    40004204:	85 c0                	test   %eax,%eax
    40004206:	0f 8e f6 fd ff ff    	jle    40004002 <_Z11setcountersiPPc+0x2f2>
    4000420c:	48 b8 88 ff ff ff ff 	movabs $0xffffffffffffff88,%rax
    40004213:	ff ff ff 
    40004216:	4e 8b 24 38          	mov    (%rax,%r15,1),%r12
    4000421a:	66 0f 1f 44 00 00    	nopw   0x0(%rax,%rax,1)
    40004220:	4c 8b 54 24 10       	mov    0x10(%rsp),%r10
    40004225:	4b 8d 44 3d 00       	lea    0x0(%r13,%r15,1),%rax
    4000422a:	41 8b 14 9c          	mov    (%r12,%rbx,4),%edx
    4000422e:	4a 8d 74 3d 00       	lea    0x0(%rbp,%r15,1),%rsi
    40004233:	48 8b 0c d8          	mov    (%rax,%rbx,8),%rcx
    40004237:	bf 01 00 00 00       	mov    $0x1,%edi
    4000423c:	31 c0                	xor    %eax,%eax
    4000423e:	48 83 c3 01          	add    $0x1,%rbx
    40004242:	4f 8d 04 3a          	lea    (%r10,%r15,1),%r8
    40004246:	41 ff d0             	call   *%r8
    40004249:	4b 8b 04 3e          	mov    (%r14,%r15,1),%rax
    4000424d:	39 18                	cmp    %ebx,(%rax)
    4000424f:	7f cf                	jg     40004220 <_Z11setcountersiPPc+0x510>
    40004251:	e9 ac fd ff ff       	jmp    40004002 <_Z11setcountersiPPc+0x2f2>
    40004256:	48 b8 c0 90 3f c0 ff 	movabs $0xffffffffc03f90c0,%rax
    4000425d:	ff ff ff 
    40004260:	4c 01 f8             	add    %r15,%rax
    40004263:	ff d0                	call   *%rax
    40004265:	90                   	nop
    40004266:	66 2e 0f 1f 84 00 00 	cs nopw 0x0(%rax,%rax,1)
    4000426d:	00 00 00 

0000000040004270 <_ZN9CCounters26GetP4EventSelectRegAddressEii>:
    40004270:	f3 0f 1e fa          	endbr64 
    40004274:	f3 0f 1e fa          	endbr64 
    40004278:	48 8d 15 f5 ff ff ff 	lea    -0xb(%rip),%rdx        # 40004274 <_ZN9CCounters26GetP4EventSelectRegAddressEii+0x4>
    4000427f:	49 bb 8c 3d 00 00 00 	movabs $0x3d8c,%r11
    40004286:	00 00 00 
    40004289:	4c 01 da             	add    %r11,%rdx
    4000428c:	83 ff 11             	cmp    $0x11,%edi
    4000428f:	77 3f                	ja     400042d0 <_ZN9CCounters26GetP4EventSelectRegAddressEii+0x60>
    40004291:	8d 47 fd             	lea    -0x3(%rdi),%eax
    40004294:	83 ff 0f             	cmp    $0xf,%edi
    40004297:	0f 47 f8             	cmova  %eax,%edi
    4000429a:	83 fe 07             	cmp    $0x7,%esi
    4000429d:	77 31                	ja     400042d0 <_ZN9CCounters26GetP4EventSelectRegAddressEii+0x60>
    4000429f:	48 b9 00 da ff ff ff 	movabs $0xffffffffffffda00,%rcx
    400042a6:	ff ff ff 
    400042a9:	89 f8                	mov    %edi,%eax
    400042ab:	48 63 f6             	movslq %esi,%rsi
    400042ae:	c1 e8 02             	shr    $0x2,%eax
    400042b1:	48 01 ca             	add    %rcx,%rdx
    400042b4:	48 8d 04 c6          	lea    (%rsi,%rax,8),%rax
    400042b8:	8b 04 82             	mov    (%rdx,%rax,4),%eax
    400042bb:	85 c0                	test   %eax,%eax
    400042bd:	78 16                	js     400042d5 <_ZN9CCounters26GetP4EventSelectRegAddressEii+0x65>
    400042bf:	83 e7 02             	and    $0x2,%edi
    400042c2:	83 ff 01             	cmp    $0x1,%edi
    400042c5:	83 d8 ff             	sbb    $0xffffffff,%eax
    400042c8:	c3                   	ret    
    400042c9:	0f 1f 80 00 00 00 00 	nopl   0x0(%rax)
    400042d0:	b8 ff ff ff ff       	mov    $0xffffffff,%eax
    400042d5:	c3                   	ret    
    400042d6:	66 2e 0f 1f 84 00 00 	cs nopw 0x0(%rax,%rax,1)
    400042dd:	00 00 00 

00000000400042e0 <_ZN9CCountersD1Ev>:
    400042e0:	f3 0f 1e fa          	endbr64 
    400042e4:	f3 0f 1e fa          	endbr64 
    400042e8:	49 bb 1c 3d 00 00 00 	movabs $0x3d1c,%r11
    400042ef:	00 00 00 
    400042f2:	41 57                	push   %r15
    400042f4:	8b 7f 08             	mov    0x8(%rdi),%edi
    400042f7:	4c 8d 3d e6 ff ff ff 	lea    -0x1a(%rip),%r15        # 400042e4 <_ZN9CCountersD1Ev+0x4>
    400042fe:	4d 01 df             	add    %r11,%r15
    40004301:	85 ff                	test   %edi,%edi
    40004303:	75 0b                	jne    40004310 <_ZN9CCountersD1Ev+0x30>
    40004305:	41 5f                	pop    %r15
    40004307:	c3                   	ret    
    40004308:	0f 1f 84 00 00 00 00 	nopl   0x0(%rax,%rax,1)
    4000430f:	00 
    40004310:	48 b8 30 91 3f c0 ff 	movabs $0xffffffffc03f9130,%rax
    40004317:	ff ff ff 
    4000431a:	4c 01 f8             	add    %r15,%rax
    4000431d:	ff d0                	call   *%rax
    4000431f:	41 5f                	pop    %r15
    40004321:	c3                   	ret    
    40004322:	66 2e 0f 1f 84 00 00 	cs nopw 0x0(%rax,%rax,1)
    40004329:	00 00 00 
    4000432c:	0f 1f 40 00          	nopl   0x0(%rax)

0000000040004330 <_start>:
    40004330:	f3 0f 1e fa          	endbr64 
    40004334:	31 ed                	xor    %ebp,%ebp
    40004336:	49 89 d1             	mov    %rdx,%r9
    40004339:	5e                   	pop    %rsi
    4000433a:	48 89 e2             	mov    %rsp,%rdx
    4000433d:	48 83 e4 f0          	and    $0xfffffffffffffff0,%rsp
    40004341:	50                   	push   %rax
    40004342:	54                   	push   %rsp
    40004343:	49 c7 c0 90 44 00 40 	mov    $0x40004490,%r8
    4000434a:	48 c7 c1 20 44 00 40 	mov    $0x40004420,%rcx
    40004351:	48 c7 c7 90 06 00 40 	mov    $0x40000690,%rdi
    40004358:	ff 15 8a 3c 00 00    	call   *0x3c8a(%rip)        # 40007fe8 <__libc_start_main@GLIBC_2.2.5>
    4000435e:	f4                   	hlt    
    4000435f:	90                   	nop

0000000040004360 <_dl_relocate_static_pie>:
    40004360:	f3 0f 1e fa          	endbr64 
    40004364:	c3                   	ret    
    40004365:	66 2e 0f 1f 84 00 00 	cs nopw 0x0(%rax,%rax,1)
    4000436c:	00 00 00 
    4000436f:	90                   	nop

0000000040004370 <deregister_tm_clones>:
    40004370:	b8 40 d3 80 40       	mov    $0x4080d340,%eax
    40004375:	48 3d 40 d3 80 40    	cmp    $0x4080d340,%rax
    4000437b:	74 13                	je     40004390 <deregister_tm_clones+0x20>
    4000437d:	b8 00 00 00 00       	mov    $0x0,%eax
    40004382:	48 85 c0             	test   %rax,%rax
    40004385:	74 09                	je     40004390 <deregister_tm_clones+0x20>
    40004387:	bf 40 d3 80 40       	mov    $0x4080d340,%edi
    4000438c:	ff e0                	jmp    *%rax
    4000438e:	66 90                	xchg   %ax,%ax
    40004390:	c3                   	ret    
    40004391:	66 66 2e 0f 1f 84 00 	data16 cs nopw 0x0(%rax,%rax,1)
    40004398:	00 00 00 00 
    4000439c:	0f 1f 40 00          	nopl   0x0(%rax)

00000000400043a0 <register_tm_clones>:
    400043a0:	be 40 d3 80 40       	mov    $0x4080d340,%esi
    400043a5:	48 81 ee 40 d3 80 40 	sub    $0x4080d340,%rsi
    400043ac:	48 89 f0             	mov    %rsi,%rax
    400043af:	48 c1 ee 3f          	shr    $0x3f,%rsi
    400043b3:	48 c1 f8 03          	sar    $0x3,%rax
    400043b7:	48 01 c6             	add    %rax,%rsi
    400043ba:	48 d1 fe             	sar    %rsi
    400043bd:	74 11                	je     400043d0 <register_tm_clones+0x30>
    400043bf:	b8 00 00 00 00       	mov    $0x0,%eax
    400043c4:	48 85 c0             	test   %rax,%rax
    400043c7:	74 07                	je     400043d0 <register_tm_clones+0x30>
    400043c9:	bf 40 d3 80 40       	mov    $0x4080d340,%edi
    400043ce:	ff e0                	jmp    *%rax
    400043d0:	c3                   	ret    
    400043d1:	66 66 2e 0f 1f 84 00 	data16 cs nopw 0x0(%rax,%rax,1)
    400043d8:	00 00 00 00 
    400043dc:	0f 1f 40 00          	nopl   0x0(%rax)

00000000400043e0 <__do_global_dtors_aux>:
    400043e0:	f3 0f 1e fa          	endbr64 
    400043e4:	80 3d 55 8f 80 00 00 	cmpb   $0x0,0x808f55(%rip)        # 4080d340 <__TMC_END__>
    400043eb:	75 13                	jne    40004400 <__do_global_dtors_aux+0x20>
    400043ed:	55                   	push   %rbp
    400043ee:	48 89 e5             	mov    %rsp,%rbp
    400043f1:	e8 7a ff ff ff       	call   40004370 <deregister_tm_clones>
    400043f6:	c6 05 43 8f 80 00 01 	movb   $0x1,0x808f43(%rip)        # 4080d340 <__TMC_END__>
    400043fd:	5d                   	pop    %rbp
    400043fe:	c3                   	ret    
    400043ff:	90                   	nop
    40004400:	c3                   	ret    
    40004401:	66 66 2e 0f 1f 84 00 	data16 cs nopw 0x0(%rax,%rax,1)
    40004408:	00 00 00 00 
    4000440c:	0f 1f 40 00          	nopl   0x0(%rax)

0000000040004410 <frame_dummy>:
    40004410:	f3 0f 1e fa          	endbr64 
    40004414:	eb 8a                	jmp    400043a0 <register_tm_clones>
    40004416:	66 2e 0f 1f 84 00 00 	cs nopw 0x0(%rax,%rax,1)
    4000441d:	00 00 00 

0000000040004420 <__libc_csu_init>:
    40004420:	f3 0f 1e fa          	endbr64 
    40004424:	41 57                	push   %r15
    40004426:	4c 8d 3d 2b 39 00 00 	lea    0x392b(%rip),%r15        # 40007d58 <__frame_dummy_init_array_entry>
    4000442d:	41 56                	push   %r14
    4000442f:	49 89 d6             	mov    %rdx,%r14
    40004432:	41 55                	push   %r13
    40004434:	49 89 f5             	mov    %rsi,%r13
    40004437:	41 54                	push   %r12
    40004439:	41 89 fc             	mov    %edi,%r12d
    4000443c:	55                   	push   %rbp
    4000443d:	48 8d 2d 24 39 00 00 	lea    0x3924(%rip),%rbp        # 40007d68 <__do_global_dtors_aux_fini_array_entry>
    40004444:	53                   	push   %rbx
    40004445:	4c 29 fd             	sub    %r15,%rbp
    40004448:	48 83 ec 08          	sub    $0x8,%rsp
    4000444c:	e8 af cb 3f c0       	call   401000 <_init>
    40004451:	48 c1 fd 03          	sar    $0x3,%rbp
    40004455:	74 1f                	je     40004476 <__libc_csu_init+0x56>
    40004457:	31 db                	xor    %ebx,%ebx
    40004459:	0f 1f 80 00 00 00 00 	nopl   0x0(%rax)
    40004460:	4c 89 f2             	mov    %r14,%rdx
    40004463:	4c 89 ee             	mov    %r13,%rsi
    40004466:	44 89 e7             	mov    %r12d,%edi
    40004469:	41 ff 14 df          	call   *(%r15,%rbx,8)
    4000446d:	48 83 c3 01          	add    $0x1,%rbx
    40004471:	48 39 dd             	cmp    %rbx,%rbp
    40004474:	75 ea                	jne    40004460 <__libc_csu_init+0x40>
    40004476:	48 83 c4 08          	add    $0x8,%rsp
    4000447a:	5b                   	pop    %rbx
    4000447b:	5d                   	pop    %rbp
    4000447c:	41 5c                	pop    %r12
    4000447e:	41 5d                	pop    %r13
    40004480:	41 5e                	pop    %r14
    40004482:	41 5f                	pop    %r15
    40004484:	c3                   	ret    
    40004485:	66 66 2e 0f 1f 84 00 	data16 cs nopw 0x0(%rax,%rax,1)
    4000448c:	00 00 00 00 

0000000040004490 <__libc_csu_fini>:
    40004490:	f3 0f 1e fa          	endbr64 
    40004494:	c3                   	ret    

Disassembly of section .fini:

0000000040004498 <_fini>:
    40004498:	f3 0f 1e fa          	endbr64 
    4000449c:	48 83 ec 08          	sub    $0x8,%rsp
    400044a0:	48 83 c4 08          	add    $0x8,%rsp
    400044a4:	c3                   	ret    

Disassembly of section .rodata:

0000000040005000 <_IO_stdin_used>:
    40005000:	01 00                	add    %eax,(%rax)
    40005002:	02 00                	add    (%rax),%al
    40005004:	00 00                	add    %al,(%rax)
    40005006:	00 00                	add    %al,(%rax)
    40005008:	0a 46 61             	or     0x61(%rsi),%al
    4000500b:	69 6c 65 64 20 74 6f 	imul   $0x206f7420,0x64(%rbp,%riz,2),%ebp
    40005012:	20 
    40005013:	74 65                	je     4000507a <_IO_stdin_used+0x7a>
    40005015:	72 6d                	jb     40005084 <_IO_stdin_used+0x84>
    40005017:	69 6e 61 74 65 20 74 	imul   $0x74206574,0x61(%rsi),%ebp
    4000501e:	68 72 65 61 64       	push   $0x64616572
    40005023:	20 25 69 00 00 20    	and    %ah,0x20000069(%rip)        # 60005092 <_end+0x1f7e6f3a>
    40005029:	46 61                	rex.RX (bad) 
    4000502b:	6d                   	insl   (%dx),%es:(%rdi)
    4000502c:	69 6c 79 20 25 58 2c 	imul   $0x202c5825,0x20(%rcx,%rdi,2),%ebp
    40005033:	20 
    40005034:	4d 6f                	rex.WRB outsl %ds:(%rsi),(%dx)
    40005036:	64 65 6c             	fs gs insb (%dx),%es:(%rdi)
    40005039:	20 25 58 2c 20 4d    	and    %ah,0x4d202c58(%rip)        # 8d207c97 <_end+0x4c9e9b3f>
    4000503f:	46 61                	rex.RX (bad) 
    40005041:	6d                   	insl   (%dx),%es:(%rdi)
    40005042:	69 6c 79 20 25 58 00 	imul   $0x5825,0x20(%rcx,%rdi,2),%ebp
    40005049:	00 
    4000504a:	00 00                	add    %al,(%rax)
    4000504c:	00 00                	add    %al,(%rax)
    4000504e:	00 00                	add    %al,(%rax)
    40005050:	0a 54 68 72          	or     0x72(%rax,%rbp,2),%dl
    40005054:	65 61                	gs (bad) 
    40005056:	64 20 6e 75          	and    %ch,%fs:0x75(%rsi)
    4000505a:	6d                   	insl   (%dx),%es:(%rdi)
    4000505b:	62                   	(bad)  
    4000505c:	65 72 20             	gs jb  4000507f <_IO_stdin_used+0x7f>
    4000505f:	6f                   	outsl  %ds:(%rsi),(%dx)
    40005060:	75 74                	jne    400050d6 <_IO_stdin_used+0xd6>
    40005062:	20 6f 66             	and    %ch,0x66(%rdi)
    40005065:	20 72 61             	and    %dh,0x61(%rdx)
    40005068:	6e                   	outsb  %ds:(%rsi),(%dx)
    40005069:	67 65 20 25 69 00 00 	and    %ah,%gs:0xa000069(%eip)        # 4a0050da <_end+0x97e6f82>
    40005070:	0a 
    40005071:	46 61                	rex.RX (bad) 
    40005073:	69 6c 65 64 20 74 6f 	imul   $0x206f7420,0x64(%rbp,%riz,2),%ebp
    4000507a:	20 
    4000507b:	6c                   	insb   (%dx),%es:(%rdi)
    4000507c:	6f                   	outsl  %ds:(%rsi),(%dx)
    4000507d:	63 6b 20             	movsxd 0x20(%rbx),%ebp
    40005080:	74 68                	je     400050ea <_IO_stdin_used+0xea>
    40005082:	72 65                	jb     400050e9 <_IO_stdin_used+0xe9>
    40005084:	61                   	(bad)  
    40005085:	64 20 74 6f 20       	and    %dh,%fs:0x20(%rdi,%rbp,2)
    4000508a:	70 72                	jo     400050fe <_IO_stdin_used+0xfe>
    4000508c:	6f                   	outsl  %ds:(%rsi),(%dx)
    4000508d:	63 65 73             	movsxd 0x73(%rbp),%esp
    40005090:	73 6f                	jae    40005101 <_IO_stdin_used+0x101>
    40005092:	72 20                	jb     400050b4 <_IO_stdin_used+0xb4>
    40005094:	25 69 0a 00 43       	and    $0x43000a69,%eax
    40005099:	6f                   	outsl  %ds:(%rsi),(%dx)
    4000509a:	75 6e                	jne    4000510a <_IO_stdin_used+0x10a>
    4000509c:	74 65                	je     40005103 <_IO_stdin_used+0x103>
    4000509e:	72 20                	jb     400050c0 <_IO_stdin_used+0xc0>
    400050a0:	6e                   	outsb  %ds:(%rsi),(%dx)
    400050a1:	6f                   	outsl  %ds:(%rsi),(%dx)
    400050a2:	74 20                	je     400050c4 <_IO_stdin_used+0xc4>
    400050a4:	64 65 66 69 6e 65 64 	fs imul $0x2064,%gs:0x65(%rsi),%bp
    400050ab:	20 
    400050ac:	66 6f                	outsw  %ds:(%rsi),(%dx)
    400050ae:	72 20                	jb     400050d0 <_IO_stdin_used+0xd0>
    400050b0:	70 72                	jo     40005124 <_IO_stdin_used+0x124>
    400050b2:	65 73 65             	gs jae 4000511a <_IO_stdin_used+0x11a>
    400050b5:	6e                   	outsb  %ds:(%rsi),(%dx)
    400050b6:	74 20                	je     400050d8 <_IO_stdin_used+0xd8>
    400050b8:	6d                   	insl   (%dx),%es:(%rdi)
    400050b9:	69 63 72 6f 70 72 6f 	imul   $0x6f72706f,0x72(%rbx),%esp
    400050c0:	63 65 73             	movsxd 0x73(%rbp),%esp
    400050c3:	73 6f                	jae    40005134 <_IO_stdin_used+0x134>
    400050c5:	72 20                	jb     400050e7 <_IO_stdin_used+0xe7>
    400050c7:	66 61                	data16 (bad) 
    400050c9:	6d                   	insl   (%dx),%es:(%rdi)
    400050ca:	69 6c 79 00 00 00 4e 	imul   $0x6f4e0000,0x0(%rcx,%rdi,2),%ebp
    400050d1:	6f 
    400050d2:	20 63 6f             	and    %ah,0x6f(%rbx)
    400050d5:	75 6e                	jne    40005145 <_IO_stdin_used+0x145>
    400050d7:	74 65                	je     4000513e <_IO_stdin_used+0x13e>
    400050d9:	72 73                	jb     4000514e <_IO_stdin_used+0x14e>
    400050db:	20 64 65 66          	and    %ah,0x66(%rbp,%riz,2)
    400050df:	69 6e 65 64 20 66 6f 	imul   $0x6f662064,0x65(%rsi),%ebp
    400050e6:	72 20                	jb     40005108 <_IO_stdin_used+0x108>
    400050e8:	70 72                	jo     4000515c <_IO_stdin_used+0x15c>
    400050ea:	65 73 65             	gs jae 40005152 <_IO_stdin_used+0x152>
    400050ed:	6e                   	outsb  %ds:(%rsi),(%dx)
    400050ee:	74 20                	je     40005110 <_IO_stdin_used+0x110>
    400050f0:	6d                   	insl   (%dx),%es:(%rdi)
    400050f1:	69 63 72 6f 70 72 6f 	imul   $0x6f72706f,0x72(%rbx),%esp
    400050f8:	63 65 73             	movsxd 0x73(%rbp),%esp
    400050fb:	73 6f                	jae    4000516c <_IO_stdin_used+0x16c>
    400050fd:	72 20                	jb     4000511f <_IO_stdin_used+0x11f>
    400050ff:	66 61                	data16 (bad) 
    40005101:	6d                   	insl   (%dx),%es:(%rdi)
    40005102:	69 6c 79 00 00 00 43 	imul   $0x6f430000,0x0(%rcx,%rdi,2),%ebp
    40005109:	6f 
    4000510a:	75 6e                	jne    4000517a <_IO_stdin_used+0x17a>
    4000510c:	74 65                	je     40005173 <_IO_stdin_used+0x173>
    4000510e:	72 20                	jb     40005130 <_IO_stdin_used+0x130>
    40005110:	72 65                	jb     40005177 <_IO_stdin_used+0x177>
    40005112:	67 69 73 74 65 72 73 	imul   $0x20737265,0x74(%ebx),%esi
    40005119:	20 
    4000511a:	61                   	(bad)  
    4000511b:	72 65                	jb     40005182 <_IO_stdin_used+0x182>
    4000511d:	20 61 6c             	and    %ah,0x6c(%rcx)
    40005120:	72 65                	jb     40005187 <_IO_stdin_used+0x187>
    40005122:	61                   	(bad)  
    40005123:	64 79 20             	fs jns 40005146 <_IO_stdin_used+0x146>
    40005126:	69 6e 20 75 73 65 00 	imul   $0x657375,0x20(%rsi),%ebp
    4000512d:	00 00                	add    %al,(%rax)
    4000512f:	00 4e 6f             	add    %cl,0x6f(%rsi)
    40005132:	20 6d 61             	and    %ch,0x61(%rbp)
    40005135:	74 63                	je     4000519a <_IO_stdin_used+0x19a>
    40005137:	68 69 6e 67 20       	push   $0x20676e69
    4000513c:	63 6f 75             	movsxd 0x75(%rdi),%ebp
    4000513f:	6e                   	outsb  %ds:(%rsi),(%dx)
    40005140:	74 65                	je     400051a7 <_IO_stdin_used+0x1a7>
    40005142:	72 20                	jb     40005164 <_IO_stdin_used+0x164>
    40005144:	64 65 66 69 6e 69 74 	fs imul $0x6974,%gs:0x69(%rsi),%bp
    4000514b:	69 
    4000514c:	6f                   	outsl  %ds:(%rsi),(%dx)
    4000514d:	6e                   	outsb  %ds:(%rsi),(%dx)
    4000514e:	20 66 6f             	and    %ah,0x6f(%rsi)
    40005151:	75 6e                	jne    400051c1 <_IO_stdin_used+0x1c1>
    40005153:	64 00 00             	add    %al,%fs:(%rax)
    40005156:	00 00                	add    %al,(%rax)
    40005158:	0a 55 6e             	or     0x6e(%rbp),%dl
    4000515b:	6b 6e 6f 77          	imul   $0x77,0x6f(%rsi),%ebp
    4000515f:	6e                   	outsb  %ds:(%rsi),(%dx)
    40005160:	20 63 6f             	and    %ah,0x6f(%rbx)
    40005163:	6d                   	insl   (%dx),%es:(%rdi)
    40005164:	6d                   	insl   (%dx),%es:(%rdi)
    40005165:	61                   	(bad)  
    40005166:	6e                   	outsb  %ds:(%rsi),(%dx)
    40005167:	64 20 6c 69 6e       	and    %ch,%fs:0x6e(%rcx,%rbp,2)
    4000516c:	65 20 70 61          	and    %dh,%gs:0x61(%rax)
    40005170:	72 61                	jb     400051d3 <_IO_stdin_used+0x1d3>
    40005172:	6d                   	insl   (%dx),%es:(%rdi)
    40005173:	65 74 65             	gs je  400051db <_IO_stdin_used+0x1db>
    40005176:	72 20                	jb     40005198 <_IO_stdin_used+0x198>
    40005178:	25 73 0a 00 00       	and    $0xa73,%eax
    4000517d:	00 00                	add    %al,(%rax)
    4000517f:	00 0a                	add    %cl,(%rdx)
    40005181:	45 6e                	rex.RB outsb %ds:(%rsi),(%dx)
    40005183:	61                   	(bad)  
    40005184:	62                   	(bad)  
    40005185:	6c                   	insb   (%dx),%es:(%rdi)
    40005186:	65 64 20 25 69 20 63 	gs and %ah,%fs:0x6f632069(%rip)        # af6371f7 <_end+0x6ee1909f>
    4000518d:	6f 
    4000518e:	75 6e                	jne    400051fe <_IO_stdin_used+0x1fe>
    40005190:	74 65                	je     400051f7 <_IO_stdin_used+0x1f7>
    40005192:	72 73                	jb     40005207 <_IO_stdin_used+0x207>
    40005194:	20 69 6e             	and    %ch,0x6e(%rcx)
    40005197:	20 65 61             	and    %ah,0x61(%rbp)
    4000519a:	63 68 20             	movsxd 0x20(%rax),%ebp
    4000519d:	6f                   	outsl  %ds:(%rsi),(%dx)
    4000519e:	66 20 25 69 20 43 50 	data16 and %ah,0x50432069(%rip)        # 9043720e <_end+0x4fc190b6>
    400051a5:	55                   	push   %rbp
    400051a6:	20 63 6f             	and    %ah,0x6f(%rbx)
    400051a9:	72 65                	jb     40005210 <_IO_stdin_used+0x210>
    400051ab:	73 00                	jae    400051ad <_IO_stdin_used+0x1ad>
    400051ad:	00 00                	add    %al,(%rax)
    400051af:	00 0a                	add    %cl,(%rdx)
    400051b1:	44 69 73 61 62 6c 65 	imul   $0x64656c62,0x61(%rbx),%r14d
    400051b8:	64 
    400051b9:	20 25 69 20 63 6f    	and    %ah,0x6f632069(%rip)        # af637228 <_end+0x6ee190d0>
    400051bf:	75 6e                	jne    4000522f <_IO_stdin_used+0x22f>
    400051c1:	74 65                	je     40005228 <_IO_stdin_used+0x228>
    400051c3:	72 73                	jb     40005238 <_IO_stdin_used+0x238>
    400051c5:	20 69 6e             	and    %ch,0x6e(%rcx)
    400051c8:	20 65 61             	and    %ah,0x61(%rbp)
    400051cb:	63 68 20             	movsxd 0x20(%rax),%ebp
    400051ce:	6f                   	outsl  %ds:(%rsi),(%dx)
    400051cf:	66 20 25 69 20 43 50 	data16 and %ah,0x50432069(%rip)        # 9043723f <_end+0x4fc190e7>
    400051d6:	55                   	push   %rbp
    400051d7:	20 63 6f             	and    %ah,0x6f(%rbx)
    400051da:	72 65                	jb     40005241 <_IO_stdin_used+0x241>
    400051dc:	73 00                	jae    400051de <_IO_stdin_used+0x1de>
    400051de:	00 00                	add    %al,(%rax)
    400051e0:	23 54 68 72          	and    0x72(%rax,%rbp,2),%edx
    400051e4:	65 61                	gs (bad) 
    400051e6:	64 20 25 64 20 69 73 	and    %ah,%fs:0x73692064(%rip)        # b3697251 <_end+0x72e790f9>
    400051ed:	20 72 75             	and    %dh,0x75(%rdx)
    400051f0:	6e                   	outsb  %ds:(%rsi),(%dx)
    400051f1:	6e                   	outsb  %ds:(%rsi),(%dx)
    400051f2:	69 6e 67 20 6f 6e 20 	imul   $0x206e6f20,0x67(%rsi),%ebp
    400051f9:	63 6f 72             	movsxd 0x72(%rdi),%ebp
    400051fc:	65 20 4e 6f          	and    %cl,%gs:0x6f(%rsi)
    40005200:	2e 25 64 0a 00 00    	cs and $0xa64,%eax
    40005206:	00 00                	add    %al,(%rax)
    40005208:	0a 50 72             	or     0x72(%rax),%dl
    4000520b:	6f                   	outsl  %ds:(%rsi),(%dx)
    4000520c:	63 65 73             	movsxd 0x73(%rbp),%esp
    4000520f:	73 6f                	jae    40005280 <_IO_stdin_used+0x280>
    40005211:	72 20                	jb     40005233 <_IO_stdin_used+0x233>
    40005213:	25 69 20 6e 6f       	and    $0x6f6e2069,%eax
    40005218:	74 20                	je     4000523a <_IO_stdin_used+0x23a>
    4000521a:	61                   	(bad)  
    4000521b:	76 61                	jbe    4000527e <_IO_stdin_used+0x27e>
    4000521d:	69 6c 61 62 6c 65 2e 	imul   $0x202e656c,0x62(%rcx,%riz,2),%ebp
    40005224:	20 
    40005225:	50                   	push   %rax
    40005226:	72 6f                	jb     40005297 <_IO_stdin_used+0x297>
    40005228:	63 65 73             	movsxd 0x73(%rbp),%esp
    4000522b:	73 6f                	jae    4000529c <_IO_stdin_used+0x29c>
    4000522d:	72 73                	jb     400052a2 <_IO_stdin_used+0x2a2>
    4000522f:	20 61 76             	and    %ah,0x76(%rcx)
    40005232:	61                   	(bad)  
    40005233:	69 6c 61 62 6c 65 3a 	imul   $0xa3a656c,0x62(%rcx,%riz,2),%ebp
    4000523a:	0a 
    4000523b:	00 0a                	add    %cl,(%rdx)
    4000523d:	43 61                	rex.XB (bad) 
    4000523f:	6e                   	outsb  %ds:(%rsi),(%dx)
    40005240:	6e                   	outsb  %ds:(%rsi),(%dx)
    40005241:	6f                   	outsl  %ds:(%rsi),(%dx)
    40005242:	74 20                	je     40005264 <_IO_stdin_used+0x264>
    40005244:	6f                   	outsl  %ds:(%rsi),(%dx)
    40005245:	70 65                	jo     400052ac <_IO_stdin_used+0x2ac>
    40005247:	6e                   	outsb  %ds:(%rsi),(%dx)
    40005248:	20 64 65 76          	and    %ah,0x76(%rbp,%riz,2)
    4000524c:	69 63 65 20 25 73 0a 	imul   $0xa732520,0x65(%rbx),%esp
    40005253:	00 2f                	add    %ch,(%rdi)
    40005255:	64 65 76 2f          	fs gs jbe 40005288 <_IO_stdin_used+0x288>
    40005259:	4d 53                	rex.WRB push %r11
    4000525b:	52                   	push   %rdx
    4000525c:	64 72 76             	fs jb  400052d5 <_IO_stdin_used+0x2d5>
    4000525f:	00 0a                	add    %cl,(%rdx)
    40005261:	56                   	push   %rsi
    40005262:	65 6e                	outsb  %gs:(%rsi),(%dx)
    40005264:	64 6f                	outsl  %fs:(%rsi),(%dx)
    40005266:	72 20                	jb     40005288 <_IO_stdin_used+0x288>
    40005268:	3d 20 25 58 00       	cmp    $0x582520,%eax
    4000526d:	2c 20                	sub    $0x20,%al
    4000526f:	4e 75 6d             	rex.WRX jne 400052df <_IO_stdin_used+0x2df>
    40005272:	50                   	push   %rax
    40005273:	4d                   	rex.WRB
    40005274:	43 73 20             	rex.XB jae 40005297 <_IO_stdin_used+0x297>
    40005277:	25 58 2c 20 4e       	and    $0x4e202c58,%eax
    4000527c:	75 6d                	jne    400052eb <_IO_stdin_used+0x2eb>
    4000527e:	46 69 78 65 64 50 4d 	rex.RX imul $0x434d5064,0x65(%rax),%r15d
    40005285:	43 
    40005286:	73 20                	jae    400052a8 <_IO_stdin_used+0x2a8>
    40005288:	25 58 00 2c 20       	and    $0x202c0058,%eax
    4000528d:	4d 53                	rex.WRB push %r11
    4000528f:	63 68 65             	movsxd 0x65(%rax),%ebp
    40005292:	6d                   	insl   (%dx),%es:(%rdi)
    40005293:	65 20 25 58 0a 00 54 	and    %ah,%gs:0x54000a58(%rip)        # 94005cf2 <_end+0x537e7b9a>
    4000529a:	6f                   	outsl  %ds:(%rsi),(%dx)
    4000529b:	6f                   	outsl  %ds:(%rsi),(%dx)
    4000529c:	20 6d 61             	and    %ch,0x61(%rbp)
    4000529f:	6e                   	outsb  %ds:(%rsi),(%dx)
    400052a0:	79 20                	jns    400052c2 <_IO_stdin_used+0x2c2>
    400052a2:	63 6f 75             	movsxd 0x75(%rdi),%ebp
    400052a5:	6e                   	outsb  %ds:(%rsi),(%dx)
    400052a6:	74 65                	je     4000530d <_IO_stdin_used+0x30d>
    400052a8:	72 73                	jb     4000531d <_IO_stdin_used+0x31d>
    400052aa:	00 0a                	add    %cl,(%rdx)
    400052ac:	43 61                	rex.XB (bad) 
    400052ae:	6e                   	outsb  %ds:(%rsi),(%dx)
    400052af:	6e                   	outsb  %ds:(%rsi),(%dx)
    400052b0:	6f                   	outsl  %ds:(%rsi),(%dx)
    400052b1:	74 20                	je     400052d3 <_IO_stdin_used+0x2d3>
    400052b3:	6d                   	insl   (%dx),%es:(%rdi)
    400052b4:	61                   	(bad)  
    400052b5:	6b 65 20 63          	imul   $0x63,0x20(%rbp),%esp
    400052b9:	6f                   	outsl  %ds:(%rsi),(%dx)
    400052ba:	75 6e                	jne    4000532a <_IO_stdin_used+0x32a>
    400052bc:	74 65                	je     40005323 <_IO_stdin_used+0x323>
    400052be:	72 20                	jb     400052e0 <_IO_stdin_used+0x2e0>
    400052c0:	25 69 2e 20 25       	and    $0x25202e69,%eax
    400052c5:	73 0a                	jae    400052d1 <_IO_stdin_used+0x2d1>
    400052c7:	00 73 74             	add    %dh,0x74(%rbx)
    400052ca:	61                   	(bad)  
    400052cb:	72 74                	jb     40005341 <_IO_stdin_used+0x341>
    400052cd:	63 6f 75             	movsxd 0x75(%rdi),%ebp
    400052d0:	6e                   	outsb  %ds:(%rsi),(%dx)
    400052d1:	74 65                	je     40005338 <_IO_stdin_used+0x338>
    400052d3:	72 73                	jb     40005348 <_IO_stdin_used+0x348>
    400052d5:	00 73 74             	add    %dh,0x74(%rbx)
    400052d8:	6f                   	outsl  %ds:(%rsi),(%dx)
    400052d9:	70 63                	jo     4000533e <_IO_stdin_used+0x33e>
    400052db:	6f                   	outsl  %ds:(%rsi),(%dx)
    400052dc:	75 6e                	jne    4000534c <_IO_stdin_used+0x34c>
    400052de:	74 65                	je     40005345 <_IO_stdin_used+0x345>
    400052e0:	72 73                	jb     40005355 <_IO_stdin_used+0x355>
    400052e2:	00 0a                	add    %cl,(%rdx)
    400052e4:	73 63                	jae    40005349 <_IO_stdin_used+0x349>
    400052e6:	68 65 64 5f 67       	push   $0x675f6465
    400052eb:	65 74 61             	gs je  4000534f <_IO_stdin_used+0x34f>
    400052ee:	66 66 69 6e 69 74 79 	data16 imul $0x7974,0x69(%rsi),%bp
    400052f5:	20 66 61             	and    %ah,0x61(%rsi)
    400052f8:	69 6c 65 64 00 0a 0a 	imul   $0x500a0a00,0x64(%rbp,%riz,2),%ebp
    400052ff:	50 
    40005300:	4d                   	rex.WRB
    40005301:	43 20 6e 75          	rex.XB and %bpl,0x75(%r14)
    40005305:	6d                   	insl   (%dx),%es:(%rdi)
    40005306:	62                   	(bad)  
    40005307:	65 72 3a             	gs jb  40005344 <_IO_stdin_used+0x344>
    4000530a:	20 20                	and    %ah,(%rax)
    4000530c:	20 43 6f             	and    %al,0x6f(%rbx)
    4000530f:	75 6e                	jne    4000537f <_IO_stdin_used+0x37f>
    40005311:	74 65                	je     40005378 <_IO_stdin_used+0x378>
    40005313:	72 20                	jb     40005335 <_IO_stdin_used+0x335>
    40005315:	6e                   	outsb  %ds:(%rsi),(%dx)
    40005316:	61                   	(bad)  
    40005317:	6d                   	insl   (%dx),%es:(%rdi)
    40005318:	65 3a 00             	cmp    %gs:(%rax),%al
    4000531b:	0a 30                	or     (%rax),%dh
    4000531d:	78 25                	js     40005344 <_IO_stdin_used+0x344>
    4000531f:	30 38                	xor    %bh,(%rax)
    40005321:	58                   	pop    %rax
    40005322:	20 20                	and    %ah,(%rax)
    40005324:	20 20                	and    %ah,(%rax)
    40005326:	25 2d 31 30 73       	and    $0x7330312d,%eax
    4000532b:	20 00                	and    %al,(%rax)
    4000532d:	64 69 61 67 6e 6f 73 	imul   $0x74736f6e,%fs:0x67(%rcx),%esp
    40005334:	74 
    40005335:	69 63 73 00 0a 54 6f 	imul   $0x6f540a00,0x73(%rbx),%esp
    4000533c:	6f                   	outsl  %ds:(%rsi),(%dx)
    4000533d:	20 6d 61             	and    %ch,0x61(%rbp)
    40005340:	6e                   	outsb  %ds:(%rsi),(%dx)
    40005341:	79 20                	jns    40005363 <_IO_stdin_used+0x363>
    40005343:	74 68                	je     400053ad <_IO_stdin_used+0x3ad>
    40005345:	72 65                	jb     400053ac <_IO_stdin_used+0x3ac>
    40005347:	61                   	(bad)  
    40005348:	64 73 00             	fs jae 4000534b <_IO_stdin_used+0x34b>
    4000534b:	25 69 20 20 00       	and    $0x202069,%eax
    40005350:	0a 46 61             	or     0x61(%rsi),%al
    40005353:	69 6c 65 64 20 74 6f 	imul   $0x206f7420,0x64(%rbp,%riz,2),%ebp
    4000535a:	20 
    4000535b:	63 72 65             	movsxd 0x65(%rdx),%esi
    4000535e:	61                   	(bad)  
    4000535f:	74 65                	je     400053c6 <_IO_stdin_used+0x3c6>
    40005361:	20 74 68 72          	and    %dh,0x72(%rax,%rbp,2)
    40005365:	65 61                	gs (bad) 
    40005367:	64 20 25 69 00 0a 23 	and    %ah,%fs:0x230a0069(%rip)        # 630a53d7 <_end+0x2288727f>
    4000536e:	52                   	push   %rdx
    4000536f:	65 73 75             	gs jae 400053e7 <_IO_stdin_used+0x3e7>
    40005372:	6c                   	insb   (%dx),%es:(%rdi)
    40005373:	74 73                	je     400053e8 <_IO_stdin_used+0x3e8>
    40005375:	20 6f 6e             	and    %ch,0x6e(%rdi)
    40005378:	20 74 68 72          	and    %dh,0x72(%rax,%rbp,2)
    4000537c:	65 61                	gs (bad) 
    4000537e:	64 20 4e 6f          	and    %cl,%fs:0x6f(%rsi)
    40005382:	2e 25 64 3a 00 0a    	cs and $0xa003a64,%eax
    40005388:	23 25 31 30 69 20    	and    0x20693031(%rip),%esp        # 606983bf <_end+0x1fe7a267>
    4000538e:	00 69 6e             	add    %ch,0x6e(%rcx)
    40005391:	66 00 25 31 30 73 00 	data16 add %ah,0x733031(%rip)        # 407383c9 <UserData+0x72b0c9>
    40005398:	25 31 30 2e 36       	and    $0x362e3031,%eax
    4000539d:	66 20 00             	data16 and %al,(%rax)
    400053a0:	25 31 30 69 00       	and    $0x693031,%eax
    400053a5:	25 31 30 6c 6c       	and    $0x6c6c3031,%eax
    400053aa:	69 00 30 78 25 30    	imul   $0x30257830,(%rax),%eax
    400053b0:	38 58 00             	cmp    %bl,0x0(%rax)
    400053b3:	30 78 25             	xor    %bh,0x25(%rax)
    400053b6:	30 38                	xor    %bh,(%rax)
    400053b8:	58                   	pop    %rax
    400053b9:	25 30 38 58 00       	and    $0x583830,%eax
    400053be:	25 31 30 2e 36       	and    $0x362e3031,%eax
    400053c3:	66 00 75 6e          	data16 add %dh,0x6e(%rbp)
    400053c7:	6b 6e 6f 77          	imul   $0x77,0x6f(%rsi),%ebp
    400053cb:	6e                   	outsb  %ds:(%rsi),(%dx)
    400053cc:	20 54 65 6d          	and    %dl,0x6d(%rbp,%riz,2)
    400053d0:	70 4f                	jo     40005421 <_IO_stdin_used+0x421>
    400053d2:	75 74                	jne    40005448 <_IO_stdin_used+0x448>
    400053d4:	20 25 69 00 0a 23    	and    %ah,0x230a0069(%rip)        # 630a5443 <_end+0x228872eb>
    400053da:	43 6c                	rex.XB insb (%dx),%es:(%rdi)
    400053dc:	6f                   	outsl  %ds:(%rsi),(%dx)
    400053dd:	63 6b 20             	movsxd 0x20(%rbx),%ebp
    400053e0:	66 61                	data16 (bad) 
    400053e2:	63 74 6f 72          	movsxd 0x72(%rdi,%rbp,2),%esi
    400053e6:	20 25 2e 34 66 00    	and    %ah,0x66342e(%rip)        # 4066881a <UserData+0x65b51a>
    400053ec:	0a 0a                	or     (%rdx),%cl
    400053ee:	23 43 75             	and    0x75(%rbx),%eax
    400053f1:	73 74                	jae    40005467 <_IO_stdin_used+0x467>
    400053f3:	6f                   	outsl  %ds:(%rsi),(%dx)
    400053f4:	6d                   	insl   (%dx),%es:(%rdi)
    400053f5:	20 50 4d             	and    %dl,0x4d(%rax)
    400053f8:	43 6f                	rex.XB outsl %ds:(%rsi),(%dx)
    400053fa:	75 6e                	jne    4000546a <_IO_stdin_used+0x46a>
    400053fc:	74 65                	je     40005463 <_IO_stdin_used+0x463>
    400053fe:	72 20                	jb     40005420 <_IO_stdin_used+0x420>
    40005400:	72 65                	jb     40005467 <_IO_stdin_used+0x467>
    40005402:	73 75                	jae    40005479 <_IO_stdin_used+0x479>
    40005404:	6c                   	insb   (%dx),%es:(%rdi)
    40005405:	74 73                	je     4000547a <_IO_stdin_used+0x47a>
    40005407:	3a 00                	cmp    (%rax),%al
    40005409:	0a 25 31 30 69 20    	or     0x20693031(%rip),%ah        # 60698440 <_end+0x1fe7a2e8>
	...
    4000541f:	00 fa                	add    %bh,%dl
    40005421:	c4                   	(bad)  
    40005422:	ff                   	(bad)  
    40005423:	ff                   	(bad)  
    40005424:	ff                   	(bad)  
    40005425:	ff                   	(bad)  
    40005426:	ff                   	(bad)  
    40005427:	ff a1 c4 ff ff ff    	jmp    *-0x3c(%rcx)
    4000542d:	ff                   	(bad)  
    4000542e:	ff                   	(bad)  
    4000542f:	ff a1 c4 ff ff ff    	jmp    *-0x3c(%rcx)
    40005435:	ff                   	(bad)  
    40005436:	ff                   	(bad)  
    40005437:	ff a1 c4 ff ff ff    	jmp    *-0x3c(%rcx)
    4000543d:	ff                   	(bad)  
    4000543e:	ff                   	(bad)  
    4000543f:	ff                   	(bad)  
    40005440:	fa                   	cli    
    40005441:	c4                   	(bad)  
    40005442:	ff                   	(bad)  
    40005443:	ff                   	(bad)  
    40005444:	ff                   	(bad)  
    40005445:	ff                   	(bad)  
    40005446:	ff                   	(bad)  
    40005447:	ff                   	(bad)  
    40005448:	ee                   	out    %al,(%dx)
    40005449:	c4                   	(bad)  
    4000544a:	ff                   	(bad)  
    4000544b:	ff                   	(bad)  
    4000544c:	ff                   	(bad)  
    4000544d:	ff                   	(bad)  
    4000544e:	ff                   	(bad)  
    4000544f:	ff                   	(bad)  
    40005450:	78 c4                	js     40005416 <_IO_stdin_used+0x416>
    40005452:	ff                   	(bad)  
    40005453:	ff                   	(bad)  
    40005454:	ff                   	(bad)  
    40005455:	ff                   	(bad)  
    40005456:	ff                   	(bad)  
    40005457:	ff a1 c4 ff ff ff    	jmp    *-0x3c(%rcx)
    4000545d:	ff                   	(bad)  
    4000545e:	ff                   	(bad)  
    4000545f:	ff a1 c4 ff ff ff    	jmp    *-0x3c(%rcx)
    40005465:	ff                   	(bad)  
    40005466:	ff                   	(bad)  
    40005467:	ff a1 c4 ff ff ff    	jmp    *-0x3c(%rcx)
    4000546d:	ff                   	(bad)  
    4000546e:	ff                   	(bad)  
    4000546f:	ff a1 c4 ff ff ff    	jmp    *-0x3c(%rcx)
    40005475:	ff                   	(bad)  
    40005476:	ff                   	(bad)  
    40005477:	ff a1 c4 ff ff ff    	jmp    *-0x3c(%rcx)
    4000547d:	ff                   	(bad)  
    4000547e:	ff                   	(bad)  
    4000547f:	ff a1 c4 ff ff ff    	jmp    *-0x3c(%rcx)
    40005485:	ff                   	(bad)  
    40005486:	ff                   	(bad)  
    40005487:	ff                   	(bad)  
    40005488:	78 c4                	js     4000544e <_IO_stdin_used+0x44e>
    4000548a:	ff                   	(bad)  
    4000548b:	ff                   	(bad)  
    4000548c:	ff                   	(bad)  
    4000548d:	ff                   	(bad)  
    4000548e:	ff                   	(bad)  
    4000548f:	ff                   	(bad)  
    40005490:	78 c4                	js     40005456 <_IO_stdin_used+0x456>
    40005492:	ff                   	(bad)  
    40005493:	ff                   	(bad)  
    40005494:	ff                   	(bad)  
    40005495:	ff                   	(bad)  
    40005496:	ff                   	(bad)  
    40005497:	ff a1 c4 ff ff ff    	jmp    *-0x3c(%rcx)
    4000549d:	ff                   	(bad)  
    4000549e:	ff                   	(bad)  
    4000549f:	ff a1 c4 ff ff ff    	jmp    *-0x3c(%rcx)
    400054a5:	ff                   	(bad)  
    400054a6:	ff                   	(bad)  
    400054a7:	ff 6c c4 ff          	ljmp   *-0x1(%rsp,%rax,8)
    400054ab:	ff                   	(bad)  
    400054ac:	ff                   	(bad)  
    400054ad:	ff                   	(bad)  
    400054ae:	ff                   	(bad)  
    400054af:	ff a1 c4 ff ff ff    	jmp    *-0x3c(%rcx)
    400054b5:	ff                   	(bad)  
    400054b6:	ff                   	(bad)  
    400054b7:	ff 06                	incl   (%rsi)
    400054b9:	c5 ff ff             	(bad)  
    400054bc:	ff                   	(bad)  
    400054bd:	ff                   	(bad)  
    400054be:	ff                   	(bad)  
    400054bf:	ff                   	(bad)  
    400054c0:	78 c4                	js     40005486 <_IO_stdin_used+0x486>
    400054c2:	ff                   	(bad)  
    400054c3:	ff                   	(bad)  
    400054c4:	ff                   	(bad)  
    400054c5:	ff                   	(bad)  
    400054c6:	ff                   	(bad)  
    400054c7:	ff 6c c4 ff          	ljmp   *-0x1(%rsp,%rax,8)
    400054cb:	ff                   	(bad)  
    400054cc:	ff                   	(bad)  
    400054cd:	ff                   	(bad)  
    400054ce:	ff                   	(bad)  
    400054cf:	ff 6c c4 ff          	ljmp   *-0x1(%rsp,%rax,8)
    400054d3:	ff                   	(bad)  
    400054d4:	ff                   	(bad)  
    400054d5:	ff                   	(bad)  
    400054d6:	ff                   	(bad)  
    400054d7:	ff a1 c4 ff ff ff    	jmp    *-0x3c(%rcx)
    400054dd:	ff                   	(bad)  
    400054de:	ff                   	(bad)  
    400054df:	ff a1 c4 ff ff ff    	jmp    *-0x3c(%rcx)
    400054e5:	ff                   	(bad)  
    400054e6:	ff                   	(bad)  
    400054e7:	ff a1 c4 ff ff ff    	jmp    *-0x3c(%rcx)
    400054ed:	ff                   	(bad)  
    400054ee:	ff                   	(bad)  
    400054ef:	ff a1 c4 ff ff ff    	jmp    *-0x3c(%rcx)
    400054f5:	ff                   	(bad)  
    400054f6:	ff                   	(bad)  
    400054f7:	ff a1 c4 ff ff ff    	jmp    *-0x3c(%rcx)
    400054fd:	ff                   	(bad)  
    400054fe:	ff                   	(bad)  
    400054ff:	ff 6c c4 ff          	ljmp   *-0x1(%rsp,%rax,8)
    40005503:	ff                   	(bad)  
    40005504:	ff                   	(bad)  
    40005505:	ff                   	(bad)  
    40005506:	ff                   	(bad)  
    40005507:	ff 06                	incl   (%rsi)
    40005509:	c5 ff ff             	(bad)  
    4000550c:	ff                   	(bad)  
    4000550d:	ff                   	(bad)  
    4000550e:	ff                   	(bad)  
    4000550f:	ff 06                	incl   (%rsi)
    40005511:	c5 ff ff             	(bad)  
    40005514:	ff                   	(bad)  
    40005515:	ff                   	(bad)  
    40005516:	ff                   	(bad)  
    40005517:	ff a1 c4 ff ff ff    	jmp    *-0x3c(%rcx)
    4000551d:	ff                   	(bad)  
    4000551e:	ff                   	(bad)  
    4000551f:	ff a1 c4 ff ff ff    	jmp    *-0x3c(%rcx)
    40005525:	ff                   	(bad)  
    40005526:	ff                   	(bad)  
    40005527:	ff 60 c4             	jmp    *-0x3c(%rax)
    4000552a:	ff                   	(bad)  
    4000552b:	ff                   	(bad)  
    4000552c:	ff                   	(bad)  
    4000552d:	ff                   	(bad)  
    4000552e:	ff                   	(bad)  
    4000552f:	ff a1 c4 ff ff ff    	jmp    *-0x3c(%rcx)
    40005535:	ff                   	(bad)  
    40005536:	ff                   	(bad)  
    40005537:	ff 6c c4 ff          	ljmp   *-0x1(%rsp,%rax,8)
    4000553b:	ff                   	(bad)  
    4000553c:	ff                   	(bad)  
    4000553d:	ff                   	(bad)  
    4000553e:	ff                   	(bad)  
    4000553f:	ff 60 c4             	jmp    *-0x3c(%rax)
    40005542:	ff                   	(bad)  
    40005543:	ff                   	(bad)  
    40005544:	ff                   	(bad)  
    40005545:	ff                   	(bad)  
    40005546:	ff                   	(bad)  
    40005547:	ff 6c c4 ff          	ljmp   *-0x1(%rsp,%rax,8)
    4000554b:	ff                   	(bad)  
    4000554c:	ff                   	(bad)  
    4000554d:	ff                   	(bad)  
    4000554e:	ff                   	(bad)  
    4000554f:	ff 6c c4 ff          	ljmp   *-0x1(%rsp,%rax,8)
    40005553:	ff                   	(bad)  
    40005554:	ff                   	(bad)  
    40005555:	ff                   	(bad)  
    40005556:	ff                   	(bad)  
    40005557:	ff a1 c4 ff ff ff    	jmp    *-0x3c(%rcx)
    4000555d:	ff                   	(bad)  
    4000555e:	ff                   	(bad)  
    4000555f:	ff a1 c4 ff ff ff    	jmp    *-0x3c(%rcx)
    40005565:	ff                   	(bad)  
    40005566:	ff                   	(bad)  
    40005567:	ff a1 c4 ff ff ff    	jmp    *-0x3c(%rcx)
    4000556d:	ff                   	(bad)  
    4000556e:	ff                   	(bad)  
    4000556f:	ff a1 c4 ff ff ff    	jmp    *-0x3c(%rcx)
    40005575:	ff                   	(bad)  
    40005576:	ff                   	(bad)  
    40005577:	ff a1 c4 ff ff ff    	jmp    *-0x3c(%rcx)
    4000557d:	ff                   	(bad)  
    4000557e:	ff                   	(bad)  
    4000557f:	ff 06                	incl   (%rsi)
    40005581:	c5 ff ff             	(bad)  
    40005584:	ff                   	(bad)  
    40005585:	ff                   	(bad)  
    40005586:	ff                   	(bad)  
    40005587:	ff 06                	incl   (%rsi)
    40005589:	c5 ff ff             	(bad)  
    4000558c:	ff                   	(bad)  
    4000558d:	ff                   	(bad)  
    4000558e:	ff                   	(bad)  
    4000558f:	ff b2 c4 ff ff ff    	push   -0x3c(%rdx)
    40005595:	ff                   	(bad)  
    40005596:	ff                   	(bad)  
    40005597:	ff a1 c4 ff ff ff    	jmp    *-0x3c(%rcx)
    4000559d:	ff                   	(bad)  
    4000559e:	ff                   	(bad)  
    4000559f:	ff a1 c4 ff ff ff    	jmp    *-0x3c(%rcx)
    400055a5:	ff                   	(bad)  
    400055a6:	ff                   	(bad)  
    400055a7:	ff 60 c4             	jmp    *-0x3c(%rax)
    400055aa:	ff                   	(bad)  
    400055ab:	ff                   	(bad)  
    400055ac:	ff                   	(bad)  
    400055ad:	ff                   	(bad)  
    400055ae:	ff                   	(bad)  
    400055af:	ff a1 c4 ff ff ff    	jmp    *-0x3c(%rcx)
    400055b5:	ff                   	(bad)  
    400055b6:	ff                   	(bad)  
    400055b7:	ff 54 c4 ff          	call   *-0x1(%rsp,%rax,8)
    400055bb:	ff                   	(bad)  
    400055bc:	ff                   	(bad)  
    400055bd:	ff                   	(bad)  
    400055be:	ff                   	(bad)  
    400055bf:	ff 54 c4 ff          	call   *-0x1(%rsp,%rax,8)
    400055c3:	ff                   	(bad)  
    400055c4:	ff                   	(bad)  
    400055c5:	ff                   	(bad)  
    400055c6:	ff                   	(bad)  
    400055c7:	ff 60 c4             	jmp    *-0x3c(%rax)
    400055ca:	ff                   	(bad)  
    400055cb:	ff                   	(bad)  
    400055cc:	ff                   	(bad)  
    400055cd:	ff                   	(bad)  
    400055ce:	ff                   	(bad)  
    400055cf:	ff 54 c4 ff          	call   *-0x1(%rsp,%rax,8)
    400055d3:	ff                   	(bad)  
    400055d4:	ff                   	(bad)  
    400055d5:	ff                   	(bad)  
    400055d6:	ff                   	(bad)  
    400055d7:	ff a1 c4 ff ff ff    	jmp    *-0x3c(%rcx)
    400055dd:	ff                   	(bad)  
    400055de:	ff                   	(bad)  
    400055df:	ff a1 c4 ff ff ff    	jmp    *-0x3c(%rcx)
    400055e5:	ff                   	(bad)  
    400055e6:	ff                   	(bad)  
    400055e7:	ff a1 c4 ff ff ff    	jmp    *-0x3c(%rcx)
    400055ed:	ff                   	(bad)  
    400055ee:	ff                   	(bad)  
    400055ef:	ff a1 c4 ff ff ff    	jmp    *-0x3c(%rcx)
    400055f5:	ff                   	(bad)  
    400055f6:	ff                   	(bad)  
    400055f7:	ff a1 c4 ff ff ff    	jmp    *-0x3c(%rcx)
    400055fd:	ff                   	(bad)  
    400055fe:	ff                   	(bad)  
    400055ff:	ff 54 c4 ff          	call   *-0x1(%rsp,%rax,8)
    40005603:	ff                   	(bad)  
    40005604:	ff                   	(bad)  
    40005605:	ff                   	(bad)  
    40005606:	ff                   	(bad)  
    40005607:	ff 54 c4 ff          	call   *-0x1(%rsp,%rax,8)
    4000560b:	ff                   	(bad)  
    4000560c:	ff                   	(bad)  
    4000560d:	ff                   	(bad)  
    4000560e:	ff                   	(bad)  
    4000560f:	ff 54 c4 ff          	call   *-0x1(%rsp,%rax,8)
    40005613:	ff                   	(bad)  
    40005614:	ff                   	(bad)  
    40005615:	ff                   	(bad)  
    40005616:	ff                   	(bad)  
    40005617:	ff a1 c4 ff ff ff    	jmp    *-0x3c(%rcx)
    4000561d:	ff                   	(bad)  
    4000561e:	ff                   	(bad)  
    4000561f:	ff a1 c4 ff ff ff    	jmp    *-0x3c(%rcx)
    40005625:	ff                   	(bad)  
    40005626:	ff                   	(bad)  
    40005627:	ff b2 c4 ff ff ff    	push   -0x3c(%rdx)
    4000562d:	ff                   	(bad)  
    4000562e:	ff                   	(bad)  
    4000562f:	ff a1 c4 ff ff ff    	jmp    *-0x3c(%rcx)
    40005635:	ff                   	(bad)  
    40005636:	ff                   	(bad)  
    40005637:	ff a1 c4 ff ff ff    	jmp    *-0x3c(%rcx)
    4000563d:	ff                   	(bad)  
    4000563e:	ff                   	(bad)  
    4000563f:	ff b2 c4 ff ff ff    	push   -0x3c(%rdx)
    40005645:	ff                   	(bad)  
    40005646:	ff                   	(bad)  
    40005647:	ff a1 c4 ff ff ff    	jmp    *-0x3c(%rcx)
    4000564d:	ff                   	(bad)  
    4000564e:	ff                   	(bad)  
    4000564f:	ff 54 c4 ff          	call   *-0x1(%rsp,%rax,8)
    40005653:	ff                   	(bad)  
    40005654:	ff                   	(bad)  
    40005655:	ff                   	(bad)  
    40005656:	ff                   	(bad)  
    40005657:	ff a1 c4 ff ff ff    	jmp    *-0x3c(%rcx)
    4000565d:	ff                   	(bad)  
    4000565e:	ff                   	(bad)  
    4000565f:	ff a1 c4 ff ff ff    	jmp    *-0x3c(%rcx)
    40005665:	ff                   	(bad)  
    40005666:	ff                   	(bad)  
    40005667:	ff a1 c4 ff ff ff    	jmp    *-0x3c(%rcx)
    4000566d:	ff                   	(bad)  
    4000566e:	ff                   	(bad)  
    4000566f:	ff a1 c4 ff ff ff    	jmp    *-0x3c(%rcx)
    40005675:	ff                   	(bad)  
    40005676:	ff                   	(bad)  
    40005677:	ff a1 c4 ff ff ff    	jmp    *-0x3c(%rcx)
    4000567d:	ff                   	(bad)  
    4000567e:	ff                   	(bad)  
    4000567f:	ff e2                	jmp    *%rdx
    40005681:	c4                   	(bad)  
    40005682:	ff                   	(bad)  
    40005683:	ff                   	(bad)  
    40005684:	ff                   	(bad)  
    40005685:	ff                   	(bad)  
    40005686:	ff                   	(bad)  
    40005687:	ff 54 c4 ff          	call   *-0x1(%rsp,%rax,8)
    4000568b:	ff                   	(bad)  
    4000568c:	ff                   	(bad)  
    4000568d:	ff                   	(bad)  
    4000568e:	ff                   	(bad)  
    4000568f:	ff d6                	call   *%rsi
    40005691:	c4                   	(bad)  
    40005692:	ff                   	(bad)  
    40005693:	ff                   	(bad)  
    40005694:	ff                   	(bad)  
    40005695:	ff                   	(bad)  
    40005696:	ff                   	(bad)  
    40005697:	ff a1 c4 ff ff ff    	jmp    *-0x3c(%rcx)
    4000569d:	ff                   	(bad)  
    4000569e:	ff                   	(bad)  
    4000569f:	ff a1 c4 ff ff ff    	jmp    *-0x3c(%rcx)
    400056a5:	ff                   	(bad)  
    400056a6:	ff                   	(bad)  
    400056a7:	ff a1 c4 ff ff ff    	jmp    *-0x3c(%rcx)
    400056ad:	ff                   	(bad)  
    400056ae:	ff                   	(bad)  
    400056af:	ff a1 c4 ff ff ff    	jmp    *-0x3c(%rcx)
    400056b5:	ff                   	(bad)  
    400056b6:	ff                   	(bad)  
    400056b7:	ff ca                	dec    %edx
    400056b9:	c4                   	(bad)  
    400056ba:	ff                   	(bad)  
    400056bb:	ff                   	(bad)  
    400056bc:	ff                   	(bad)  
    400056bd:	ff                   	(bad)  
    400056be:	ff                   	(bad)  
    400056bf:	ff a1 c4 ff ff ff    	jmp    *-0x3c(%rcx)
    400056c5:	ff                   	(bad)  
    400056c6:	ff                   	(bad)  
    400056c7:	ff e2                	jmp    *%rdx
    400056c9:	c4                   	(bad)  
    400056ca:	ff                   	(bad)  
    400056cb:	ff                   	(bad)  
    400056cc:	ff                   	(bad)  
    400056cd:	ff                   	(bad)  
    400056ce:	ff                   	(bad)  
    400056cf:	ff ca                	dec    %edx
    400056d1:	c4                   	(bad)  
    400056d2:	ff                   	(bad)  
    400056d3:	ff                   	(bad)  
    400056d4:	ff                   	(bad)  
    400056d5:	ff                   	(bad)  
    400056d6:	ff                   	(bad)  
    400056d7:	ff a1 c4 ff ff ff    	jmp    *-0x3c(%rcx)
    400056dd:	ff                   	(bad)  
    400056de:	ff                   	(bad)  
    400056df:	ff a1 c4 ff ff ff    	jmp    *-0x3c(%rcx)
    400056e5:	ff                   	(bad)  
    400056e6:	ff                   	(bad)  
    400056e7:	ff a1 c4 ff ff ff    	jmp    *-0x3c(%rcx)
    400056ed:	ff                   	(bad)  
    400056ee:	ff                   	(bad)  
    400056ef:	ff a1 c4 ff ff ff    	jmp    *-0x3c(%rcx)
    400056f5:	ff                   	(bad)  
    400056f6:	ff                   	(bad)  
    400056f7:	ff a1 c4 ff ff ff    	jmp    *-0x3c(%rcx)
    400056fd:	ff                   	(bad)  
    400056fe:	ff                   	(bad)  
    400056ff:	ff a1 c4 ff ff ff    	jmp    *-0x3c(%rcx)
    40005705:	ff                   	(bad)  
    40005706:	ff                   	(bad)  
    40005707:	ff a1 c4 ff ff ff    	jmp    *-0x3c(%rcx)
    4000570d:	ff                   	(bad)  
    4000570e:	ff                   	(bad)  
    4000570f:	ff a1 c4 ff ff ff    	jmp    *-0x3c(%rcx)
    40005715:	ff                   	(bad)  
    40005716:	ff                   	(bad)  
    40005717:	ff a1 c4 ff ff ff    	jmp    *-0x3c(%rcx)
    4000571d:	ff                   	(bad)  
    4000571e:	ff                   	(bad)  
    4000571f:	ff a1 c4 ff ff ff    	jmp    *-0x3c(%rcx)
    40005725:	ff                   	(bad)  
    40005726:	ff                   	(bad)  
    40005727:	ff a1 c4 ff ff ff    	jmp    *-0x3c(%rcx)
    4000572d:	ff                   	(bad)  
    4000572e:	ff                   	(bad)  
    4000572f:	ff a1 c4 ff ff ff    	jmp    *-0x3c(%rcx)
    40005735:	ff                   	(bad)  
    40005736:	ff                   	(bad)  
    40005737:	ff a1 c4 ff ff ff    	jmp    *-0x3c(%rcx)
    4000573d:	ff                   	(bad)  
    4000573e:	ff                   	(bad)  
    4000573f:	ff a1 c4 ff ff ff    	jmp    *-0x3c(%rcx)
    40005745:	ff                   	(bad)  
    40005746:	ff                   	(bad)  
    40005747:	ff a1 c4 ff ff ff    	jmp    *-0x3c(%rcx)
    4000574d:	ff                   	(bad)  
    4000574e:	ff                   	(bad)  
    4000574f:	ff a1 c4 ff ff ff    	jmp    *-0x3c(%rcx)
    40005755:	ff                   	(bad)  
    40005756:	ff                   	(bad)  
    40005757:	ff a1 c4 ff ff ff    	jmp    *-0x3c(%rcx)
    4000575d:	ff                   	(bad)  
    4000575e:	ff                   	(bad)  
    4000575f:	ff a1 c4 ff ff ff    	jmp    *-0x3c(%rcx)
    40005765:	ff                   	(bad)  
    40005766:	ff                   	(bad)  
    40005767:	ff a1 c4 ff ff ff    	jmp    *-0x3c(%rcx)
    4000576d:	ff                   	(bad)  
    4000576e:	ff                   	(bad)  
    4000576f:	ff a1 c4 ff ff ff    	jmp    *-0x3c(%rcx)
    40005775:	ff                   	(bad)  
    40005776:	ff                   	(bad)  
    40005777:	ff a1 c4 ff ff ff    	jmp    *-0x3c(%rcx)
    4000577d:	ff                   	(bad)  
    4000577e:	ff                   	(bad)  
    4000577f:	ff a1 c4 ff ff ff    	jmp    *-0x3c(%rcx)
    40005785:	ff                   	(bad)  
    40005786:	ff                   	(bad)  
    40005787:	ff a1 c4 ff ff ff    	jmp    *-0x3c(%rcx)
    4000578d:	ff                   	(bad)  
    4000578e:	ff                   	(bad)  
    4000578f:	ff a1 c4 ff ff ff    	jmp    *-0x3c(%rcx)
    40005795:	ff                   	(bad)  
    40005796:	ff                   	(bad)  
    40005797:	ff a1 c4 ff ff ff    	jmp    *-0x3c(%rcx)
    4000579d:	ff                   	(bad)  
    4000579e:	ff                   	(bad)  
    4000579f:	ff a1 c4 ff ff ff    	jmp    *-0x3c(%rcx)
    400057a5:	ff                   	(bad)  
    400057a6:	ff                   	(bad)  
    400057a7:	ff ca                	dec    %edx
    400057a9:	c4                   	(bad)  
    400057aa:	ff                   	(bad)  
    400057ab:	ff                   	(bad)  
    400057ac:	ff                   	(bad)  
    400057ad:	ff                   	(bad)  
    400057ae:	ff                   	(bad)  
    400057af:	ff a1 c4 ff ff ff    	jmp    *-0x3c(%rcx)
    400057b5:	ff                   	(bad)  
    400057b6:	ff                   	(bad)  
    400057b7:	ff a1 c4 ff ff ff    	jmp    *-0x3c(%rcx)
    400057bd:	ff                   	(bad)  
    400057be:	ff                   	(bad)  
    400057bf:	ff a1 c4 ff ff ff    	jmp    *-0x3c(%rcx)
    400057c5:	ff                   	(bad)  
    400057c6:	ff                   	(bad)  
    400057c7:	ff a1 c4 ff ff ff    	jmp    *-0x3c(%rcx)
    400057cd:	ff                   	(bad)  
    400057ce:	ff                   	(bad)  
    400057cf:	ff a1 c4 ff ff ff    	jmp    *-0x3c(%rcx)
    400057d5:	ff                   	(bad)  
    400057d6:	ff                   	(bad)  
    400057d7:	ff a1 c4 ff ff ff    	jmp    *-0x3c(%rcx)
    400057dd:	ff                   	(bad)  
    400057de:	ff                   	(bad)  
    400057df:	ff a1 c4 ff ff ff    	jmp    *-0x3c(%rcx)
    400057e5:	ff                   	(bad)  
    400057e6:	ff                   	(bad)  
    400057e7:	ff a1 c4 ff ff ff    	jmp    *-0x3c(%rcx)
    400057ed:	ff                   	(bad)  
    400057ee:	ff                   	(bad)  
    400057ef:	ff a1 c4 ff ff ff    	jmp    *-0x3c(%rcx)
    400057f5:	ff                   	(bad)  
    400057f6:	ff                   	(bad)  
    400057f7:	ff a1 c4 ff ff ff    	jmp    *-0x3c(%rcx)
    400057fd:	ff                   	(bad)  
    400057fe:	ff                   	(bad)  
    400057ff:	ff a1 c4 ff ff ff    	jmp    *-0x3c(%rcx)
    40005805:	ff                   	(bad)  
    40005806:	ff                   	(bad)  
    40005807:	ff a1 c4 ff ff ff    	jmp    *-0x3c(%rcx)
    4000580d:	ff                   	(bad)  
    4000580e:	ff                   	(bad)  
    4000580f:	ff a1 c4 ff ff ff    	jmp    *-0x3c(%rcx)
    40005815:	ff                   	(bad)  
    40005816:	ff                   	(bad)  
    40005817:	ff a1 c4 ff ff ff    	jmp    *-0x3c(%rcx)
    4000581d:	ff                   	(bad)  
    4000581e:	ff                   	(bad)  
    4000581f:	ff a1 c4 ff ff ff    	jmp    *-0x3c(%rcx)
    40005825:	ff                   	(bad)  
    40005826:	ff                   	(bad)  
    40005827:	ff a1 c4 ff ff ff    	jmp    *-0x3c(%rcx)
    4000582d:	ff                   	(bad)  
    4000582e:	ff                   	(bad)  
    4000582f:	ff a1 c4 ff ff ff    	jmp    *-0x3c(%rcx)
    40005835:	ff                   	(bad)  
    40005836:	ff                   	(bad)  
    40005837:	ff                   	(bad)  
    40005838:	be c4 ff ff ff       	mov    $0xffffffc4,%esi
    4000583d:	ff                   	(bad)  
    4000583e:	ff                   	(bad)  
    4000583f:	ff a1 c4 ff ff ff    	jmp    *-0x3c(%rcx)
    40005845:	ff                   	(bad)  
    40005846:	ff                   	(bad)  
    40005847:	ff a1 c4 ff ff ff    	jmp    *-0x3c(%rcx)
    4000584d:	ff                   	(bad)  
    4000584e:	ff                   	(bad)  
    4000584f:	ff a1 c4 ff ff ff    	jmp    *-0x3c(%rcx)
    40005855:	ff                   	(bad)  
    40005856:	ff                   	(bad)  
    40005857:	ff a1 c4 ff ff ff    	jmp    *-0x3c(%rcx)
    4000585d:	ff                   	(bad)  
    4000585e:	ff                   	(bad)  
    4000585f:	ff a1 c4 ff ff ff    	jmp    *-0x3c(%rcx)
    40005865:	ff                   	(bad)  
    40005866:	ff                   	(bad)  
    40005867:	ff a1 c4 ff ff ff    	jmp    *-0x3c(%rcx)
    4000586d:	ff                   	(bad)  
    4000586e:	ff                   	(bad)  
    4000586f:	ff a1 c4 ff ff ff    	jmp    *-0x3c(%rcx)
    40005875:	ff                   	(bad)  
    40005876:	ff                   	(bad)  
    40005877:	ff a1 c4 ff ff ff    	jmp    *-0x3c(%rcx)
    4000587d:	ff                   	(bad)  
    4000587e:	ff                   	(bad)  
    4000587f:	ff a1 c4 ff ff ff    	jmp    *-0x3c(%rcx)
    40005885:	ff                   	(bad)  
    40005886:	ff                   	(bad)  
    40005887:	ff a1 c4 ff ff ff    	jmp    *-0x3c(%rcx)
    4000588d:	ff                   	(bad)  
    4000588e:	ff                   	(bad)  
    4000588f:	ff 95 c4 ff ff ff    	call   *-0x3c(%rbp)
    40005895:	ff                   	(bad)  
    40005896:	ff                   	(bad)  
    40005897:	ff a1 c4 ff ff ff    	jmp    *-0x3c(%rcx)
    4000589d:	ff                   	(bad)  
    4000589e:	ff                   	(bad)  
    4000589f:	ff a1 c4 ff ff ff    	jmp    *-0x3c(%rcx)
    400058a5:	ff                   	(bad)  
    400058a6:	ff                   	(bad)  
    400058a7:	ff 95 c4 ff ff ff    	call   *-0x3c(%rbp)
    400058ad:	ff                   	(bad)  
    400058ae:	ff                   	(bad)  
    400058af:	ff f3                	push   %rbx
    400058b1:	ce                   	(bad)  
    400058b2:	ff                   	(bad)  
    400058b3:	ff                   	(bad)  
    400058b4:	ff                   	(bad)  
    400058b5:	ff                   	(bad)  
    400058b6:	ff                   	(bad)  
    400058b7:	ff                   	(bad)  
    400058b8:	bb cf ff ff ff       	mov    $0xffffffcf,%ebx
    400058bd:	ff                   	(bad)  
    400058be:	ff                   	(bad)  
    400058bf:	ff af cf ff ff ff    	ljmp   *-0x31(%rdi)
    400058c5:	ff                   	(bad)  
    400058c6:	ff                   	(bad)  
    400058c7:	ff f3                	push   %rbx
    400058c9:	ce                   	(bad)  
    400058ca:	ff                   	(bad)  
    400058cb:	ff                   	(bad)  
    400058cc:	ff                   	(bad)  
    400058cd:	ff                   	(bad)  
    400058ce:	ff                   	(bad)  
    400058cf:	ff af cf ff ff ff    	ljmp   *-0x31(%rdi)
    400058d5:	ff                   	(bad)  
    400058d6:	ff                   	(bad)  
    400058d7:	ff f3                	push   %rbx
    400058d9:	ce                   	(bad)  
    400058da:	ff                   	(bad)  
    400058db:	ff                   	(bad)  
    400058dc:	ff                   	(bad)  
    400058dd:	ff                   	(bad)  
    400058de:	ff                   	(bad)  
    400058df:	ff f3                	push   %rbx
    400058e1:	ce                   	(bad)  
    400058e2:	ff                   	(bad)  
    400058e3:	ff                   	(bad)  
    400058e4:	ff                   	(bad)  
    400058e5:	ff                   	(bad)  
    400058e6:	ff                   	(bad)  
    400058e7:	ff f3                	push   %rbx
    400058e9:	ce                   	(bad)  
    400058ea:	ff                   	(bad)  
    400058eb:	ff                   	(bad)  
    400058ec:	ff                   	(bad)  
    400058ed:	ff                   	(bad)  
    400058ee:	ff                   	(bad)  
    400058ef:	ff a3 cf ff ff ff    	jmp    *-0x31(%rbx)
    400058f5:	ff                   	(bad)  
    400058f6:	ff                   	(bad)  
    400058f7:	ff f3                	push   %rbx
    400058f9:	ce                   	(bad)  
    400058fa:	ff                   	(bad)  
    400058fb:	ff                   	(bad)  
    400058fc:	ff                   	(bad)  
    400058fd:	ff                   	(bad)  
    400058fe:	ff                   	(bad)  
    400058ff:	ff f3                	push   %rbx
    40005901:	ce                   	(bad)  
    40005902:	ff                   	(bad)  
    40005903:	ff                   	(bad)  
    40005904:	ff                   	(bad)  
    40005905:	ff                   	(bad)  
    40005906:	ff                   	(bad)  
    40005907:	ff f3                	push   %rbx
    40005909:	ce                   	(bad)  
    4000590a:	ff                   	(bad)  
    4000590b:	ff                   	(bad)  
    4000590c:	ff                   	(bad)  
    4000590d:	ff                   	(bad)  
    4000590e:	ff                   	(bad)  
    4000590f:	ff f3                	push   %rbx
    40005911:	ce                   	(bad)  
    40005912:	ff                   	(bad)  
    40005913:	ff                   	(bad)  
    40005914:	ff                   	(bad)  
    40005915:	ff                   	(bad)  
    40005916:	ff                   	(bad)  
    40005917:	ff f3                	push   %rbx
    40005919:	ce                   	(bad)  
    4000591a:	ff                   	(bad)  
    4000591b:	ff                   	(bad)  
    4000591c:	ff                   	(bad)  
    4000591d:	ff                   	(bad)  
    4000591e:	ff                   	(bad)  
    4000591f:	ff f3                	push   %rbx
    40005921:	ce                   	(bad)  
    40005922:	ff                   	(bad)  
    40005923:	ff                   	(bad)  
    40005924:	ff                   	(bad)  
    40005925:	ff                   	(bad)  
    40005926:	ff                   	(bad)  
    40005927:	ff f3                	push   %rbx
    40005929:	ce                   	(bad)  
    4000592a:	ff                   	(bad)  
    4000592b:	ff                   	(bad)  
    4000592c:	ff                   	(bad)  
    4000592d:	ff                   	(bad)  
    4000592e:	ff                   	(bad)  
    4000592f:	ff 97 cf ff ff ff    	call   *-0x31(%rdi)
    40005935:	ff                   	(bad)  
    40005936:	ff                   	(bad)  
    40005937:	ff f3                	push   %rbx
    40005939:	ce                   	(bad)  
    4000593a:	ff                   	(bad)  
    4000593b:	ff                   	(bad)  
    4000593c:	ff                   	(bad)  
    4000593d:	ff                   	(bad)  
    4000593e:	ff                   	(bad)  
    4000593f:	ff f3                	push   %rbx
    40005941:	ce                   	(bad)  
    40005942:	ff                   	(bad)  
    40005943:	ff                   	(bad)  
    40005944:	ff                   	(bad)  
    40005945:	ff                   	(bad)  
    40005946:	ff                   	(bad)  
    40005947:	ff f3                	push   %rbx
    40005949:	ce                   	(bad)  
    4000594a:	ff                   	(bad)  
    4000594b:	ff                   	(bad)  
    4000594c:	ff                   	(bad)  
    4000594d:	ff                   	(bad)  
    4000594e:	ff                   	(bad)  
    4000594f:	ff f3                	push   %rbx
    40005951:	ce                   	(bad)  
    40005952:	ff                   	(bad)  
    40005953:	ff                   	(bad)  
    40005954:	ff                   	(bad)  
    40005955:	ff                   	(bad)  
    40005956:	ff                   	(bad)  
    40005957:	ff f3                	push   %rbx
    40005959:	ce                   	(bad)  
    4000595a:	ff                   	(bad)  
    4000595b:	ff                   	(bad)  
    4000595c:	ff                   	(bad)  
    4000595d:	ff                   	(bad)  
    4000595e:	ff                   	(bad)  
    4000595f:	ff f3                	push   %rbx
    40005961:	ce                   	(bad)  
    40005962:	ff                   	(bad)  
    40005963:	ff                   	(bad)  
    40005964:	ff                   	(bad)  
    40005965:	ff                   	(bad)  
    40005966:	ff                   	(bad)  
    40005967:	ff f3                	push   %rbx
    40005969:	ce                   	(bad)  
    4000596a:	ff                   	(bad)  
    4000596b:	ff                   	(bad)  
    4000596c:	ff                   	(bad)  
    4000596d:	ff                   	(bad)  
    4000596e:	ff                   	(bad)  
    4000596f:	ff f3                	push   %rbx
    40005971:	ce                   	(bad)  
    40005972:	ff                   	(bad)  
    40005973:	ff                   	(bad)  
    40005974:	ff                   	(bad)  
    40005975:	ff                   	(bad)  
    40005976:	ff                   	(bad)  
    40005977:	ff f3                	push   %rbx
    40005979:	ce                   	(bad)  
    4000597a:	ff                   	(bad)  
    4000597b:	ff                   	(bad)  
    4000597c:	ff                   	(bad)  
    4000597d:	ff                   	(bad)  
    4000597e:	ff                   	(bad)  
    4000597f:	ff f3                	push   %rbx
    40005981:	ce                   	(bad)  
    40005982:	ff                   	(bad)  
    40005983:	ff                   	(bad)  
    40005984:	ff                   	(bad)  
    40005985:	ff                   	(bad)  
    40005986:	ff                   	(bad)  
    40005987:	ff f3                	push   %rbx
    40005989:	ce                   	(bad)  
    4000598a:	ff                   	(bad)  
    4000598b:	ff                   	(bad)  
    4000598c:	ff                   	(bad)  
    4000598d:	ff                   	(bad)  
    4000598e:	ff                   	(bad)  
    4000598f:	ff f3                	push   %rbx
    40005991:	ce                   	(bad)  
    40005992:	ff                   	(bad)  
    40005993:	ff                   	(bad)  
    40005994:	ff                   	(bad)  
    40005995:	ff                   	(bad)  
    40005996:	ff                   	(bad)  
    40005997:	ff f3                	push   %rbx
    40005999:	ce                   	(bad)  
    4000599a:	ff                   	(bad)  
    4000599b:	ff                   	(bad)  
    4000599c:	ff                   	(bad)  
    4000599d:	ff                   	(bad)  
    4000599e:	ff                   	(bad)  
    4000599f:	ff f3                	push   %rbx
    400059a1:	ce                   	(bad)  
    400059a2:	ff                   	(bad)  
    400059a3:	ff                   	(bad)  
    400059a4:	ff                   	(bad)  
    400059a5:	ff                   	(bad)  
    400059a6:	ff                   	(bad)  
    400059a7:	ff f3                	push   %rbx
    400059a9:	ce                   	(bad)  
    400059aa:	ff                   	(bad)  
    400059ab:	ff                   	(bad)  
    400059ac:	ff                   	(bad)  
    400059ad:	ff                   	(bad)  
    400059ae:	ff                   	(bad)  
    400059af:	ff 8b cf ff ff ff    	decl   -0x31(%rbx)
    400059b5:	ff                   	(bad)  
    400059b6:	ff                   	(bad)  
    400059b7:	ff 04 b9             	incl   (%rcx,%rdi,4)
    400059ba:	ff                   	(bad)  
    400059bb:	ff                   	(bad)  
    400059bc:	ff                   	(bad)  
    400059bd:	ff                   	(bad)  
    400059be:	ff                   	(bad)  
    400059bf:	ff 04 b9             	incl   (%rcx,%rdi,4)
    400059c2:	ff                   	(bad)  
    400059c3:	ff                   	(bad)  
    400059c4:	ff                   	(bad)  
    400059c5:	ff                   	(bad)  
    400059c6:	ff                   	(bad)  
    400059c7:	ff 15 b7 ff ff ff    	call   *-0x49(%rip)        # 40005984 <_IO_stdin_used+0x984>
    400059cd:	ff                   	(bad)  
    400059ce:	ff                   	(bad)  
    400059cf:	ff                   	(bad)  
    400059d0:	ea                   	(bad)  
    400059d1:	b6 ff                	mov    $0xff,%dh
    400059d3:	ff                   	(bad)  
    400059d4:	ff                   	(bad)  
    400059d5:	ff                   	(bad)  
    400059d6:	ff                   	(bad)  
    400059d7:	ff 83 b7 ff ff ff    	incl   -0x49(%rbx)
    400059dd:	ff                   	(bad)  
    400059de:	ff                   	(bad)  
    400059df:	ff 55 b7             	call   *-0x49(%rbp)
    400059e2:	ff                   	(bad)  
    400059e3:	ff                   	(bad)  
    400059e4:	ff                   	(bad)  
    400059e5:	ff                   	(bad)  
    400059e6:	ff                   	(bad)  
    400059e7:	ff 48 b7             	decl   -0x49(%rax)
    400059ea:	ff                   	(bad)  
    400059eb:	ff                   	(bad)  
    400059ec:	ff                   	(bad)  
    400059ed:	ff                   	(bad)  
    400059ee:	ff                   	(bad)  
    400059ef:	ff                   	(bad)  
    400059f0:	3f                   	(bad)  
    400059f1:	b7 ff                	mov    $0xff,%bh
    400059f3:	ff                   	(bad)  
    400059f4:	ff                   	(bad)  
    400059f5:	ff                   	(bad)  
    400059f6:	ff                   	(bad)  
    400059f7:	ff 41 b6             	incl   -0x4a(%rcx)
    400059fa:	ff                   	(bad)  
    400059fb:	ff                   	(bad)  
    400059fc:	ff                   	(bad)  
    400059fd:	ff                   	(bad)  
    400059fe:	ff                   	(bad)  
    400059ff:	ff         	push   -0x4bfffffd(%rdx)

0000000040005a00 <_ZZN9CCounters26GetP4EventSelectRegAddressEiiE17TranslationTables>:
    40005a00:	b2 03                	mov    $0x3,%dl
    40005a02:	00 00                	add    %al,(%rax)
    40005a04:	b4 03                	mov    $0x3,%ah
    40005a06:	00 00                	add    %al,(%rax)
    40005a08:	aa                   	stos   %al,%es:(%rdi)
    40005a09:	03 00                	add    (%rax),%eax
    40005a0b:	00 b6 03 00 00 ac    	add    %dh,-0x53fffffd(%rsi)
    40005a11:	03 00                	add    (%rax),%eax
    40005a13:	00 c8                	add    %cl,%al
    40005a15:	03 00                	add    (%rax),%eax
    40005a17:	00 a2 03 00 00 a0    	add    %ah,-0x5ffffffd(%rdx)
    40005a1d:	03 00                	add    (%rax),%eax
    40005a1f:	00 c0                	add    %al,%al
    40005a21:	03 00                	add    (%rax),%eax
    40005a23:	00 c4                	add    %al,%ah
    40005a25:	03 00                	add    (%rax),%eax
    40005a27:	00 c2                	add    %al,%dl
    40005a29:	03 00                	add    (%rax),%eax
    40005a2b:	00 ff                	add    %bh,%bh
    40005a2d:	ff                   	(bad)  
    40005a2e:	ff                   	(bad)  
    40005a2f:	ff                   	(bad)  
    40005a30:	ff                   	(bad)  
    40005a31:	ff                   	(bad)  
    40005a32:	ff                   	(bad)  
    40005a33:	ff                   	(bad)  
    40005a34:	ff                   	(bad)  
    40005a35:	ff                   	(bad)  
    40005a36:	ff                   	(bad)  
    40005a37:	ff                   	(bad)  
    40005a38:	ff                   	(bad)  
    40005a39:	ff                   	(bad)  
    40005a3a:	ff                   	(bad)  
    40005a3b:	ff                   	(bad)  
    40005a3c:	ff                   	(bad)  
    40005a3d:	ff                   	(bad)  
    40005a3e:	ff                   	(bad)  
    40005a3f:	ff a6 03 00 00 a4    	jmp    *-0x5bfffffd(%rsi)
    40005a45:	03 00                	add    (%rax),%eax
    40005a47:	00 ae 03 00 00 b0    	add    %ch,-0x4ffffffd(%rsi)
    40005a4d:	03 00                	add    (%rax),%eax
    40005a4f:	00 ff                	add    %bh,%bh
    40005a51:	ff                   	(bad)  
    40005a52:	ff                   	(bad)  
    40005a53:	ff a8 03 00 00 ff    	ljmp   *-0xfffffd(%rax)
    40005a59:	ff                   	(bad)  
    40005a5a:	ff                   	(bad)  
    40005a5b:	ff                   	(bad)  
    40005a5c:	ff                   	(bad)  
    40005a5d:	ff                   	(bad)  
    40005a5e:	ff                   	(bad)  
    40005a5f:	ff                   	(bad)  
    40005a60:	ba 03 00 00 ca       	mov    $0xca000003,%edx
    40005a65:	03 00                	add    (%rax),%eax
    40005a67:	00 bc 03 00 00 be 03 	add    %bh,0x3be0000(%rbx,%rax,1)
    40005a6e:	00 00                	add    %al,(%rax)
    40005a70:	b8 03 00 00 cc       	mov    $0xcc000003,%eax
    40005a75:	03 00                	add    (%rax),%eax
    40005a77:	00 e0                	add    %ah,%al
    40005a79:	03 00                	add    (%rax),%eax
    40005a7b:	00 ff                	add    %bh,%bh
    40005a7d:	ff                   	(bad)  
    40005a7e:	ff                   	(bad)  
    40005a7f:	ff 00                	incl   (%rax)
    40005a81:	00 00                	add    %al,(%rax)
    40005a83:	00 00                	add    %al,(%rax)
    40005a85:	00 f0                	add    %dh,%al
    40005a87:	3f                   	(bad)  
    40005a88:	00 00                	add    %al,(%rax)
    40005a8a:	00 00                	add    %al,(%rax)
    40005a8c:	00 00                	add    %al,(%rax)
    40005a8e:	e0 3f                	loopne 40005acf <__GNU_EH_FRAME_HDR+0x3f>

Disassembly of section .eh_frame_hdr:

0000000040005a90 <__GNU_EH_FRAME_HDR>:
    40005a90:	01 1b                	add    %ebx,(%rbx)
    40005a92:	03 3b                	add    (%rbx),%edi
    40005a94:	2c 01                	sub    $0x1,%al
    40005a96:	00 00                	add    %al,(%rax)
    40005a98:	24 00                	and    $0x0,%al
    40005a9a:	00 00                	add    %al,(%rax)
    40005a9c:	90                   	nop
    40005a9d:	b5 3f                	mov    $0x3f,%ch
    40005a9f:	c0 70 01 00          	shlb   $0x0,0x1(%rax)
    40005aa3:	00 bb ab ff ff ec    	add    %bh,-0x13000055(%rbx)
    40005aa9:	06                   	(bad)  
    40005aaa:	00 00                	add    %al,(%rax)
    40005aac:	00 ac ff ff 60 06 00 	add    %ch,0x660ff(%rdi,%rdi,8)
    40005ab3:	00 40 ba             	add    %al,-0x46(%rax)
    40005ab6:	ff                   	(bad)  
    40005ab7:	ff 1c 07             	lcall  *(%rdi,%rax,1)
    40005aba:	00 00                	add    %al,(%rax)
    40005abc:	b0 ba                	mov    $0xba,%al
    40005abe:	ff                   	(bad)  
    40005abf:	ff e4                	jmp    *%rsp
    40005ac1:	01 00                	add    %eax,(%rax)
    40005ac3:	00 60 bb             	add    %ah,-0x45(%rax)
    40005ac6:	ff                   	(bad)  
    40005ac7:	ff 20                	jmp    *(%rax)
    40005ac9:	02 00                	add    (%rax),%al
    40005acb:	00 00                	add    %al,(%rax)
    40005acd:	bc ff ff 54 02       	mov    $0x254ffff,%esp
    40005ad2:	00 00                	add    %al,(%rax)
    40005ad4:	70 bc                	jo     40005a92 <__GNU_EH_FRAME_HDR+0x2>
    40005ad6:	ff                   	(bad)  
    40005ad7:	ff 74 02 00          	push   0x0(%rdx,%rax,1)
    40005adb:	00 c0                	add    %al,%al
    40005add:	be ff ff a4 02       	mov    $0x2a4ffff,%esi
    40005ae2:	00 00                	add    %al,(%rax)
    40005ae4:	30 bf ff ff c4 02    	xor    %bh,0x2c4ffff(%rdi)
    40005aea:	00 00                	add    %al,(%rax)
    40005aec:	b0 c1                	mov    $0xc1,%al
    40005aee:	ff                   	(bad)  
    40005aef:	ff 14 03             	call   *(%rbx,%rax,1)
    40005af2:	00 00                	add    %al,(%rax)
    40005af4:	e0 c1                	loopne 40005ab7 <__GNU_EH_FRAME_HDR+0x27>
    40005af6:	ff                   	(bad)  
    40005af7:	ff 28                	ljmp   *(%rax)
    40005af9:	03 00                	add    (%rax),%eax
    40005afb:	00 30                	add    %dh,(%rax)
    40005afd:	c2 ff ff             	ret    $0xffff
    40005b00:	3c 03                	cmp    $0x3,%al
    40005b02:	00 00                	add    %al,(%rax)
    40005b04:	60                   	(bad)  
    40005b05:	c3                   	ret    
    40005b06:	ff                   	(bad)  
    40005b07:	ff 50 03             	call   *0x3(%rax)
    40005b0a:	00 00                	add    %al,(%rax)
    40005b0c:	10 c5                	adc    %al,%ch
    40005b0e:	ff                   	(bad)  
    40005b0f:	ff 74 03 00          	push   0x0(%rbx,%rax,1)
    40005b13:	00 60 c5             	add    %ah,-0x3b(%rax)
    40005b16:	ff                   	(bad)  
    40005b17:	ff 88 03 00 00 30    	decl   0x30000003(%rax)
    40005b1d:	c8 ff ff d0          	enter  $0xffff,$0xd0
    40005b21:	03 00                	add    (%rax),%eax
    40005b23:	00 b0 c8 ff ff f8    	add    %dh,-0x7000038(%rax)
    40005b29:	03 00                	add    (%rax),%eax
    40005b2b:	00 30                	add    %dh,(%rax)
    40005b2d:	c9                   	leave  
    40005b2e:	ff                   	(bad)  
    40005b2f:	ff 20                	jmp    *(%rax)
    40005b31:	04 00                	add    $0x0,%al
    40005b33:	00 a0 c9 ff ff 34    	add    %ah,0x34ffffc9(%rax)
    40005b39:	04 00                	add    $0x0,%al
    40005b3b:	00 10                	add    %dl,(%rax)
    40005b3d:	ca ff ff             	lret   $0xffff
    40005b40:	48 04 00             	rex.W add $0x0,%al
    40005b43:	00 60 ca             	add    %ah,-0x36(%rax)
    40005b46:	ff                   	(bad)  
    40005b47:	ff 5c 04 00          	lcall  *0x0(%rsp,%rax,1)
    40005b4b:	00 b0 ca ff ff 70    	add    %dh,0x70ffffca(%rax)
    40005b51:	04 00                	add    $0x0,%al
    40005b53:	00 60 cb             	add    %ah,-0x35(%rax)
    40005b56:	ff                   	(bad)  
    40005b57:	ff 9c 04 00 00 b0 cb 	lcall  *-0x34500000(%rsp,%rax,1)
    40005b5e:	ff                   	(bad)  
    40005b5f:	ff                   	(bad)  
    40005b60:	bc 04 00 00 f0       	mov    $0xf0000004,%esp
    40005b65:	cd ff                	int    $0xff
    40005b67:	ff                   	(bad)  
    40005b68:	f8                   	clc    
    40005b69:	04 00                	add    $0x0,%al
    40005b6b:	00 f0                	add    %dh,%al
    40005b6d:	de ff                	fdivrp %st,%st(7)
    40005b6f:	ff 84 05 00 00 80 df 	incl   -0x20800000(%rbp,%rax,1)
    40005b76:	ff                   	(bad)  
    40005b77:	ff 98 05 00 00 c0    	lcall  *-0x3ffffffb(%rax)
    40005b7d:	df ff                	(bad)  
    40005b7f:	ff ac 05 00 00 80 e2 	ljmp   *-0x1d800000(%rbp,%rax,1)
    40005b86:	ff                   	(bad)  
    40005b87:	ff 10                	call   *(%rax)
    40005b89:	06                   	(bad)  
    40005b8a:	00 00                	add    %al,(%rax)
    40005b8c:	e0 e7                	loopne 40005b75 <__GNU_EH_FRAME_HDR+0xe5>
    40005b8e:	ff                   	(bad)  
    40005b8f:	ff 08                	decl   (%rax)
    40005b91:	07                   	(bad)  
    40005b92:	00 00                	add    %al,(%rax)
    40005b94:	50                   	push   %rax
    40005b95:	e8 ff ff bc 01       	call   41bd5b99 <_end+0x13b7a41>
    40005b9a:	00 00                	add    %al,(%rax)
    40005b9c:	a0 e8 ff ff 48 01 00 	movabs 0xd000000148ffffe8,%al
    40005ba3:	00 d0 
    40005ba5:	e8 ff ff 5c 01       	call   415d5ba9 <_end+0xdb7a51>
    40005baa:	00 00                	add    %al,(%rax)
    40005bac:	90                   	nop
    40005bad:	e9 ff ff 38 07       	jmp    47395bb1 <_end+0x6b77a59>
    40005bb2:	00 00                	add    %al,(%rax)
    40005bb4:	00 ea                	add    %ch,%dl
    40005bb6:	ff                   	(bad)  
    40005bb7:	ff                   	.byte 0xff
    40005bb8:	80 07 00             	addb   $0x0,(%rdi)
	...

Disassembly of section .eh_frame:

0000000040005bc0 <__FRAME_END__-0x664>:
    40005bc0:	14 00                	adc    $0x0,%al
    40005bc2:	00 00                	add    %al,(%rax)
    40005bc4:	00 00                	add    %al,(%rax)
    40005bc6:	00 00                	add    %al,(%rax)
    40005bc8:	01 7a 52             	add    %edi,0x52(%rdx)
    40005bcb:	00 01                	add    %al,(%rcx)
    40005bcd:	78 10                	js     40005bdf <__GNU_EH_FRAME_HDR+0x14f>
    40005bcf:	01 1b                	add    %ebx,(%rbx)
    40005bd1:	0c 07                	or     $0x7,%al
    40005bd3:	08 90 01 00 00 10    	or     %dl,0x10000001(%rax)
    40005bd9:	00 00                	add    %al,(%rax)
    40005bdb:	00 1c 00             	add    %bl,(%rax,%rax,1)
    40005bde:	00 00                	add    %al,(%rax)
    40005be0:	50                   	push   %rax
    40005be1:	e7 ff                	out    %eax,$0xff
    40005be3:	ff 2f                	ljmp   *(%rdi)
    40005be5:	00 00                	add    %al,(%rax)
    40005be7:	00 00                	add    %al,(%rax)
    40005be9:	44 07                	rex.R (bad) 
    40005beb:	10 10                	adc    %dl,(%rax)
    40005bed:	00 00                	add    %al,(%rax)
    40005bef:	00 30                	add    %dh,(%rax)
    40005bf1:	00 00                	add    %al,(%rax)
    40005bf3:	00 6c e7 ff          	add    %ch,-0x1(%rdi,%riz,8)
    40005bf7:	ff 05 00 00 00 00    	incl   0x0(%rip)        # 40005bfd <__GNU_EH_FRAME_HDR+0x16d>
    40005bfd:	00 00                	add    %al,(%rax)
    40005bff:	00 24 00             	add    %ah,(%rax,%rax,1)
    40005c02:	00 00                	add    %al,(%rax)
    40005c04:	44 00 00             	add    %r8b,(%rax)
    40005c07:	00 18                	add    %bl,(%rax)
    40005c09:	b4 3f                	mov    $0x3f,%ah
    40005c0b:	c0 20 01             	shlb   $0x1,(%rax)
    40005c0e:	00 00                	add    %al,(%rax)
    40005c10:	00 0e                	add    %cl,(%rsi)
    40005c12:	10 46 0e             	adc    %al,0xe(%rsi)
    40005c15:	18 4a 0f             	sbb    %cl,0xf(%rdx)
    40005c18:	0b 77 08             	or     0x8(%rdi),%esi
    40005c1b:	80 00 3f             	addb   $0x3f,(%rax)
    40005c1e:	1a 3b                	sbb    (%rbx),%bh
    40005c20:	2a 33                	sub    (%rbx),%dh
    40005c22:	24 22                	and    $0x22,%al
    40005c24:	00 00                	add    %al,(%rax)
    40005c26:	00 00                	add    %al,(%rax)
    40005c28:	20 00                	and    %al,(%rax)
    40005c2a:	00 00                	add    %al,(%rax)
    40005c2c:	00 00                	add    %al,(%rax)
    40005c2e:	00 00                	add    %al,(%rax)
    40005c30:	01 7a 50             	add    %edi,0x50(%rdx)
    40005c33:	4c 52                	rex.WR push %rdx
    40005c35:	00 01                	add    %al,(%rcx)
    40005c37:	78 10                	js     40005c49 <__GNU_EH_FRAME_HDR+0x1b9>
    40005c39:	0b 9c 2d 72 00 00 00 	or     0x72(%rbp,%rbp,1),%ebx
    40005c40:	00 00                	add    %al,(%rax)
    40005c42:	00 1c 1b             	add    %bl,(%rbx,%rbx,1)
    40005c45:	0c 07                	or     $0x7,%al
    40005c47:	08 90 01 00 00 24    	or     %dl,0x24000001(%rax)
    40005c4d:	00 00                	add    %al,(%rax)
    40005c4f:	00 28                	add    %ch,(%rax)
    40005c51:	00 00                	add    %al,(%rax)
    40005c53:	00 8c e6 ff ff 42 00 	add    %cl,0x42ffff(%rsi,%riz,8)
    40005c5a:	00 00                	add    %al,(%rax)
    40005c5c:	08 cb                	or     %cl,%bl
    40005c5e:	05 00 00 00 00       	add    $0x0,%eax
    40005c63:	00 00                	add    %al,(%rax)
    40005c65:	54                   	push   %rsp
    40005c66:	0e                   	(bad)  
    40005c67:	10 8f 02 53 0a 0e    	adc    %cl,0xe0a5302(%rdi)
    40005c6d:	08 49 0b             	or     %cl,0xb(%rcx)
    40005c70:	51                   	push   %rcx
    40005c71:	0e                   	(bad)  
    40005c72:	08 00                	or     %al,(%rax)
    40005c74:	38 00                	cmp    %al,(%rax)
    40005c76:	00 00                	add    %al,(%rax)
    40005c78:	b8 00 00 00 c4       	mov    $0xc4000000,%eax
    40005c7d:	b8 ff ff a5 00       	mov    $0xa5ffff,%eax
    40005c82:	00 00                	add    %al,(%rax)
    40005c84:	00 54 0e 10          	add    %dl,0x10(%rsi,%rcx,1)
    40005c88:	8f 02                	pop    (%rdx)
    40005c8a:	49 0e                	rex.WB (bad) 
    40005c8c:	18 8d 03 48 0e 20    	sbb    %cl,0x200e4803(%rbp)
    40005c92:	8c 04 41             	mov    %es,(%rcx,%rax,2)
    40005c95:	0e                   	(bad)  
    40005c96:	28 86 05 41 0e 30    	sub    %al,0x300e4105(%rsi)
    40005c9c:	83 06 02             	addl   $0x2,(%rsi)
    40005c9f:	6e                   	outsb  %ds:(%rsi),(%dx)
    40005ca0:	0e                   	(bad)  
    40005ca1:	28 41 0e             	sub    %al,0xe(%rcx)
    40005ca4:	20 4a 0e             	and    %cl,0xe(%rdx)
    40005ca7:	18 42 0e             	sbb    %al,0xe(%rdx)
    40005caa:	10 42 0e             	adc    %al,0xe(%rdx)
    40005cad:	08 00                	or     %al,(%rax)
    40005caf:	00 30                	add    %dh,(%rax)
    40005cb1:	00 00                	add    %al,(%rax)
    40005cb3:	00 f4                	add    %dh,%ah
    40005cb5:	00 00                	add    %al,(%rax)
    40005cb7:	00 38                	add    %bh,(%rax)
    40005cb9:	b9 ff ff 97 00       	mov    $0x97ffff,%ecx
    40005cbe:	00 00                	add    %al,(%rax)
    40005cc0:	00 54 0e 10          	add    %dl,0x10(%rsi,%rcx,1)
    40005cc4:	8f 02                	pop    (%rdx)
    40005cc6:	45 0e                	rex.RB (bad) 
    40005cc8:	18 83 03 5e 0e 20    	sbb    %al,0x200e5e03(%rbx)
    40005cce:	54                   	push   %rsp
    40005ccf:	0a 0e                	or     (%rsi),%cl
    40005cd1:	18 44 0e 10          	sbb    %al,0x10(%rsi,%rcx,1)
    40005cd5:	42 0e                	rex.X (bad) 
    40005cd7:	08 47 0b             	or     %al,0xb(%rdi)
    40005cda:	78 0e                	js     40005cea <__GNU_EH_FRAME_HDR+0x25a>
    40005cdc:	18 44 0e 10          	sbb    %al,0x10(%rsi,%rcx,1)
    40005ce0:	42 0e                	rex.X (bad) 
    40005ce2:	08 00                	or     %al,(%rax)
    40005ce4:	1c 00                	sbb    $0x0,%al
    40005ce6:	00 00                	add    %al,(%rax)
    40005ce8:	28 01                	sub    %al,(%rcx)
    40005cea:	00 00                	add    %al,(%rax)
    40005cec:	a4                   	movsb  %ds:(%rsi),%es:(%rdi)
    40005ced:	b9 ff ff 63 00       	mov    $0x63ffff,%ecx
    40005cf2:	00 00                	add    %al,(%rax)
    40005cf4:	00 57 0e             	add    %dl,0xe(%rdi)
    40005cf7:	10 8f 02 02 43 0a    	adc    %cl,0xa430202(%rdi)
    40005cfd:	0e                   	(bad)  
    40005cfe:	08 46 0b             	or     %al,0xb(%rsi)
    40005d01:	42 0e                	rex.X (bad) 
    40005d03:	08 2c 00             	or     %ch,(%rax,%rax,1)
    40005d06:	00 00                	add    %al,(%rax)
    40005d08:	48 01 00             	add    %rax,(%rax)
    40005d0b:	00 f4                	add    %dh,%ah
    40005d0d:	b9 ff ff 4a 02       	mov    $0x24affff,%ecx
    40005d12:	00 00                	add    %al,(%rax)
    40005d14:	00 4a 0e             	add    %cl,0xe(%rdx)
    40005d17:	10 8f 02 59 0e 18    	adc    %cl,0x180e5902(%rdi)
    40005d1d:	83 03 02             	addl   $0x2,(%rbx)
    40005d20:	80 0a 0e             	orb    $0xe,(%rdx)
    40005d23:	10 42 0e             	adc    %al,0xe(%rdx)
    40005d26:	08 4b 0b             	or     %cl,0xb(%rbx)
    40005d29:	02 47 0a             	add    0xa(%rdi),%al
    40005d2c:	0e                   	(bad)  
    40005d2d:	10 64 0e 08          	adc    %ah,0x8(%rsi,%rcx,1)
    40005d31:	45 0b 00             	or     (%r8),%r8d
    40005d34:	1c 00                	sbb    $0x0,%al
    40005d36:	00 00                	add    %al,(%rax)
    40005d38:	78 01                	js     40005d3b <__GNU_EH_FRAME_HDR+0x2ab>
    40005d3a:	00 00                	add    %al,(%rax)
    40005d3c:	14 bc                	adc    $0xbc,%al
    40005d3e:	ff                   	(bad)  
    40005d3f:	ff 63 00             	jmp    *0x0(%rbx)
    40005d42:	00 00                	add    %al,(%rax)
    40005d44:	00 57 0e             	add    %dl,0xe(%rdi)
    40005d47:	10 8f 02 02 40 0a    	adc    %cl,0xa400202(%rdi)
    40005d4d:	0e                   	(bad)  
    40005d4e:	08 49 0b             	or     %cl,0xb(%rcx)
    40005d51:	42 0e                	rex.X (bad) 
    40005d53:	08 4c 00 00          	or     %cl,0x0(%rax,%rax,1)
    40005d57:	00 98 01 00 00 64    	add    %bl,0x64000001(%rax)
    40005d5d:	bc ff ff 7e 02       	mov    $0x27effff,%esp
    40005d62:	00 00                	add    %al,(%rax)
    40005d64:	00 54 0e 10          	add    %dl,0x10(%rsi,%rcx,1)
    40005d68:	8f 02                	pop    (%rdx)
    40005d6a:	49 0e                	rex.WB (bad) 
    40005d6c:	18 8e 03 4f 0e 20    	sbb    %cl,0x200e4f03(%rsi)
    40005d72:	8d 04 42             	lea    (%rdx,%rax,2),%eax
    40005d75:	0e                   	(bad)  
    40005d76:	28 8c 05 41 0e 30 86 	sub    %cl,-0x79cff1bf(%rbp,%rax,1)
    40005d7d:	06                   	(bad)  
    40005d7e:	41 0e                	rex.B (bad) 
    40005d80:	38 83 07 47 0e e0    	cmp    %al,-0x1ff1b8f9(%rbx)
    40005d86:	01 03                	add    %eax,(%rbx)
    40005d88:	6f                   	outsl  %ds:(%rsi),(%dx)
    40005d89:	01 0a                	add    %ecx,(%rdx)
    40005d8b:	0e                   	(bad)  
    40005d8c:	38 43 0e             	cmp    %al,0xe(%rbx)
    40005d8f:	30 41 0e             	xor    %al,0xe(%rcx)
    40005d92:	28 42 0e             	sub    %al,0xe(%rdx)
    40005d95:	20 42 0e             	and    %al,0xe(%rdx)
    40005d98:	18 42 0e             	sbb    %al,0xe(%rdx)
    40005d9b:	10 42 0e             	adc    %al,0xe(%rdx)
    40005d9e:	08 46 0b             	or     %al,0xb(%rsi)
    40005da1:	00 00                	add    %al,(%rax)
    40005da3:	00 10                	add    %dl,(%rax)
    40005da5:	00 00                	add    %al,(%rax)
    40005da7:	00 e8                	add    %ch,%al
    40005da9:	01 00                	add    %eax,(%rax)
    40005dab:	00 94 be ff ff 30 00 	add    %dl,0x30ffff(%rsi,%rdi,4)
    40005db2:	00 00                	add    %al,(%rax)
    40005db4:	00 00                	add    %al,(%rax)
    40005db6:	00 00                	add    %al,(%rax)
    40005db8:	10 00                	adc    %al,(%rax)
    40005dba:	00 00                	add    %al,(%rax)
    40005dbc:	fc                   	cld    
    40005dbd:	01 00                	add    %eax,(%rax)
    40005dbf:	00 b0 be ff ff 46    	add    %dh,0x46ffffbe(%rax)
    40005dc5:	00 00                	add    %al,(%rax)
    40005dc7:	00 00                	add    %al,(%rax)
    40005dc9:	00 00                	add    %al,(%rax)
    40005dcb:	00 10                	add    %dl,(%rax)
    40005dcd:	00 00                	add    %al,(%rax)
    40005dcf:	00 10                	add    %dl,(%rax)
    40005dd1:	02 00                	add    (%rax),%al
    40005dd3:	00 ec                	add    %ch,%ah
    40005dd5:	be ff ff 27 01       	mov    $0x127ffff,%esi
    40005dda:	00 00                	add    %al,(%rax)
    40005ddc:	00 00                	add    %al,(%rax)
    40005dde:	00 00                	add    %al,(%rax)
    40005de0:	20 00                	and    %al,(%rax)
    40005de2:	00 00                	add    %al,(%rax)
    40005de4:	24 02                	and    $0x2,%al
    40005de6:	00 00                	add    %al,(%rax)
    40005de8:	08 c0                	or     %al,%al
    40005dea:	ff                   	(bad)  
    40005deb:	ff a3 01 00 00 00    	jmp    *0x1(%rbx)
    40005df1:	75 0e                	jne    40005e01 <__GNU_EH_FRAME_HDR+0x371>
    40005df3:	10 83 02 03 43 01    	adc    %al,0x1430302(%rbx)
    40005df9:	0e                   	(bad)  
    40005dfa:	08 48 c3             	or     %cl,-0x3d(%rax)
    40005dfd:	41 0e                	rex.B (bad) 
    40005dff:	10 83 02 00 00 10    	adc    %al,0x10000002(%rbx)
    40005e05:	00 00                	add    %al,(%rax)
    40005e07:	00 48 02             	add    %cl,0x2(%rax)
    40005e0a:	00 00                	add    %al,(%rax)
    40005e0c:	94                   	xchg   %eax,%esp
    40005e0d:	c1 ff ff             	sar    $0xff,%edi
    40005e10:	47 00 00             	rex.RXB add %r8b,(%r8)
    40005e13:	00 00                	add    %al,(%rax)
    40005e15:	00 00                	add    %al,(%rax)
    40005e17:	00 44 00 00          	add    %al,0x0(%rax,%rax,1)
    40005e1b:	00 5c 02 00          	add    %bl,0x0(%rdx,%rax,1)
    40005e1f:	00 d0                	add    %dl,%al
    40005e21:	c1 ff ff             	sar    $0xff,%edi
    40005e24:	c9                   	leave  
    40005e25:	02 00                	add    (%rax),%al
    40005e27:	00 00                	add    %al,(%rax)
    40005e29:	51                   	push   %rcx
    40005e2a:	0e                   	(bad)  
    40005e2b:	10 8f 02 59 0e 18    	adc    %cl,0x180e5902(%rdi)
    40005e31:	8e 03                	mov    (%rbx),%es
    40005e33:	46 0e                	rex.RX (bad) 
    40005e35:	20 8d 04 42 0e 28    	and    %cl,0x280e4204(%rbp)
    40005e3b:	8c 05 41 0e 30 86    	mov    %es,-0x79cff1bf(%rip)        # ffffffffc6306c82 <dummy_label_16+0xfffffffac4ff9225>
    40005e41:	06                   	(bad)  
    40005e42:	41 0e                	rex.B (bad) 
    40005e44:	38 83 07 02 f5 0a    	cmp    %al,0xaf50207(%rbx)
    40005e4a:	0e                   	(bad)  
    40005e4b:	30 41 0e             	xor    %al,0xe(%rcx)
    40005e4e:	28 42 0e             	sub    %al,0xe(%rdx)
    40005e51:	20 42 0e             	and    %al,0xe(%rdx)
    40005e54:	18 42 0e             	sbb    %al,0xe(%rdx)
    40005e57:	10 42 0e             	adc    %al,0xe(%rdx)
    40005e5a:	08 46 0b             	or     %al,0xb(%rsi)
    40005e5d:	00 00                	add    %al,(%rax)
    40005e5f:	00 24 00             	add    %ah,(%rax,%rax,1)
    40005e62:	00 00                	add    %al,(%rax)
    40005e64:	a4                   	movsb  %ds:(%rsi),%es:(%rdi)
    40005e65:	02 00                	add    (%rax),%al
    40005e67:	00 58 c4             	add    %bl,-0x3c(%rax)
    40005e6a:	ff                   	(bad)  
    40005e6b:	ff 71 00             	push   0x0(%rcx)
    40005e6e:	00 00                	add    %al,(%rax)
    40005e70:	00 4d 0e             	add    %cl,0xe(%rbp)
    40005e73:	10 86 02 48 0e 18    	adc    %al,0x180e4802(%rsi)
    40005e79:	83 03 02             	addl   $0x2,(%rbx)
    40005e7c:	51                   	push   %rcx
    40005e7d:	0e                   	(bad)  
    40005e7e:	10 41 0e             	adc    %al,0xe(%rcx)
    40005e81:	08 49 c3             	or     %cl,-0x3d(%rcx)
    40005e84:	c6 00 00             	movb   $0x0,(%rax)
    40005e87:	00 24 00             	add    %ah,(%rax,%rax,1)
    40005e8a:	00 00                	add    %al,(%rax)
    40005e8c:	cc                   	int3   
    40005e8d:	02 00                	add    (%rax),%al
    40005e8f:	00 b0 c4 ff ff 79    	add    %dh,0x79ffffc4(%rax)
    40005e95:	00 00                	add    %al,(%rax)
    40005e97:	00 00                	add    %al,(%rax)
    40005e99:	4d 0e                	rex.WRB (bad) 
    40005e9b:	10 86 02 48 0e 18    	adc    %al,0x180e4802(%rsi)
    40005ea1:	83 03 02             	addl   $0x2,(%rbx)
    40005ea4:	5d                   	pop    %rbp
    40005ea5:	0e                   	(bad)  
    40005ea6:	10 41 0e             	adc    %al,0xe(%rcx)
    40005ea9:	08 45 c3             	or     %al,-0x3d(%rbp)
    40005eac:	c6 00 00             	movb   $0x0,(%rax)
    40005eaf:	00 10                	add    %dl,(%rax)
    40005eb1:	00 00                	add    %al,(%rax)
    40005eb3:	00 f4                	add    %dh,%ah
    40005eb5:	02 00                	add    (%rax),%al
    40005eb7:	00 08                	add    %cl,(%rax)
    40005eb9:	c5 ff ff             	(bad)  
    40005ebc:	63 00                	movsxd (%rax),%eax
    40005ebe:	00 00                	add    %al,(%rax)
    40005ec0:	00 00                	add    %al,(%rax)
    40005ec2:	00 00                	add    %al,(%rax)
    40005ec4:	10 00                	adc    %al,(%rax)
    40005ec6:	00 00                	add    %al,(%rax)
    40005ec8:	08 03                	or     %al,(%rbx)
    40005eca:	00 00                	add    %al,(%rax)
    40005ecc:	64 c5 ff ff          	fs (bad) 
    40005ed0:	6b 00 00             	imul   $0x0,(%rax),%eax
    40005ed3:	00 00                	add    %al,(%rax)
    40005ed5:	00 00                	add    %al,(%rax)
    40005ed7:	00 10                	add    %dl,(%rax)
    40005ed9:	00 00                	add    %al,(%rax)
    40005edb:	00 1c 03             	add    %bl,(%rbx,%rax,1)
    40005ede:	00 00                	add    %al,(%rax)
    40005ee0:	c0 c5 ff             	rol    $0xff,%ch
    40005ee3:	ff 41 00             	incl   0x0(%rcx)
    40005ee6:	00 00                	add    %al,(%rax)
    40005ee8:	00 00                	add    %al,(%rax)
    40005eea:	00 00                	add    %al,(%rax)
    40005eec:	10 00                	adc    %al,(%rax)
    40005eee:	00 00                	add    %al,(%rax)
    40005ef0:	30 03                	xor    %al,(%rbx)
    40005ef2:	00 00                	add    %al,(%rax)
    40005ef4:	fc                   	cld    
    40005ef5:	c5 ff ff             	(bad)  
    40005ef8:	41 00 00             	add    %al,(%r8)
    40005efb:	00 00                	add    %al,(%rax)
    40005efd:	00 00                	add    %al,(%rax)
    40005eff:	00 28                	add    %ch,(%rax)
    40005f01:	00 00                	add    %al,(%rax)
    40005f03:	00 44 03 00          	add    %al,0x0(%rbx,%rax,1)
    40005f07:	00 38                	add    %bh,(%rax)
    40005f09:	c6                   	(bad)  
    40005f0a:	ff                   	(bad)  
    40005f0b:	ff a2 00 00 00 00    	jmp    *0x0(%rdx)
    40005f11:	54                   	push   %rsp
    40005f12:	0e                   	(bad)  
    40005f13:	10 8f 02 4a 0e 18    	adc    %cl,0x180e4a02(%rdi)
    40005f19:	83 03 02             	addl   $0x2,(%rbx)
    40005f1c:	41 0a 0e             	or     (%r14),%cl
    40005f1f:	10 42 0e             	adc    %al,0xe(%rdx)
    40005f22:	08 47 0b             	or     %al,0xb(%rdi)
    40005f25:	5e                   	pop    %rsi
    40005f26:	0e                   	(bad)  
    40005f27:	10 5a 0e             	adc    %bl,0xe(%rdx)
    40005f2a:	08 00                	or     %al,(%rax)
    40005f2c:	1c 00                	sbb    $0x0,%al
    40005f2e:	00 00                	add    %al,(%rax)
    40005f30:	70 03                	jo     40005f35 <__GNU_EH_FRAME_HDR+0x4a5>
    40005f32:	00 00                	add    %al,(%rax)
    40005f34:	bc c6 ff ff 42       	mov    $0x42ffffc6,%esp
    40005f39:	00 00                	add    %al,(%rax)
    40005f3b:	00 00                	add    %al,(%rax)
    40005f3d:	52                   	push   %rdx
    40005f3e:	0e                   	(bad)  
    40005f3f:	10 83 02 67 0a 0e    	adc    %al,0xe0a6702(%rbx)
    40005f45:	08 47 0b             	or     %al,0xb(%rdi)
    40005f48:	41 0e                	rex.B (bad) 
    40005f4a:	08 00                	or     %al,(%rax)
    40005f4c:	38 00                	cmp    %al,(%rax)
    40005f4e:	00 00                	add    %al,(%rax)
    40005f50:	90                   	nop
    40005f51:	03 00                	add    (%rax),%eax
    40005f53:	00 ec                	add    %ch,%ah
    40005f55:	c6                   	(bad)  
    40005f56:	ff                   	(bad)  
    40005f57:	ff 37                	push   (%rdi)
    40005f59:	02 00                	add    (%rax),%al
    40005f5b:	00 00                	add    %al,(%rax)
    40005f5d:	54                   	push   %rsp
    40005f5e:	0e                   	(bad)  
    40005f5f:	10 8f 02 48 0e 18    	adc    %cl,0x180e4802(%rdi)
    40005f65:	86 03                	xchg   %al,(%rbx)
    40005f67:	47 0e                	rex.RXB (bad) 
    40005f69:	20 83 04 02 52 0a    	and    %al,0xa520204(%rbx)
    40005f6f:	0e                   	(bad)  
    40005f70:	18 50 0e             	sbb    %dl,0xe(%rax)
    40005f73:	10 48 0e             	adc    %cl,0xe(%rax)
    40005f76:	08 43 0b             	or     %al,0xb(%rbx)
    40005f79:	02 d8                	add    %al,%bl
    40005f7b:	0a 0e                	or     (%rsi),%cl
    40005f7d:	18 41 0e             	sbb    %al,0xe(%rcx)
    40005f80:	10 42 0e             	adc    %al,0xe(%rdx)
    40005f83:	08 45 0b             	or     %al,0xb(%rbp)
    40005f86:	00 00                	add    %al,(%rax)
    40005f88:	88 00                	mov    %al,(%rax)
    40005f8a:	00 00                	add    %al,(%rax)
    40005f8c:	cc                   	int3   
    40005f8d:	03 00                	add    (%rax),%eax
    40005f8f:	00 f0                	add    %dh,%al
    40005f91:	c8 ff ff f8          	enter  $0xffff,$0xf8
    40005f95:	10 00                	adc    %al,(%rax)
    40005f97:	00 00                	add    %al,(%rax)
    40005f99:	79 0e                	jns    40005fa9 <__GNU_EH_FRAME_HDR+0x519>
    40005f9b:	10 8f 02 50 0e 18    	adc    %cl,0x180e5002(%rdi)
    40005fa1:	8e 03                	mov    (%rbx),%es
    40005fa3:	42 0e                	rex.X (bad) 
    40005fa5:	20 8d 04 42 0e 28    	and    %cl,0x280e4204(%rbp)
    40005fab:	8c 05 41 0e 30 86    	mov    %es,-0x79cff1bf(%rip)        # ffffffffc6306df2 <dummy_label_16+0xfffffffac4ff9395>
    40005fb1:	06                   	(bad)  
    40005fb2:	41 0e                	rex.B (bad) 
    40005fb4:	38 83 07 02 b5 0a    	cmp    %al,0xab50207(%rbx)
    40005fba:	0e                   	(bad)  
    40005fbb:	30 41 0e             	xor    %al,0xe(%rcx)
    40005fbe:	28 42 0e             	sub    %al,0xe(%rdx)
    40005fc1:	20 42 0e             	and    %al,0xe(%rdx)
    40005fc4:	18 42 0e             	sbb    %al,0xe(%rdx)
    40005fc7:	10 42 0e             	adc    %al,0xe(%rdx)
    40005fca:	08 43 0b             	or     %al,0xb(%rbx)
    40005fcd:	02 80 0e 08 c3 c6    	add    -0x393cf7f2(%rax),%al
    40005fd3:	cc                   	int3   
    40005fd4:	cd ce                	int    $0xce
    40005fd6:	cf                   	iret   
    40005fd7:	48 0e                	rex.W (bad) 
    40005fd9:	38 83 07 86 06 8c    	cmp    %al,-0x73f979f9(%rbx)
    40005fdf:	05 8d 04 8e 03       	add    $0x38e048d,%eax
    40005fe4:	8f 02                	pop    (%rdx)
    40005fe6:	02 5d 0a             	add    0xa(%rbp),%bl
    40005fe9:	0e                   	(bad)  
    40005fea:	30 41 0e             	xor    %al,0xe(%rcx)
    40005fed:	28 45 0e             	sub    %al,0xe(%rbp)
    40005ff0:	20 42 0e             	and    %al,0xe(%rdx)
    40005ff3:	18 42 0e             	sbb    %al,0xe(%rdx)
    40005ff6:	10 42 0e             	adc    %al,0xe(%rdx)
    40005ff9:	08 47 0b             	or     %al,0xb(%rdi)
    40005ffc:	03 fd                	add    %ebp,%edi
    40005ffe:	01 0a                	add    %ecx,(%rdx)
    40006000:	0e                   	(bad)  
    40006001:	30 41 0e             	xor    %al,0xe(%rcx)
    40006004:	28 42 0e             	sub    %al,0xe(%rdx)
    40006007:	20 42 0e             	and    %al,0xe(%rdx)
    4000600a:	18 42 0e             	sbb    %al,0xe(%rdx)
    4000600d:	10 42 0e             	adc    %al,0xe(%rdx)
    40006010:	08 42 0b             	or     %al,0xb(%rdx)
    40006013:	00 10                	add    %dl,(%rax)
    40006015:	00 00                	add    %al,(%rax)
    40006017:	00 58 04             	add    %bl,0x4(%rax)
    4000601a:	00 00                	add    %al,(%rax)
    4000601c:	64 d9 ff             	fs fcos 
    4000601f:	ff 8e 00 00 00 00    	decl   0x0(%rsi)
    40006025:	00 00                	add    %al,(%rax)
    40006027:	00 10                	add    %dl,(%rax)
    40006029:	00 00                	add    %al,(%rax)
    4000602b:	00 6c 04 00          	add    %ch,0x0(%rsp,%rax,1)
    4000602f:	00 e0                	add    %ah,%al
    40006031:	d9 ff                	fcos   
    40006033:	ff 33                	push   (%rbx)
    40006035:	00 00                	add    %al,(%rax)
    40006037:	00 00                	add    %al,(%rax)
    40006039:	00 00                	add    %al,(%rax)
    4000603b:	00 60 00             	add    %ah,0x0(%rax)
    4000603e:	00 00                	add    %al,(%rax)
    40006040:	80 04 00 00          	addb   $0x0,(%rax,%rax,1)
    40006044:	0c da                	or     $0xda,%al
    40006046:	ff                   	(bad)  
    40006047:	ff                   	(bad)  
    40006048:	be 02 00 00 00       	mov    $0x2,%esi
    4000604d:	54                   	push   %rsp
    4000604e:	0e                   	(bad)  
    4000604f:	10 8f 02 55 0e 18    	adc    %cl,0x180e5502(%rdi)
    40006055:	8e 03                	mov    (%rbx),%es
    40006057:	45 0e                	rex.RB (bad) 
    40006059:	20 8d 04 45 0e 28    	and    %cl,0x280e4504(%rbp)
    4000605f:	8c 05 44 0e 30 86    	mov    %es,-0x79cff1bc(%rip)        # ffffffffc6306ea9 <dummy_label_16+0xfffffffac4ff944c>
    40006065:	06                   	(bad)  
    40006066:	41 0e                	rex.B (bad) 
    40006068:	38 83 07 44 0e 50    	cmp    %al,0x500e4407(%rbx)
    4000606e:	03 2c 01             	add    (%rcx,%rax,1),%ebp
    40006071:	0a 0e                	or     (%rsi),%cl
    40006073:	38 41 0e             	cmp    %al,0xe(%rcx)
    40006076:	30 41 0e             	xor    %al,0xe(%rcx)
    40006079:	28 42 0e             	sub    %al,0xe(%rdx)
    4000607c:	20 42 0e             	and    %al,0xe(%rdx)
    4000607f:	18 42 0e             	sbb    %al,0xe(%rdx)
    40006082:	10 42 0e             	adc    %al,0xe(%rdx)
    40006085:	08 41 0b             	or     %al,0xb(%rcx)
    40006088:	03 40 01             	add    0x1(%rax),%eax
    4000608b:	0e                   	(bad)  
    4000608c:	38 41 0e             	cmp    %al,0xe(%rcx)
    4000608f:	30 41 0e             	xor    %al,0xe(%rcx)
    40006092:	28 42 0e             	sub    %al,0xe(%rdx)
    40006095:	20 42 0e             	and    %al,0xe(%rdx)
    40006098:	18 42 0e             	sbb    %al,0xe(%rdx)
    4000609b:	10 42 0e             	adc    %al,0xe(%rdx)
    4000609e:	08 00                	or     %al,(%rax)
    400060a0:	4c 00 00             	rex.WR add %r8b,(%rax)
    400060a3:	00 e4                	add    %ah,%ah
    400060a5:	04 00                	add    $0x0,%al
    400060a7:	00 68 dc             	add    %ch,-0x24(%rax)
    400060aa:	ff                   	(bad)  
    400060ab:	ff 55 05             	call   *0x5(%rbp)
    400060ae:	00 00                	add    %al,(%rax)
    400060b0:	00 54 0e 10          	add    %dl,0x10(%rsi,%rcx,1)
    400060b4:	8f 02                	pop    (%rdx)
    400060b6:	49 0e                	rex.WB (bad) 
    400060b8:	18 8e 03 45 0e 20    	sbb    %cl,0x200e4503(%rsi)
    400060be:	8d 04 42             	lea    (%rdx,%rax,2),%eax
    400060c1:	0e                   	(bad)  
    400060c2:	28 8c 05 44 0e 30 86 	sub    %cl,-0x79cff1bc(%rbp,%rax,1)
    400060c9:	06                   	(bad)  
    400060ca:	44 0e                	rex.R (bad) 
    400060cc:	38 83 07 54 0e 90    	cmp    %al,-0x6ff1abf9(%rbx)
    400060d2:	03 03                	add    (%rbx),%eax
    400060d4:	e6 02                	out    %al,$0x2
    400060d6:	0a 0e                	or     (%rsi),%cl
    400060d8:	38 41 0e             	cmp    %al,0xe(%rcx)
    400060db:	30 41 0e             	xor    %al,0xe(%rcx)
    400060de:	28 42 0e             	sub    %al,0xe(%rdx)
    400060e1:	20 42 0e             	and    %al,0xe(%rdx)
    400060e4:	18 42 0e             	sbb    %al,0xe(%rdx)
    400060e7:	10 42 0e             	adc    %al,0xe(%rdx)
    400060ea:	08 48 0b             	or     %cl,0xb(%rax)
    400060ed:	00 00                	add    %al,(%rax)
    400060ef:	00 54 00 00          	add    %dl,0x0(%rax,%rax,1)
    400060f3:	00 cc                	add    %cl,%ah
    400060f5:	04 00                	add    $0x0,%al
    400060f7:	00 98 a5 ff ff 3d    	add    %bl,0x3dffffa5(%rax)
    400060fd:	0e                   	(bad)  
    400060fe:	00 00                	add    %al,(%rax)
    40006100:	08 2b                	or     %ch,(%rbx)
    40006102:	01 00                	add    %eax,(%rax)
    40006104:	00 00                	add    %al,(%rax)
    40006106:	00 00                	add    %al,(%rax)
    40006108:	00 54 0e 10          	add    %dl,0x10(%rsi,%rcx,1)
    4000610c:	8f 02                	pop    (%rdx)
    4000610e:	42 0e                	rex.X (bad) 
    40006110:	18 8e 03 42 0e 20    	sbb    %cl,0x200e4203(%rsi)
    40006116:	8d 04 42             	lea    (%rdx,%rax,2),%eax
    40006119:	0e                   	(bad)  
    4000611a:	28 8c 05 48 0e 30 86 	sub    %cl,-0x79cff1b8(%rbp,%rax,1)
    40006121:	06                   	(bad)  
    40006122:	44 0e                	rex.R (bad) 
    40006124:	38 83 07 47 0e e0    	cmp    %al,-0x1ff1b8f9(%rbx)
    4000612a:	03 03                	add    (%rbx),%eax
    4000612c:	b8 02 0a 0e 38       	mov    $0x380e0a02,%eax
    40006131:	41 0e                	rex.B (bad) 
    40006133:	30 41 0e             	xor    %al,0xe(%rcx)
    40006136:	28 42 0e             	sub    %al,0xe(%rdx)
    40006139:	20 42 0e             	and    %al,0xe(%rdx)
    4000613c:	18 42 0e             	sbb    %al,0xe(%rdx)
    4000613f:	10 42 0e             	adc    %al,0xe(%rdx)
    40006142:	08 41 0b             	or     %al,0xb(%rcx)
    40006145:	00 00                	add    %al,(%rax)
    40006147:	00 30                	add    %dh,(%rax)
    40006149:	00 00                	add    %al,(%rax)
    4000614b:	00 00                	add    %al,(%rax)
    4000614d:	00 00                	add    %al,(%rax)
    4000614f:	00 01                	add    %al,(%rcx)
    40006151:	7a 50                	jp     400061a3 <__GNU_EH_FRAME_HDR+0x713>
    40006153:	4c 52                	rex.WR push %rdx
    40006155:	00 01                	add    %al,(%rcx)
    40006157:	78 10                	js     40006169 <__GNU_EH_FRAME_HDR+0x6d9>
    40006159:	0b 9c 0d 6d 00 00 00 	or     0x6d(%rbp,%rcx,1),%ebx
    40006160:	00 00                	add    %al,(%rax)
    40006162:	00 1c 1b             	add    %bl,(%rbx,%rbx,1)
    40006165:	0c 07                	or     $0x7,%al
    40006167:	08 90 01 0e e0 03    	or     %dl,0x3e00e01(%rax)
    4000616d:	83 07 86             	addl   $0xffffff86,(%rdi)
    40006170:	06                   	(bad)  
    40006171:	8c 05 8d 04 8e 03    	mov    %es,0x38e048d(%rip)        # 438e6604 <_end+0x30c84ac>
    40006177:	8f 02                	pop    (%rdx)
    40006179:	00 00                	add    %al,(%rax)
    4000617b:	00 18                	add    %bl,(%rax)
    4000617d:	00 00                	add    %al,(%rax)
    4000617f:	00 38                	add    %bh,(%rax)
    40006181:	00 00                	add    %al,(%rax)
    40006183:	00 c7                	add    %al,%bh
    40006185:	a4                   	movsb  %ds:(%rsi),%es:(%rdi)
    40006186:	ff                   	(bad)  
    40006187:	ff                   	(bad)  
    40006188:	38 00                	cmp    %al,(%rax)
    4000618a:	00 00                	add    %al,(%rax)
    4000618c:	08 c1                	or     %al,%cl
	...
    40006196:	00 00                	add    %al,(%rax)
    40006198:	10 00                	adc    %al,(%rax)
    4000619a:	00 00                	add    %al,(%rax)
    4000619c:	dc 05 00 00 d0 e0    	faddl  -0x1f300000(%rip)        # 20d061a2 <close@plt+0x20905072>
    400061a2:	ff                   	(bad)  
    400061a3:	ff 66 00             	jmp    *0x0(%rsi)
    400061a6:	00 00                	add    %al,(%rax)
    400061a8:	00 00                	add    %al,(%rax)
    400061aa:	00 00                	add    %al,(%rax)
    400061ac:	18 00                	sbb    %al,(%rax)
    400061ae:	00 00                	add    %al,(%rax)
    400061b0:	f0 05 00 00 1c b3    	lock add $0xb31c0000,%eax
    400061b6:	ff                   	(bad)  
    400061b7:	ff 6c 00 00          	ljmp   *0x0(%rax,%rax,1)
    400061bb:	00 00                	add    %al,(%rax)
    400061bd:	54                   	push   %rsp
    400061be:	0e                   	(bad)  
    400061bf:	10 8f 02 02 56 0e    	adc    %cl,0xe560202(%rdi)
    400061c5:	08 00                	or     %al,(%rax)
    400061c7:	00 44 00 00          	add    %al,0x0(%rax,%rax,1)
    400061cb:	00 0c 06             	add    %cl,(%rsi,%rax,1)
    400061ce:	00 00                	add    %al,(%rax)
    400061d0:	50                   	push   %rax
    400061d1:	e2 ff                	loop   400061d2 <__GNU_EH_FRAME_HDR+0x742>
    400061d3:	ff 65 00             	jmp    *0x0(%rbp)
    400061d6:	00 00                	add    %al,(%rax)
    400061d8:	00 46 0e             	add    %al,0xe(%rsi)
    400061db:	10 8f 02 49 0e 18    	adc    %cl,0x180e4902(%rdi)
    400061e1:	8e 03                	mov    (%rbx),%es
    400061e3:	45 0e                	rex.RB (bad) 
    400061e5:	20 8d 04 45 0e 28    	and    %cl,0x280e4504(%rbp)
    400061eb:	8c 05 44 0e 30 86    	mov    %es,-0x79cff1bc(%rip)        # ffffffffc6307035 <dummy_label_16+0xfffffffac4ff95d8>
    400061f1:	06                   	(bad)  
    400061f2:	48 0e                	rex.W (bad) 
    400061f4:	38 83 07 47 0e 40    	cmp    %al,0x400e4707(%rbx)
    400061fa:	6e                   	outsb  %ds:(%rsi),(%dx)
    400061fb:	0e                   	(bad)  
    400061fc:	38 41 0e             	cmp    %al,0xe(%rcx)
    400061ff:	30 41 0e             	xor    %al,0xe(%rcx)
    40006202:	28 42 0e             	sub    %al,0xe(%rdx)
    40006205:	20 42 0e             	and    %al,0xe(%rdx)
    40006208:	18 42 0e             	sbb    %al,0xe(%rdx)
    4000620b:	10 42 0e             	adc    %al,0xe(%rdx)
    4000620e:	08 00                	or     %al,(%rax)
    40006210:	10 00                	adc    %al,(%rax)
    40006212:	00 00                	add    %al,(%rax)
    40006214:	54                   	push   %rsp
    40006215:	06                   	(bad)  
    40006216:	00 00                	add    %al,(%rax)
    40006218:	78 e2                	js     400061fc <__GNU_EH_FRAME_HDR+0x76c>
    4000621a:	ff                   	(bad)  
    4000621b:	ff 05 00 00 00 00    	incl   0x0(%rip)        # 40006221 <__GNU_EH_FRAME_HDR+0x791>
    40006221:	00 00                	add    %al,(%rax)
	...

0000000040006224 <__FRAME_END__>:
    40006224:	00 00                	add    %al,(%rax)
	...

Disassembly of section .gcc_except_table:

0000000040006228 <.gcc_except_table>:
    40006228:	ff                   	(bad)  
    40006229:	ff 01                	incl   (%rcx)
    4000622b:	00 ff                	add    %bh,%bh
    4000622d:	ff 01                	incl   (%rcx)
    4000622f:	1e                   	(bad)  
    40006230:	e5 02                	in     $0x2,%eax
    40006232:	99                   	cltd   
    40006233:	04 00                	add    $0x0,%al
    40006235:	00 bc 09 02 b1 1c 00 	add    %bh,0x1cb102(%rcx,%rcx,1)
    4000623c:	eb 09                	jmp    40006247 <__FRAME_END__+0x23>
    4000623e:	95                   	xchg   %eax,%ebp
    4000623f:	01 00                	add    %eax,(%rax)
    40006241:	00 a9 0b a6 10 b1    	add    %ch,-0x4eef59f5(%rcx)
    40006247:	1c 00                	sbb    $0x0,%al
    40006249:	98                   	cwtl   
    4000624a:	1c 02                	sbb    $0x2,%al
    4000624c:	00 00                	add    %al,(%rax)
    4000624e:	ff                   	(bad)  
    4000624f:	ff 01                	incl   (%rcx)
    40006251:	04 1d                	add    $0x1d,%al
    40006253:	02 00                	add    (%rax),%al
	...

Disassembly of section .init_array:

0000000040007d58 <__frame_dummy_init_array_entry>:
    40007d58:	10 44 00 40          	adc    %al,0x40(%rax,%rax,1)
    40007d5c:	00 00                	add    %al,(%rax)
    40007d5e:	00 00                	add    %al,(%rax)
    40007d60:	d0 14 00             	rclb   (%rax,%rax,1)
    40007d63:	40 00 00             	rex add %al,(%rax)
	...

Disassembly of section .fini_array:

0000000040007d68 <__do_global_dtors_aux_fini_array_entry>:
    40007d68:	e0 43                	loopne 40007dad <_DYNAMIC+0x3d>
    40007d6a:	00 40 00             	add    %al,0x0(%rax)
    40007d6d:	00 00                	add    %al,(%rax)
	...

Disassembly of section .dynamic:

0000000040007d70 <_DYNAMIC>:
    40007d70:	01 00                	add    %eax,(%rax)
    40007d72:	00 00                	add    %al,(%rax)
    40007d74:	00 00                	add    %al,(%rax)
    40007d76:	00 00                	add    %al,(%rax)
    40007d78:	01 00                	add    %eax,(%rax)
    40007d7a:	00 00                	add    %al,(%rax)
    40007d7c:	00 00                	add    %al,(%rax)
    40007d7e:	00 00                	add    %al,(%rax)
    40007d80:	01 00                	add    %eax,(%rax)
    40007d82:	00 00                	add    %al,(%rax)
    40007d84:	00 00                	add    %al,(%rax)
    40007d86:	00 00                	add    %al,(%rax)
    40007d88:	38 00                	cmp    %al,(%rax)
    40007d8a:	00 00                	add    %al,(%rax)
    40007d8c:	00 00                	add    %al,(%rax)
    40007d8e:	00 00                	add    %al,(%rax)
    40007d90:	01 00                	add    %eax,(%rax)
    40007d92:	00 00                	add    %al,(%rax)
    40007d94:	00 00                	add    %al,(%rax)
    40007d96:	00 00                	add    %al,(%rax)
    40007d98:	6b 00 00             	imul   $0x0,(%rax),%eax
    40007d9b:	00 00                	add    %al,(%rax)
    40007d9d:	00 00                	add    %al,(%rax)
    40007d9f:	00 01                	add    %al,(%rcx)
    40007da1:	00 00                	add    %al,(%rax)
    40007da3:	00 00                	add    %al,(%rax)
    40007da5:	00 00                	add    %al,(%rax)
    40007da7:	00 88 00 00 00 00    	add    %cl,0x0(%rax)
    40007dad:	00 00                	add    %al,(%rax)
    40007daf:	00 0c 00             	add    %cl,(%rax,%rax,1)
    40007db2:	00 00                	add    %al,(%rax)
    40007db4:	00 00                	add    %al,(%rax)
    40007db6:	00 00                	add    %al,(%rax)
    40007db8:	00 10                	add    %dl,(%rax)
    40007dba:	40 00 00             	rex add %al,(%rax)
    40007dbd:	00 00                	add    %al,(%rax)
    40007dbf:	00 0d 00 00 00 00    	add    %cl,0x0(%rip)        # 40007dc5 <_DYNAMIC+0x55>
    40007dc5:	00 00                	add    %al,(%rax)
    40007dc7:	00 98 44 00 40 00    	add    %bl,0x400044(%rax)
    40007dcd:	00 00                	add    %al,(%rax)
    40007dcf:	00 19                	add    %bl,(%rcx)
    40007dd1:	00 00                	add    %al,(%rax)
    40007dd3:	00 00                	add    %al,(%rax)
    40007dd5:	00 00                	add    %al,(%rax)
    40007dd7:	00 58 7d             	add    %bl,0x7d(%rax)
    40007dda:	00 40 00             	add    %al,0x0(%rax)
    40007ddd:	00 00                	add    %al,(%rax)
    40007ddf:	00 1b                	add    %bl,(%rbx)
    40007de1:	00 00                	add    %al,(%rax)
    40007de3:	00 00                	add    %al,(%rax)
    40007de5:	00 00                	add    %al,(%rax)
    40007de7:	00 10                	add    %dl,(%rax)
    40007de9:	00 00                	add    %al,(%rax)
    40007deb:	00 00                	add    %al,(%rax)
    40007ded:	00 00                	add    %al,(%rax)
    40007def:	00 1a                	add    %bl,(%rdx)
    40007df1:	00 00                	add    %al,(%rax)
    40007df3:	00 00                	add    %al,(%rax)
    40007df5:	00 00                	add    %al,(%rax)
    40007df7:	00 68 7d             	add    %ch,0x7d(%rax)
    40007dfa:	00 40 00             	add    %al,0x0(%rax)
    40007dfd:	00 00                	add    %al,(%rax)
    40007dff:	00 1c 00             	add    %bl,(%rax,%rax,1)
    40007e02:	00 00                	add    %al,(%rax)
    40007e04:	00 00                	add    %al,(%rax)
    40007e06:	00 00                	add    %al,(%rax)
    40007e08:	08 00                	or     %al,(%rax)
    40007e0a:	00 00                	add    %al,(%rax)
    40007e0c:	00 00                	add    %al,(%rax)
    40007e0e:	00 00                	add    %al,(%rax)
    40007e10:	f5                   	cmc    
    40007e11:	fe                   	(bad)  
    40007e12:	ff 6f 00             	ljmp   *0x0(%rdi)
    40007e15:	00 00                	add    %al,(%rax)
    40007e17:	00 f8                	add    %bh,%al
    40007e19:	06                   	(bad)  
    40007e1a:	40 00 00             	rex add %al,(%rax)
    40007e1d:	00 00                	add    %al,(%rax)
    40007e1f:	00 05 00 00 00 00    	add    %al,0x0(%rip)        # 40007e25 <_DYNAMIC+0xb5>
    40007e25:	00 00                	add    %al,(%rax)
    40007e27:	00 10                	add    %dl,(%rax)
    40007e29:	09 40 00             	or     %eax,0x0(%rax)
    40007e2c:	00 00                	add    %al,(%rax)
    40007e2e:	00 00                	add    %al,(%rax)
    40007e30:	06                   	(bad)  
    40007e31:	00 00                	add    %al,(%rax)
    40007e33:	00 00                	add    %al,(%rax)
    40007e35:	00 00                	add    %al,(%rax)
    40007e37:	00 18                	add    %bl,(%rax)
    40007e39:	07                   	(bad)  
    40007e3a:	40 00 00             	rex add %al,(%rax)
    40007e3d:	00 00                	add    %al,(%rax)
    40007e3f:	00 0a                	add    %cl,(%rdx)
    40007e41:	00 00                	add    %al,(%rax)
    40007e43:	00 00                	add    %al,(%rax)
    40007e45:	00 00                	add    %al,(%rax)
    40007e47:	00 6e 01             	add    %ch,0x1(%rsi)
    40007e4a:	00 00                	add    %al,(%rax)
    40007e4c:	00 00                	add    %al,(%rax)
    40007e4e:	00 00                	add    %al,(%rax)
    40007e50:	0b 00                	or     (%rax),%eax
    40007e52:	00 00                	add    %al,(%rax)
    40007e54:	00 00                	add    %al,(%rax)
    40007e56:	00 00                	add    %al,(%rax)
    40007e58:	18 00                	sbb    %al,(%rax)
    40007e5a:	00 00                	add    %al,(%rax)
    40007e5c:	00 00                	add    %al,(%rax)
    40007e5e:	00 00                	add    %al,(%rax)
    40007e60:	15 00 00 00 00       	adc    $0x0,%eax
	...
    40007e6d:	00 00                	add    %al,(%rax)
    40007e6f:	00 03                	add    %al,(%rbx)
	...
    40007e79:	80 00 40             	addb   $0x40,(%rax)
    40007e7c:	00 00                	add    %al,(%rax)
    40007e7e:	00 00                	add    %al,(%rax)
    40007e80:	02 00                	add    (%rax),%al
    40007e82:	00 00                	add    %al,(%rax)
    40007e84:	00 00                	add    %al,(%rax)
    40007e86:	00 00                	add    %al,(%rax)
    40007e88:	98                   	cwtl   
    40007e89:	01 00                	add    %eax,(%rax)
    40007e8b:	00 00                	add    %al,(%rax)
    40007e8d:	00 00                	add    %al,(%rax)
    40007e8f:	00 14 00             	add    %dl,(%rax,%rax,1)
    40007e92:	00 00                	add    %al,(%rax)
    40007e94:	00 00                	add    %al,(%rax)
    40007e96:	00 00                	add    %al,(%rax)
    40007e98:	07                   	(bad)  
    40007e99:	00 00                	add    %al,(%rax)
    40007e9b:	00 00                	add    %al,(%rax)
    40007e9d:	00 00                	add    %al,(%rax)
    40007e9f:	00 17                	add    %dl,(%rdi)
    40007ea1:	00 00                	add    %al,(%rax)
    40007ea3:	00 00                	add    %al,(%rax)
    40007ea5:	00 00                	add    %al,(%rax)
    40007ea7:	00 a0 0b 40 00 00    	add    %ah,0x400b(%rax)
    40007ead:	00 00                	add    %al,(%rax)
    40007eaf:	00 07                	add    %al,(%rdi)
    40007eb1:	00 00                	add    %al,(%rax)
    40007eb3:	00 00                	add    %al,(%rax)
    40007eb5:	00 00                	add    %al,(%rax)
    40007eb7:	00 58 0b             	add    %bl,0xb(%rax)
    40007eba:	40 00 00             	rex add %al,(%rax)
    40007ebd:	00 00                	add    %al,(%rax)
    40007ebf:	00 08                	add    %cl,(%rax)
    40007ec1:	00 00                	add    %al,(%rax)
    40007ec3:	00 00                	add    %al,(%rax)
    40007ec5:	00 00                	add    %al,(%rax)
    40007ec7:	00 48 00             	add    %cl,0x0(%rax)
    40007eca:	00 00                	add    %al,(%rax)
    40007ecc:	00 00                	add    %al,(%rax)
    40007ece:	00 00                	add    %al,(%rax)
    40007ed0:	09 00                	or     %eax,(%rax)
    40007ed2:	00 00                	add    %al,(%rax)
    40007ed4:	00 00                	add    %al,(%rax)
    40007ed6:	00 00                	add    %al,(%rax)
    40007ed8:	18 00                	sbb    %al,(%rax)
    40007eda:	00 00                	add    %al,(%rax)
    40007edc:	00 00                	add    %al,(%rax)
    40007ede:	00 00                	add    %al,(%rax)
    40007ee0:	fe                   	(bad)  
    40007ee1:	ff                   	(bad)  
    40007ee2:	ff 6f 00             	ljmp   *0x0(%rdi)
    40007ee5:	00 00                	add    %al,(%rax)
    40007ee7:	00 a8 0a 40 00 00    	add    %ch,0x400a(%rax)
    40007eed:	00 00                	add    %al,(%rax)
    40007eef:	00 ff                	add    %bh,%bh
    40007ef1:	ff                   	(bad)  
    40007ef2:	ff 6f 00             	ljmp   *0x0(%rdi)
    40007ef5:	00 00                	add    %al,(%rax)
    40007ef7:	00 04 00             	add    %al,(%rax,%rax,1)
    40007efa:	00 00                	add    %al,(%rax)
    40007efc:	00 00                	add    %al,(%rax)
    40007efe:	00 00                	add    %al,(%rax)
    40007f00:	f0 ff                	lock (bad) 
    40007f02:	ff 6f 00             	ljmp   *0x0(%rdi)
    40007f05:	00 00                	add    %al,(%rax)
    40007f07:	00 7e 0a             	add    %bh,0xa(%rsi)
    40007f0a:	40 00 00             	rex add %al,(%rax)
	...

Disassembly of section .got:

0000000040007f70 <.got>:
    40007f70:	64 d2 00             	rolb   %cl,%fs:(%rax)
    40007f73:	40 00 00             	rex add %al,(%rax)
    40007f76:	00 00                	add    %al,(%rax)
    40007f78:	40 d2 00             	rex rolb %cl,(%rax)
    40007f7b:	40 00 00             	rex add %al,(%rax)
    40007f7e:	00 00                	add    %al,(%rax)
    40007f80:	5c                   	pop    %rsp
    40007f81:	d2 00                	rolb   %cl,(%rax)
    40007f83:	40 00 00             	rex add %al,(%rax)
    40007f86:	00 00                	add    %al,(%rax)
    40007f88:	70 d2                	jo     40007f5c <_DYNAMIC+0x1ec>
    40007f8a:	00 40 00             	add    %al,0x0(%rax)
    40007f8d:	00 00                	add    %al,(%rax)
    40007f8f:	00 60 d2             	add    %ah,-0x2e(%rax)
    40007f92:	00 40 00             	add    %al,0x0(%rax)
    40007f95:	00 00                	add    %al,(%rax)
    40007f97:	00 58 d2             	add    %bl,-0x2e(%rax)
    40007f9a:	00 40 00             	add    %al,0x0(%rax)
    40007f9d:	00 00                	add    %al,(%rax)
    40007f9f:	00 50 d2             	add    %dl,-0x2e(%rax)
    40007fa2:	00 40 00             	add    %al,0x0(%rax)
    40007fa5:	00 00                	add    %al,(%rax)
    40007fa7:	00 68 d2             	add    %ch,-0x2e(%rax)
    40007faa:	00 40 00             	add    %al,0x0(%rax)
    40007fad:	00 00                	add    %al,(%rax)
    40007faf:	00 54 d2 00          	add    %dl,0x0(%rdx,%rdx,8)
    40007fb3:	40 00 00             	rex add %al,(%rax)
    40007fb6:	00 00                	add    %al,(%rax)
    40007fb8:	80 ce 00             	or     $0x0,%dh
    40007fbb:	40 00 00             	rex add %al,(%rax)
    40007fbe:	00 00                	add    %al,(%rax)
    40007fc0:	4c d2 00             	rex.WR rolb %cl,(%rax)
    40007fc3:	40 00 00             	rex add %al,(%rax)
    40007fc6:	00 00                	add    %al,(%rax)
    40007fc8:	90                   	nop
    40007fc9:	d2 00                	rolb   %cl,(%rax)
    40007fcb:	40 00 00             	rex add %al,(%rax)
    40007fce:	00 00                	add    %al,(%rax)
    40007fd0:	6c                   	insb   (%dx),%es:(%rdi)
    40007fd1:	d2 00                	rolb   %cl,(%rax)
    40007fd3:	40 00 00             	rex add %al,(%rax)
    40007fd6:	00 00                	add    %al,(%rax)
    40007fd8:	c0 d2 00             	rcl    $0x0,%dl
    40007fdb:	40 00 00             	rex add %al,(%rax)
    40007fde:	00 00                	add    %al,(%rax)
    40007fe0:	48 d2 00             	rex.W rolb %cl,(%rax)
    40007fe3:	40 00 00             	rex add %al,(%rax)
	...
    40007fee:	00 00                	add    %al,(%rax)
    40007ff0:	b0 d2                	mov    $0xd2,%al
    40007ff2:	00 40 00             	add    %al,0x0(%rax)
	...

Disassembly of section .got.plt:

0000000040008000 <_GLOBAL_OFFSET_TABLE_>:
    40008000:	70 7d                	jo     4000807f <_GLOBAL_OFFSET_TABLE_+0x7f>
    40008002:	00 40 00             	add    %al,0x0(%rax)
	...
    40008015:	00 00                	add    %al,(%rax)
    40008017:	00 36                	add    %dh,(%rsi)
    40008019:	10 40 00             	adc    %al,0x0(%rax)
    4000801c:	00 00                	add    %al,(%rax)
    4000801e:	00 00                	add    %al,(%rax)
    40008020:	46 10 40 00          	rex.RX adc %r8b,0x0(%rax)
    40008024:	00 00                	add    %al,(%rax)
    40008026:	00 00                	add    %al,(%rax)
    40008028:	56                   	push   %rsi
    40008029:	10 40 00             	adc    %al,0x0(%rax)
    4000802c:	00 00                	add    %al,(%rax)
    4000802e:	00 00                	add    %al,(%rax)
    40008030:	66 10 40 00          	data16 adc %al,0x0(%rax)
    40008034:	00 00                	add    %al,(%rax)
    40008036:	00 00                	add    %al,(%rax)
    40008038:	76 10                	jbe    4000804a <_GLOBAL_OFFSET_TABLE_+0x4a>
    4000803a:	40 00 00             	rex add %al,(%rax)
    4000803d:	00 00                	add    %al,(%rax)
    4000803f:	00 86 10 40 00 00    	add    %al,0x4010(%rsi)
    40008045:	00 00                	add    %al,(%rax)
    40008047:	00 96 10 40 00 00    	add    %dl,0x4010(%rsi)
    4000804d:	00 00                	add    %al,(%rax)
    4000804f:	00 a6 10 40 00 00    	add    %ah,0x4010(%rsi)
    40008055:	00 00                	add    %al,(%rax)
    40008057:	00 b6 10 40 00 00    	add    %dh,0x4010(%rsi)
    4000805d:	00 00                	add    %al,(%rax)
    4000805f:	00 c6                	add    %al,%dh
    40008061:	10 40 00             	adc    %al,0x0(%rax)
    40008064:	00 00                	add    %al,(%rax)
    40008066:	00 00                	add    %al,(%rax)
    40008068:	d6                   	(bad)  
    40008069:	10 40 00             	adc    %al,0x0(%rax)
    4000806c:	00 00                	add    %al,(%rax)
    4000806e:	00 00                	add    %al,(%rax)
    40008070:	e6 10                	out    %al,$0x10
    40008072:	40 00 00             	rex add %al,(%rax)
    40008075:	00 00                	add    %al,(%rax)
    40008077:	00 f6                	add    %dh,%dh
    40008079:	10 40 00             	adc    %al,0x0(%rax)
    4000807c:	00 00                	add    %al,(%rax)
    4000807e:	00 00                	add    %al,(%rax)
    40008080:	06                   	(bad)  
    40008081:	11 40 00             	adc    %eax,0x0(%rax)
    40008084:	00 00                	add    %al,(%rax)
    40008086:	00 00                	add    %al,(%rax)
    40008088:	16                   	(bad)  
    40008089:	11 40 00             	adc    %eax,0x0(%rax)
    4000808c:	00 00                	add    %al,(%rax)
    4000808e:	00 00                	add    %al,(%rax)
    40008090:	26 11 40 00          	es adc %eax,0x0(%rax)
    40008094:	00 00                	add    %al,(%rax)
    40008096:	00 00                	add    %al,(%rax)
    40008098:	36 11 40 00          	ss adc %eax,0x0(%rax)
    4000809c:	00 00                	add    %al,(%rax)
	...

Disassembly of section .data:

00000000400080c0 <__data_start>:
	...

00000000400080c8 <__dso_handle>:
	...

00000000400080e0 <CounterDefinitions>:
    400080e0:	64 00 00             	add    %al,%fs:(%rax)
    400080e3:	00 02                	add    %al,(%rdx)
    400080e5:	00 00                	add    %al,(%rax)
    400080e7:	00 ff                	add    %bh,%bh
    400080e9:	ff                   	(bad)  
    400080ea:	ff                   	(bad)  
    400080eb:	ff 04 00             	incl   (%rax,%rax,1)
    400080ee:	00 00                	add    %al,(%rax)
    400080f0:	07                   	(bad)  
    400080f1:	00 00                	add    %al,(%rax)
    400080f3:	00 00                	add    %al,(%rax)
    400080f5:	00 00                	add    %al,(%rax)
    400080f7:	00 09                	add    %cl,(%rcx)
    400080f9:	00 00                	add    %al,(%rax)
    400080fb:	00 07                	add    %al,(%rdi)
    400080fd:	00 00                	add    %al,(%rax)
    400080ff:	00 55 6f             	add    %dl,0x6f(%rbp)
    40008102:	70 73                	jo     40008177 <CounterDefinitions+0x97>
	...
    4000810c:	65 00 00             	add    %al,%gs:(%rax)
    4000810f:	00 02                	add    %al,(%rdx)
    40008111:	00 00                	add    %al,(%rax)
    40008113:	00 ff                	add    %bh,%bh
    40008115:	ff                   	(bad)  
    40008116:	ff                   	(bad)  
    40008117:	ff 04 00             	incl   (%rax,%rax,1)
    4000811a:	00 00                	add    %al,(%rax)
    4000811c:	07                   	(bad)  
    4000811d:	00 00                	add    %al,(%rax)
    4000811f:	00 00                	add    %al,(%rax)
    40008121:	00 00                	add    %al,(%rax)
    40008123:	00 09                	add    %cl,(%rcx)
    40008125:	00 00                	add    %al,(%rax)
    40008127:	00 02                	add    %al,(%rdx)
    40008129:	00 00                	add    %al,(%rax)
    4000812b:	00 55 6f             	add    %dl,0x6f(%rbp)
    4000812e:	70 73                	jo     400081a3 <CounterDefinitions+0xc3>
    40008130:	54                   	push   %rsp
    40008131:	43 00 00             	rex.XB add %al,(%r8)
    40008134:	00 00                	add    %al,(%rax)
    40008136:	00 00                	add    %al,(%rax)
    40008138:	66 00 00             	data16 add %al,(%rax)
    4000813b:	00 02                	add    %al,(%rdx)
    4000813d:	00 00                	add    %al,(%rax)
    4000813f:	00 ff                	add    %bh,%bh
    40008141:	ff                   	(bad)  
    40008142:	ff                   	(bad)  
    40008143:	ff 04 00             	incl   (%rax,%rax,1)
    40008146:	00 00                	add    %al,(%rax)
    40008148:	07                   	(bad)  
    40008149:	00 00                	add    %al,(%rax)
    4000814b:	00 00                	add    %al,(%rax)
    4000814d:	00 00                	add    %al,(%rax)
    4000814f:	00 09                	add    %cl,(%rcx)
    40008151:	00 00                	add    %al,(%rax)
    40008153:	00 01                	add    %al,(%rcx)
    40008155:	00 00                	add    %al,(%rax)
    40008157:	00 55 6f             	add    %dl,0x6f(%rbp)
    4000815a:	70 73                	jo     400081cf <CounterDefinitions+0xef>
    4000815c:	44                   	rex.R
    4000815d:	65 63 00             	movsxd %gs:(%rax),%eax
    40008160:	00 00                	add    %al,(%rax)
    40008162:	00 00                	add    %al,(%rax)
    40008164:	67 00 00             	add    %al,(%eax)
    40008167:	00 02                	add    %al,(%rdx)
    40008169:	00 00                	add    %al,(%rax)
    4000816b:	00 ff                	add    %bh,%bh
    4000816d:	ff                   	(bad)  
    4000816e:	ff                   	(bad)  
    4000816f:	ff 04 00             	incl   (%rax,%rax,1)
    40008172:	00 00                	add    %al,(%rax)
    40008174:	07                   	(bad)  
    40008175:	00 00                	add    %al,(%rax)
    40008177:	00 00                	add    %al,(%rax)
    40008179:	00 00                	add    %al,(%rax)
    4000817b:	00 09                	add    %cl,(%rcx)
    4000817d:	00 00                	add    %al,(%rax)
    4000817f:	00 04 00             	add    %al,(%rax,%rax,1)
    40008182:	00 00                	add    %al,(%rax)
    40008184:	55                   	push   %rbp
    40008185:	6f                   	outsl  %ds:(%rsi),(%dx)
    40008186:	70 73                	jo     400081fb <CounterDefinitions+0x11b>
    40008188:	4d                   	rex.WRB
    40008189:	43 6f                	rex.XB outsl %ds:(%rsi),(%dx)
    4000818b:	64 65 00 00          	fs add %al,%gs:(%rax)
    4000818f:	00 6e 00             	add    %ch,0x0(%rsi)
    40008192:	00 00                	add    %al,(%rax)
    40008194:	02 00                	add    (%rax),%al
    40008196:	00 00                	add    %al,(%rax)
    40008198:	ff                   	(bad)  
    40008199:	ff                   	(bad)  
    4000819a:	ff                   	(bad)  
    4000819b:	ff 0c 00             	decl   (%rax,%rax,1)
    4000819e:	00 00                	add    %al,(%rax)
    400081a0:	11 00                	adc    %eax,(%rax)
    400081a2:	00 00                	add    %al,(%rax)
    400081a4:	04 00                	add    $0x0,%al
    400081a6:	00 00                	add    %al,(%rax)
    400081a8:	01 00                	add    %eax,(%rax)
    400081aa:	00 00                	add    %al,(%rax)
    400081ac:	01 00                	add    %eax,(%rax)
    400081ae:	00 00                	add    %al,(%rax)
    400081b0:	55                   	push   %rbp
    400081b1:	6f                   	outsl  %ds:(%rsi),(%dx)
    400081b2:	70 73                	jo     40008227 <CounterDefinitions+0x147>
    400081b4:	4e                   	rex.WRX
    400081b5:	42 00 00             	rex.X add %al,(%rax)
    400081b8:	00 00                	add    %al,(%rax)
    400081ba:	00 00                	add    %al,(%rax)
    400081bc:	6f                   	outsl  %ds:(%rsi),(%dx)
    400081bd:	00 00                	add    %al,(%rax)
    400081bf:	00 02                	add    %al,(%rdx)
    400081c1:	00 00                	add    %al,(%rax)
    400081c3:	00 ff                	add    %bh,%bh
    400081c5:	ff                   	(bad)  
    400081c6:	ff                   	(bad)  
    400081c7:	ff 0c 00             	decl   (%rax,%rax,1)
    400081ca:	00 00                	add    %al,(%rax)
    400081cc:	11 00                	adc    %eax,(%rax)
    400081ce:	00 00                	add    %al,(%rax)
    400081d0:	04 00                	add    $0x0,%al
    400081d2:	00 00                	add    %al,(%rax)
    400081d4:	02 00                	add    (%rax),%al
    400081d6:	00 00                	add    %al,(%rax)
    400081d8:	0c 00                	or     $0x0,%al
    400081da:	00 00                	add    %al,(%rax)
    400081dc:	55                   	push   %rbp
    400081dd:	6f                   	outsl  %ds:(%rsi),(%dx)
    400081de:	70 73                	jo     40008253 <CounterDefinitions+0x173>
    400081e0:	42 6f                	rex.X outsl %ds:(%rsi),(%dx)
    400081e2:	67 75 73             	addr32 jne 40008258 <CounterDefinitions+0x178>
    400081e5:	00 00                	add    %al,(%rax)
    400081e7:	00 96 00 00 00 02    	add    %dl,0x2000000(%rsi)
    400081ed:	00 00                	add    %al,(%rax)
    400081ef:	00 ff                	add    %bh,%bh
    400081f1:	ff                   	(bad)  
    400081f2:	ff                   	(bad)  
    400081f3:	ff 08                	decl   (%rax)
    400081f5:	00 00                	add    %al,(%rax)
    400081f7:	00 0b                	add    %cl,(%rbx)
    400081f9:	00 00                	add    %al,(%rax)
    400081fb:	00 01                	add    %al,(%rcx)
    400081fd:	00 00                	add    %al,(%rax)
    400081ff:	00 04 00             	add    %al,(%rax,%rax,1)
    40008202:	00 00                	add    %al,(%rax)
    40008204:	00 80 00 00 55 6f    	add    %al,0x6f550000(%rax)
    4000820a:	70 73                	jo     4000827f <CounterDefinitions+0x19f>
    4000820c:	46 50                	rex.RX push %rax
    4000820e:	00 00                	add    %al,(%rax)
    40008210:	00 00                	add    %al,(%rax)
    40008212:	00 00                	add    %al,(%rax)
    40008214:	97                   	xchg   %eax,%edi
    40008215:	00 00                	add    %al,(%rax)
    40008217:	00 02                	add    %al,(%rdx)
    40008219:	00 00                	add    %al,(%rax)
    4000821b:	00 ff                	add    %bh,%bh
    4000821d:	ff                   	(bad)  
    4000821e:	ff                   	(bad)  
    4000821f:	ff 08                	decl   (%rax)
    40008221:	00 00                	add    %al,(%rax)
    40008223:	00 0b                	add    %cl,(%rbx)
    40008225:	00 00                	add    %al,(%rax)
    40008227:	00 01                	add    %al,(%rcx)
    40008229:	00 00                	add    %al,(%rax)
    4000822b:	00 2e                	add    %ch,(%rsi)
    4000822d:	00 00                	add    %al,(%rax)
    4000822f:	00 08                	add    %cl,(%rax)
    40008231:	00 00                	add    %al,(%rax)
    40008233:	00 55 6f             	add    %dl,0x6f(%rbp)
    40008236:	70 73                	jo     400082ab <CounterDefinitions+0x1cb>
    40008238:	46 50                	rex.RX push %rax
    4000823a:	4d 6f                	rex.WRB outsl %ds:(%rsi),(%dx)
    4000823c:	76 00                	jbe    4000823e <CounterDefinitions+0x15e>
    4000823e:	00 00                	add    %al,(%rax)
    40008240:	98                   	cwtl   
    40008241:	00 00                	add    %al,(%rax)
    40008243:	00 02                	add    %al,(%rdx)
    40008245:	00 00                	add    %al,(%rax)
    40008247:	00 ff                	add    %bh,%bh
    40008249:	ff                   	(bad)  
    4000824a:	ff                   	(bad)  
    4000824b:	ff 08                	decl   (%rax)
    4000824d:	00 00                	add    %al,(%rax)
    4000824f:	00 0b                	add    %cl,(%rbx)
    40008251:	00 00                	add    %al,(%rax)
    40008253:	00 01                	add    %al,(%rcx)
    40008255:	00 00                	add    %al,(%rax)
    40008257:	00 2e                	add    %ch,(%rsi)
    40008259:	00 00                	add    %al,(%rax)
    4000825b:	00 10                	add    %dl,(%rax)
    4000825d:	00 00                	add    %al,(%rax)
    4000825f:	00 55 6f             	add    %dl,0x6f(%rbp)
    40008262:	70 73                	jo     400082d7 <CounterDefinitions+0x1f7>
    40008264:	46 50                	rex.RX push %rax
    40008266:	4c                   	rex.WR
    40008267:	64 00 00             	add    %al,%fs:(%rax)
    4000826a:	00 00                	add    %al,(%rax)
    4000826c:	a0 00 00 00 02 00 00 	movabs 0xff00000002000000,%al
    40008273:	00 ff 
    40008275:	ff                   	(bad)  
    40008276:	ff                   	(bad)  
    40008277:	ff 08                	decl   (%rax)
    40008279:	00 00                	add    %al,(%rax)
    4000827b:	00 0b                	add    %cl,(%rbx)
    4000827d:	00 00                	add    %al,(%rax)
    4000827f:	00 01                	add    %al,(%rcx)
    40008281:	00 00                	add    %al,(%rax)
    40008283:	00 02                	add    %al,(%rdx)
    40008285:	00 00                	add    %al,(%rax)
    40008287:	00 00                	add    %al,(%rax)
    40008289:	80 00 00             	addb   $0x0,(%rax)
    4000828c:	55                   	push   %rbp
    4000828d:	6f                   	outsl  %ds:(%rsi),(%dx)
    4000828e:	70 73                	jo     40008303 <CounterDefinitions+0x223>
    40008290:	4d                   	rex.WRB
    40008291:	4d 58                	rex.WRB pop %r8
    40008293:	00 00                	add    %al,(%rax)
    40008295:	00 00                	add    %al,(%rax)
    40008297:	00 aa 00 00 00 02    	add    %ch,0x2000000(%rdx)
    4000829d:	00 00                	add    %al,(%rax)
    4000829f:	00 ff                	add    %bh,%bh
    400082a1:	ff                   	(bad)  
    400082a2:	ff                   	(bad)  
    400082a3:	ff 08                	decl   (%rax)
    400082a5:	00 00                	add    %al,(%rax)
    400082a7:	00 0b                	add    %cl,(%rbx)
    400082a9:	00 00                	add    %al,(%rax)
    400082ab:	00 01                	add    %al,(%rcx)
    400082ad:	00 00                	add    %al,(%rax)
    400082af:	00 1a                	add    %bl,(%rdx)
    400082b1:	00 00                	add    %al,(%rax)
    400082b3:	00 00                	add    %al,(%rax)
    400082b5:	80 00 00             	addb   $0x0,(%rax)
    400082b8:	55                   	push   %rbp
    400082b9:	6f                   	outsl  %ds:(%rsi),(%dx)
    400082ba:	70 73                	jo     4000832f <CounterDefinitions+0x24f>
    400082bc:	58                   	pop    %rax
    400082bd:	4d                   	rex.WRB
    400082be:	4d 00 00             	rex.WRB add %r8b,(%r8)
    400082c1:	00 00                	add    %al,(%rax)
    400082c3:	00 c8                	add    %cl,%al
    400082c5:	00 00                	add    %al,(%rax)
    400082c7:	00 02                	add    %al,(%rdx)
    400082c9:	00 00                	add    %al,(%rax)
    400082cb:	00 ff                	add    %bh,%bh
    400082cd:	ff                   	(bad)  
    400082ce:	ff                   	(bad)  
    400082cf:	ff 0c 00             	decl   (%rax,%rax,1)
    400082d2:	00 00                	add    %al,(%rax)
    400082d4:	11 00                	adc    %eax,(%rax)
    400082d6:	00 00                	add    %al,(%rax)
    400082d8:	05 00 00 00 06       	add    $0x6000000,%eax
    400082dd:	00 00                	add    %al,(%rax)
    400082df:	00 0f                	add    %cl,(%rdi)
    400082e1:	00 00                	add    %al,(%rax)
    400082e3:	00 42 72             	add    %al,0x72(%rdx)
    400082e6:	61                   	(bad)  
    400082e7:	6e                   	outsb  %ds:(%rsi),(%dx)
    400082e8:	63 68 00             	movsxd 0x0(%rax),%ebp
    400082eb:	00 00                	add    %al,(%rax)
    400082ed:	00 00                	add    %al,(%rax)
    400082ef:	00 c9                	add    %cl,%cl
    400082f1:	00 00                	add    %al,(%rax)
    400082f3:	00 02                	add    %al,(%rdx)
    400082f5:	00 00                	add    %al,(%rax)
    400082f7:	00 ff                	add    %bh,%bh
    400082f9:	ff                   	(bad)  
    400082fa:	ff                   	(bad)  
    400082fb:	ff 0c 00             	decl   (%rax,%rax,1)
    400082fe:	00 00                	add    %al,(%rax)
    40008300:	11 00                	adc    %eax,(%rax)
    40008302:	00 00                	add    %al,(%rax)
    40008304:	05 00 00 00 06       	add    $0x6000000,%eax
    40008309:	00 00                	add    %al,(%rax)
    4000830b:	00 0c 00             	add    %cl,(%rax,%rax,1)
    4000830e:	00 00                	add    %al,(%rax)
    40008310:	42 72 54             	rex.X jb 40008367 <CounterDefinitions+0x287>
    40008313:	61                   	(bad)  
    40008314:	6b 65 6e 00          	imul   $0x0,0x6e(%rbp),%esp
    40008318:	00 00                	add    %al,(%rax)
    4000831a:	00 00                	add    %al,(%rax)
    4000831c:	ca 00 00             	lret   $0x0
    4000831f:	00 02                	add    %al,(%rdx)
    40008321:	00 00                	add    %al,(%rax)
    40008323:	00 ff                	add    %bh,%bh
    40008325:	ff                   	(bad)  
    40008326:	ff                   	(bad)  
    40008327:	ff 0c 00             	decl   (%rax,%rax,1)
    4000832a:	00 00                	add    %al,(%rax)
    4000832c:	11 00                	adc    %eax,(%rax)
    4000832e:	00 00                	add    %al,(%rax)
    40008330:	05 00 00 00 06       	add    $0x6000000,%eax
    40008335:	00 00                	add    %al,(%rax)
    40008337:	00 03                	add    %al,(%rbx)
    40008339:	00 00                	add    %al,(%rax)
    4000833b:	00 42 72             	add    %al,0x72(%rdx)
    4000833e:	4e 54                	rex.WRX push %rsp
    40008340:	61                   	(bad)  
    40008341:	6b 65 6e 00          	imul   $0x0,0x6e(%rbp),%esp
    40008345:	00 00                	add    %al,(%rax)
    40008347:	00 cb                	add    %cl,%bl
    40008349:	00 00                	add    %al,(%rax)
    4000834b:	00 02                	add    %al,(%rdx)
    4000834d:	00 00                	add    %al,(%rax)
    4000834f:	00 ff                	add    %bh,%bh
    40008351:	ff                   	(bad)  
    40008352:	ff                   	(bad)  
    40008353:	ff 0c 00             	decl   (%rax,%rax,1)
    40008356:	00 00                	add    %al,(%rax)
    40008358:	11 00                	adc    %eax,(%rax)
    4000835a:	00 00                	add    %al,(%rax)
    4000835c:	05 00 00 00 06       	add    $0x6000000,%eax
    40008361:	00 00                	add    %al,(%rax)
    40008363:	00 05 00 00 00 42    	add    %al,0x42000000(%rip)        # 82008369 <_end+0x417ea211>
    40008369:	72 50                	jb     400083bb <CounterDefinitions+0x2db>
    4000836b:	72 65                	jb     400083d2 <CounterDefinitions+0x2f2>
    4000836d:	64 69 63 74 00 00 00 	imul   $0xcc000000,%fs:0x74(%rbx),%esp
    40008374:	cc 
    40008375:	00 00                	add    %al,(%rax)
    40008377:	00 02                	add    %al,(%rdx)
    40008379:	00 00                	add    %al,(%rax)
    4000837b:	00 ff                	add    %bh,%bh
    4000837d:	ff                   	(bad)  
    4000837e:	ff                   	(bad)  
    4000837f:	ff 0c 00             	decl   (%rax,%rax,1)
    40008382:	00 00                	add    %al,(%rax)
    40008384:	11 00                	adc    %eax,(%rax)
    40008386:	00 00                	add    %al,(%rax)
    40008388:	04 00                	add    $0x0,%al
    4000838a:	00 00                	add    %al,(%rax)
    4000838c:	03 00                	add    (%rax),%eax
    4000838e:	00 00                	add    %al,(%rax)
    40008390:	01 00                	add    %eax,(%rax)
    40008392:	00 00                	add    %al,(%rax)
    40008394:	42 72 4d             	rex.X jb 400083e4 <CounterDefinitions+0x304>
    40008397:	69 73 70 72 65 64 00 	imul   $0x646572,0x70(%rbx),%esi
    4000839e:	00 00                	add    %al,(%rax)
    400083a0:	d2 00                	rolb   %cl,(%rax)
    400083a2:	00 00                	add    %al,(%rax)
    400083a4:	02 00                	add    (%rax),%al
    400083a6:	00 00                	add    %al,(%rax)
    400083a8:	ff                   	(bad)  
    400083a9:	ff                   	(bad)  
    400083aa:	ff                   	(bad)  
    400083ab:	ff 04 00             	incl   (%rax,%rax,1)
    400083ae:	00 00                	add    %al,(%rax)
    400083b0:	07                   	(bad)  
    400083b1:	00 00                	add    %al,(%rax)
    400083b3:	00 02                	add    %al,(%rdx)
    400083b5:	00 00                	add    %al,(%rax)
    400083b7:	00 05 00 00 00 02    	add    %al,0x2000000(%rip)        # 420083bd <_end+0x17ea265>
    400083bd:	00 00                	add    %al,(%rax)
    400083bf:	00 43 6f             	add    %al,0x6f(%rbx)
    400083c2:	6e                   	outsb  %ds:(%rsi),(%dx)
    400083c3:	64 4a                	fs rex.WX
    400083c5:	4d 69 73 70 00 00 00 	imul   $0xffffffffd3000000,0x70(%r11),%r14
    400083cc:	d3 
    400083cd:	00 00                	add    %al,(%rax)
    400083cf:	00 02                	add    %al,(%rdx)
    400083d1:	00 00                	add    %al,(%rax)
    400083d3:	00 ff                	add    %bh,%bh
    400083d5:	ff                   	(bad)  
    400083d6:	ff                   	(bad)  
    400083d7:	ff 04 00             	incl   (%rax,%rax,1)
    400083da:	00 00                	add    %al,(%rax)
    400083dc:	07                   	(bad)  
    400083dd:	00 00                	add    %al,(%rax)
    400083df:	00 02                	add    %al,(%rdx)
    400083e1:	00 00                	add    %al,(%rax)
    400083e3:	00 05 00 00 00 04    	add    %al,0x4000000(%rip)        # 440083e9 <_end+0x37ea291>
    400083e9:	00 00                	add    %al,(%rax)
    400083eb:	00 43 61             	add    %al,0x61(%rbx)
    400083ee:	6c                   	insb   (%dx),%es:(%rdi)
    400083ef:	6c                   	insb   (%dx),%es:(%rdi)
    400083f0:	4d 69 73 70 00 00 00 	imul   $0x0,0x70(%r11),%r14
    400083f7:	00 
    400083f8:	d4                   	(bad)  
    400083f9:	00 00                	add    %al,(%rax)
    400083fb:	00 02                	add    %al,(%rdx)
    400083fd:	00 00                	add    %al,(%rax)
    400083ff:	00 ff                	add    %bh,%bh
    40008401:	ff                   	(bad)  
    40008402:	ff                   	(bad)  
    40008403:	ff 04 00             	incl   (%rax,%rax,1)
    40008406:	00 00                	add    %al,(%rax)
    40008408:	07                   	(bad)  
    40008409:	00 00                	add    %al,(%rax)
    4000840b:	00 02                	add    %al,(%rdx)
    4000840d:	00 00                	add    %al,(%rax)
    4000840f:	00 05 00 00 00 08    	add    %al,0x8000000(%rip)        # 48008415 <_end+0x77ea2bd>
    40008415:	00 00                	add    %al,(%rax)
    40008417:	00 52 65             	add    %dl,0x65(%rdx)
    4000841a:	74 4d                	je     40008469 <CounterDefinitions+0x389>
    4000841c:	69 73 70 00 00 00 00 	imul   $0x0,0x70(%rbx),%esi
    40008423:	00 dc                	add    %bl,%ah
    40008425:	00 00                	add    %al,(%rax)
    40008427:	00 02                	add    %al,(%rdx)
    40008429:	00 00                	add    %al,(%rax)
    4000842b:	00 ff                	add    %bh,%bh
    4000842d:	ff                   	(bad)  
    4000842e:	ff                   	(bad)  
    4000842f:	ff 04 00             	incl   (%rax,%rax,1)
    40008432:	00 00                	add    %al,(%rax)
    40008434:	07                   	(bad)  
    40008435:	00 00                	add    %al,(%rax)
    40008437:	00 02                	add    %al,(%rdx)
    40008439:	00 00                	add    %al,(%rax)
    4000843b:	00 05 00 00 00 10    	add    %al,0x10000000(%rip)        # 50008441 <_end+0xf7ea2e9>
    40008441:	00 00                	add    %al,(%rax)
    40008443:	00 49 6e             	add    %cl,0x6e(%rcx)
    40008446:	64 69 72 4d 69 73 70 	imul   $0x707369,%fs:0x4d(%rdx),%esi
    4000844d:	00 
    4000844e:	00 00                	add    %al,(%rax)
    40008450:	36 01 00             	ss add %eax,(%rax)
    40008453:	00 02                	add    %al,(%rdx)
    40008455:	00 00                	add    %al,(%rax)
    40008457:	00 ff                	add    %bh,%bh
    40008459:	ff                   	(bad)  
    4000845a:	ff                   	(bad)  
    4000845b:	ff 00                	incl   (%rax)
    4000845d:	00 00                	add    %al,(%rax)
    4000845f:	00 03                	add    %al,(%rbx)
    40008461:	00 00                	add    %al,(%rax)
    40008463:	00 00                	add    %al,(%rax)
    40008465:	00 00                	add    %al,(%rax)
    40008467:	00 03                	add    %al,(%rbx)
    40008469:	00 00                	add    %al,(%rax)
    4000846b:	00 01                	add    %al,(%rcx)
    4000846d:	00 00                	add    %al,(%rax)
    4000846f:	00 54 43 4d          	add    %dl,0x4d(%rbx,%rax,2)
    40008473:	69 73 73 00 00 00 00 	imul   $0x0,0x73(%rbx),%esi
    4000847a:	00 00                	add    %al,(%rax)
    4000847c:	40 01 00             	rex add %eax,(%rax)
    4000847f:	00 02                	add    %al,(%rdx)
    40008481:	00 00                	add    %al,(%rax)
    40008483:	00 ff                	add    %bh,%bh
    40008485:	ff                   	(bad)  
    40008486:	ff                   	(bad)  
    40008487:	ff 00                	incl   (%rax)
    40008489:	00 00                	add    %al,(%rax)
    4000848b:	00 03                	add    %al,(%rbx)
    4000848d:	00 00                	add    %al,(%rax)
    4000848f:	00 07                	add    %al,(%rdi)
    40008491:	00 00                	add    %al,(%rax)
    40008493:	00 0c 00             	add    %cl,(%rax,%rax,1)
    40008496:	00 00                	add    %al,(%rax)
    40008498:	00 01                	add    %al,(%rcx)
    4000849a:	00 00                	add    %al,(%rax)
    4000849c:	43 61                	rex.XB (bad) 
    4000849e:	63 68 32             	movsxd 0x32(%rax),%ebp
    400084a1:	4d 69 73 73 00 00 00 	imul   $0x41000000,0x73(%r11),%r14
    400084a8:	41 
    400084a9:	01 00                	add    %eax,(%rax)
    400084ab:	00 02                	add    %al,(%rdx)
    400084ad:	00 00                	add    %al,(%rax)
    400084af:	00 ff                	add    %bh,%bh
    400084b1:	ff                   	(bad)  
    400084b2:	ff                   	(bad)  
    400084b3:	ff 00                	incl   (%rax)
    400084b5:	00 00                	add    %al,(%rax)
    400084b7:	00 03                	add    %al,(%rbx)
    400084b9:	00 00                	add    %al,(%rax)
    400084bb:	00 07                	add    %al,(%rdi)
    400084bd:	00 00                	add    %al,(%rax)
    400084bf:	00 0c 00             	add    %cl,(%rax,%rax,1)
    400084c2:	00 00                	add    %al,(%rax)
    400084c4:	00 02                	add    %al,(%rdx)
    400084c6:	00 00                	add    %al,(%rax)
    400084c8:	43 61                	rex.XB (bad) 
    400084ca:	63 68 33             	movsxd 0x33(%rax),%ebp
    400084cd:	4d 69 73 73 00 00 00 	imul   $0x4a000000,0x73(%r11),%r14
    400084d4:	4a 
    400084d5:	01 00                	add    %eax,(%rax)
    400084d7:	00 02                	add    %al,(%rdx)
    400084d9:	00 00                	add    %al,(%rax)
    400084db:	00 ff                	add    %bh,%bh
    400084dd:	ff                   	(bad)  
    400084de:	ff                   	(bad)  
    400084df:	ff 00                	incl   (%rax)
    400084e1:	00 00                	add    %al,(%rax)
    400084e3:	00 03                	add    %al,(%rbx)
    400084e5:	00 00                	add    %al,(%rax)
    400084e7:	00 03                	add    %al,(%rbx)
    400084e9:	00 00                	add    %al,(%rax)
    400084eb:	00 18                	add    %bl,(%rax)
    400084ed:	00 00                	add    %al,(%rax)
    400084ef:	00 02                	add    %al,(%rdx)
    400084f1:	00 00                	add    %al,(%rax)
    400084f3:	00 49 54             	add    %cl,0x54(%rcx)
    400084f6:	4c                   	rex.WR
    400084f7:	42                   	rex.X
    400084f8:	4d 69 73 73 00 00 00 	imul   $0x0,0x73(%r11),%r14
    400084ff:	00 
    40008500:	54                   	push   %rsp
    40008501:	01 00                	add    %eax,(%rax)
    40008503:	00 02                	add    %al,(%rdx)
    40008505:	00 00                	add    %al,(%rax)
    40008507:	00 ff                	add    %bh,%bh
    40008509:	ff                   	(bad)  
    4000850a:	ff                   	(bad)  
    4000850b:	ff 00                	incl   (%rax)
    4000850d:	00 00                	add    %al,(%rax)
    4000850f:	00 03                	add    %al,(%rbx)
    40008511:	00 00                	add    %al,(%rax)
    40008513:	00 02                	add    %al,(%rdx)
    40008515:	00 00                	add    %al,(%rax)
    40008517:	00 03                	add    %al,(%rbx)
    40008519:	00 00                	add    %al,(%rax)
    4000851b:	00 3a                	add    %bh,(%rdx)
    4000851d:	00 00                	add    %al,(%rax)
    4000851f:	00 4c 64 52          	add    %cl,0x52(%rsp,%riz,2)
    40008523:	65 70 6c             	gs jo  40008592 <CounterDefinitions+0x4b2>
    40008526:	61                   	(bad)  
    40008527:	79 00                	jns    40008529 <CounterDefinitions+0x449>
    40008529:	00 00                	add    %al,(%rax)
    4000852b:	00 09                	add    %cl,(%rcx)
    4000852d:	00 00                	add    %al,(%rax)
    4000852f:	00 01                	add    %al,(%rcx)
    40008531:	00 00                	add    %al,(%rax)
    40008533:	00 ff                	add    %bh,%bh
    40008535:	ff                   	(bad)  
    40008536:	ff                   	(bad)  
    40008537:	ff 00                	incl   (%rax)
    40008539:	00 00                	add    %al,(%rax)
    4000853b:	00 01                	add    %al,(%rcx)
    4000853d:	00 00                	add    %al,(%rax)
    4000853f:	00 00                	add    %al,(%rax)
    40008541:	00 00                	add    %al,(%rax)
    40008543:	00 16                	add    %dl,(%rsi)
    40008545:	00 00                	add    %al,(%rax)
    40008547:	00 02                	add    %al,(%rdx)
    40008549:	00 00                	add    %al,(%rax)
    4000854b:	00 49 6e             	add    %cl,0x6e(%rcx)
    4000854e:	73 74                	jae    400085c4 <CounterDefinitions+0x4e4>
    40008550:	72 75                	jb     400085c7 <CounterDefinitions+0x4e7>
    40008552:	63 74 00 00          	movsxd 0x0(%rax,%rax,1),%esi
    40008556:	00 00                	add    %al,(%rax)
    40008558:	0b 00                	or     (%rax),%eax
    4000855a:	00 00                	add    %al,(%rax)
    4000855c:	01 00                	add    %eax,(%rax)
    4000855e:	00 00                	add    %al,(%rax)
    40008560:	ff                   	(bad)  
    40008561:	ff                   	(bad)  
    40008562:	ff                   	(bad)  
    40008563:	ff 00                	incl   (%rax)
    40008565:	00 00                	add    %al,(%rax)
    40008567:	00 01                	add    %al,(%rcx)
    40008569:	00 00                	add    %al,(%rax)
    4000856b:	00 00                	add    %al,(%rax)
    4000856d:	00 00                	add    %al,(%rax)
    4000856f:	00 17                	add    %dl,(%rdi)
    40008571:	00 00                	add    %al,(%rax)
    40008573:	00 02                	add    %al,(%rdx)
    40008575:	00 00                	add    %al,(%rax)
    40008577:	00 49 6e             	add    %cl,0x6e(%rcx)
    4000857a:	73 74                	jae    400085f0 <CounterDefinitions+0x510>
    4000857c:	56                   	push   %rsi
    4000857d:	70 69                	jo     400085e8 <CounterDefinitions+0x508>
    4000857f:	70 65                	jo     400085e6 <CounterDefinitions+0x506>
    40008581:	00 00                	add    %al,(%rax)
    40008583:	00 ca                	add    %cl,%dl
    40008585:	00 00                	add    %al,(%rax)
    40008587:	00 01                	add    %al,(%rcx)
    40008589:	00 00                	add    %al,(%rax)
    4000858b:	00 ff                	add    %bh,%bh
    4000858d:	ff                   	(bad)  
    4000858e:	ff                   	(bad)  
    4000858f:	ff 00                	incl   (%rax)
    40008591:	00 00                	add    %al,(%rax)
    40008593:	00 01                	add    %al,(%rcx)
    40008595:	00 00                	add    %al,(%rax)
    40008597:	00 00                	add    %al,(%rax)
    40008599:	00 00                	add    %al,(%rax)
    4000859b:	00 15 00 00 00 02    	add    %dl,0x2000000(%rip)        # 420085a1 <_end+0x17ea449>
    400085a1:	00 00                	add    %al,(%rax)
    400085a3:	00 46 6c             	add    %al,0x6c(%rsi)
    400085a6:	75 73                	jne    4000861b <CounterDefinitions+0x53b>
    400085a8:	68 00 00 00 00       	push   $0x0
    400085ad:	00 00                	add    %al,(%rax)
    400085af:	00 36                	add    %dh,(%rsi)
    400085b1:	01 00                	add    %eax,(%rax)
    400085b3:	00 01                	add    %al,(%rcx)
    400085b5:	00 00                	add    %al,(%rax)
    400085b7:	00 ff                	add    %bh,%bh
    400085b9:	ff                   	(bad)  
    400085ba:	ff                   	(bad)  
    400085bb:	ff 00                	incl   (%rax)
    400085bd:	00 00                	add    %al,(%rax)
    400085bf:	00 01                	add    %al,(%rcx)
    400085c1:	00 00                	add    %al,(%rax)
    400085c3:	00 00                	add    %al,(%rax)
    400085c5:	00 00                	add    %al,(%rax)
    400085c7:	00 0e                	add    %cl,(%rsi)
    400085c9:	00 00                	add    %al,(%rax)
    400085cb:	00 02                	add    %al,(%rdx)
    400085cd:	00 00                	add    %al,(%rax)
    400085cf:	00 43 6f             	add    %al,0x6f(%rbx)
    400085d2:	64 65 4d 69 73 73 00 	fs imul $0x0,%gs:0x73(%r11),%r14
    400085d9:	00 00 00 
    400085dc:	37                   	(bad)  
    400085dd:	01 00                	add    %eax,(%rax)
    400085df:	00 01                	add    %al,(%rcx)
    400085e1:	00 00                	add    %al,(%rax)
    400085e3:	00 ff                	add    %bh,%bh
    400085e5:	ff                   	(bad)  
    400085e6:	ff                   	(bad)  
    400085e7:	ff 00                	incl   (%rax)
    400085e9:	00 00                	add    %al,(%rax)
    400085eb:	00 01                	add    %al,(%rcx)
    400085ed:	00 00                	add    %al,(%rax)
    400085ef:	00 00                	add    %al,(%rax)
    400085f1:	00 00                	add    %al,(%rax)
    400085f3:	00 29                	add    %ch,(%rcx)
    400085f5:	00 00                	add    %al,(%rax)
    400085f7:	00 02                	add    %al,(%rdx)
    400085f9:	00 00                	add    %al,(%rax)
    400085fb:	00 44 61 74          	add    %al,0x74(%rcx,%riz,2)
    400085ff:	61                   	(bad)  
    40008600:	4d 69 73 73 00 00 00 	imul   $0x0,0x73(%r11),%r14
    40008607:	00 
    40008608:	09 00                	or     %eax,(%rax)
    4000860a:	00 00                	add    %al,(%rax)
    4000860c:	30 00                	xor    %al,(%rax)
    4000860e:	00 00                	add    %al,(%rax)
    40008610:	ff                   	(bad)  
    40008611:	ff                   	(bad)  
    40008612:	ff                   	(bad)  
    40008613:	ff 00                	incl   (%rax)
    40008615:	00 00                	add    %al,(%rax)
    40008617:	00 01                	add    %al,(%rcx)
    40008619:	00 00                	add    %al,(%rax)
    4000861b:	00 00                	add    %al,(%rax)
    4000861d:	00 00                	add    %al,(%rax)
    4000861f:	00 c0                	add    %al,%al
    40008621:	00 00                	add    %al,(%rax)
    40008623:	00 00                	add    %al,(%rax)
    40008625:	00 00                	add    %al,(%rax)
    40008627:	00 49 6e             	add    %cl,0x6e(%rcx)
    4000862a:	73 74                	jae    400086a0 <CounterDefinitions+0x5c0>
    4000862c:	72 75                	jb     400086a3 <CounterDefinitions+0x5c3>
    4000862e:	63 74 00 00          	movsxd 0x0(%rax,%rax,1),%esi
    40008632:	00 00                	add    %al,(%rax)
    40008634:	0a 00                	or     (%rax),%al
    40008636:	00 00                	add    %al,(%rax)
    40008638:	30 00                	xor    %al,(%rax)
    4000863a:	00 00                	add    %al,(%rax)
    4000863c:	ff                   	(bad)  
    4000863d:	ff                   	(bad)  
    4000863e:	ff                   	(bad)  
    4000863f:	ff 00                	incl   (%rax)
    40008641:	00 00                	add    %al,(%rax)
    40008643:	00 01                	add    %al,(%rcx)
    40008645:	00 00                	add    %al,(%rax)
    40008647:	00 00                	add    %al,(%rax)
    40008649:	00 00                	add    %al,(%rax)
    4000864b:	00 d0                	add    %dl,%al
    4000864d:	00 00                	add    %al,(%rax)
    4000864f:	00 00                	add    %al,(%rax)
    40008651:	00 00                	add    %al,(%rax)
    40008653:	00 49 44             	add    %cl,0x44(%rcx)
    40008656:	65 63 6f 64          	movsxd %gs:0x64(%rdi),%ebp
    4000865a:	65 00 00             	add    %al,%gs:(%rax)
    4000865d:	00 00                	add    %al,(%rax)
    4000865f:	00 14 00             	add    %dl,(%rax,%rax,1)
    40008662:	00 00                	add    %al,(%rax)
    40008664:	30 00                	xor    %al,(%rax)
    40008666:	00 00                	add    %al,(%rax)
    40008668:	ff                   	(bad)  
    40008669:	ff                   	(bad)  
    4000866a:	ff                   	(bad)  
    4000866b:	ff 00                	incl   (%rax)
    4000866d:	00 00                	add    %al,(%rax)
    4000866f:	00 01                	add    %al,(%rcx)
    40008671:	00 00                	add    %al,(%rax)
    40008673:	00 00                	add    %al,(%rax)
    40008675:	00 00                	add    %al,(%rax)
    40008677:	00 80 00 00 00 00    	add    %al,0x0(%rax)
    4000867d:	00 00                	add    %al,(%rax)
    4000867f:	00 49 46             	add    %cl,0x46(%rcx)
    40008682:	65 74 63             	gs je  400086e8 <CounterDefinitions+0x608>
    40008685:	68 00 00 00 00       	push   $0x0
    4000868a:	00 00                	add    %al,(%rax)
    4000868c:	15 00 00 00 30       	adc    $0x30000000,%eax
    40008691:	00 00                	add    %al,(%rax)
    40008693:	00 ff                	add    %bh,%bh
    40008695:	ff                   	(bad)  
    40008696:	ff                   	(bad)  
    40008697:	ff 00                	incl   (%rax)
    40008699:	00 00                	add    %al,(%rax)
    4000869b:	00 01                	add    %al,(%rcx)
    4000869d:	00 00                	add    %al,(%rax)
    4000869f:	00 00                	add    %al,(%rax)
    400086a1:	00 00                	add    %al,(%rax)
    400086a3:	00 86 00 00 00 00    	add    %al,0x0(%rsi)
    400086a9:	00 00                	add    %al,(%rax)
    400086ab:	00 49 46             	add    %cl,0x46(%rcx)
    400086ae:	65 74 63             	gs je  40008714 <CounterDefinitions+0x634>
    400086b1:	68 53 74 6c 00       	push   $0x6c7453
    400086b6:	00 00                	add    %al,(%rax)
    400086b8:	16                   	(bad)  
    400086b9:	00 00                	add    %al,(%rax)
    400086bb:	00 30                	add    %dh,(%rax)
    400086bd:	00 00                	add    %al,(%rax)
    400086bf:	00 ff                	add    %bh,%bh
    400086c1:	ff                   	(bad)  
    400086c2:	ff                   	(bad)  
    400086c3:	ff 00                	incl   (%rax)
    400086c5:	00 00                	add    %al,(%rax)
    400086c7:	00 01                	add    %al,(%rcx)
    400086c9:	00 00                	add    %al,(%rax)
    400086cb:	00 00                	add    %al,(%rax)
    400086cd:	00 00                	add    %al,(%rax)
    400086cf:	00 87 00 00 00 00    	add    %al,0x0(%rdi)
    400086d5:	00 00                	add    %al,(%rax)
    400086d7:	00 49 4c             	add    %cl,0x4c(%rcx)
    400086da:	65 6e                	outsb  %gs:(%rsi),(%dx)
    400086dc:	53                   	push   %rbx
    400086dd:	74 61                	je     40008740 <CounterDefinitions+0x660>
    400086df:	6c                   	insb   (%dx),%es:(%rdi)
    400086e0:	00 00                	add    %al,(%rax)
    400086e2:	00 00                	add    %al,(%rax)
    400086e4:	64 00 00             	add    %al,%fs:(%rax)
    400086e7:	00 30                	add    %dh,(%rax)
    400086e9:	00 00                	add    %al,(%rax)
    400086eb:	00 04 00             	add    %al,(%rax,%rax,1)
    400086ee:	00 00                	add    %al,(%rax)
    400086f0:	00 00                	add    %al,(%rax)
    400086f2:	00 00                	add    %al,(%rax)
    400086f4:	01 00                	add    %eax,(%rax)
    400086f6:	00 00                	add    %al,(%rax)
    400086f8:	00 00                	add    %al,(%rax)
    400086fa:	00 00                	add    %al,(%rax)
    400086fc:	c2 00 00             	ret    $0x0
    400086ff:	00 00                	add    %al,(%rax)
    40008701:	00 00                	add    %al,(%rax)
    40008703:	00 55 6f             	add    %dl,0x6f(%rbp)
    40008706:	70 73                	jo     4000877b <CounterDefinitions+0x69b>
    40008708:	28 46 29             	sub    %al,0x29(%rsi)
    4000870b:	00 00                	add    %al,(%rax)
    4000870d:	00 00                	add    %al,(%rax)
    4000870f:	00 64 00 00          	add    %ah,0x0(%rax,%rax,1)
    40008713:	00 30                	add    %dh,(%rax)
    40008715:	00 00                	add    %al,(%rax)
    40008717:	00 ff                	add    %bh,%bh
    40008719:	ff                   	(bad)  
    4000871a:	ff                   	(bad)  
    4000871b:	ff 00                	incl   (%rax)
    4000871d:	00 00                	add    %al,(%rax)
    4000871f:	00 01                	add    %al,(%rcx)
    40008721:	00 00                	add    %al,(%rax)
    40008723:	00 00                	add    %al,(%rax)
    40008725:	00 00                	add    %al,(%rax)
    40008727:	00 c2                	add    %al,%dl
    40008729:	00 00                	add    %al,(%rax)
    4000872b:	00 00                	add    %al,(%rax)
    4000872d:	00 00                	add    %al,(%rax)
    4000872f:	00 55 6f             	add    %dl,0x6f(%rbp)
    40008732:	70 73                	jo     400087a7 <CounterDefinitions+0x6c7>
	...
    4000873c:	6e                   	outsb  %ds:(%rsi),(%dx)
    4000873d:	00 00                	add    %al,(%rax)
    4000873f:	00 30                	add    %dh,(%rax)
    40008741:	00 00                	add    %al,(%rax)
    40008743:	00 04 00             	add    %al,(%rax,%rax,1)
    40008746:	00 00                	add    %al,(%rax)
    40008748:	00 00                	add    %al,(%rax)
    4000874a:	00 00                	add    %al,(%rax)
    4000874c:	01 00                	add    %eax,(%rax)
    4000874e:	00 00                	add    %al,(%rax)
    40008750:	00 00                	add    %al,(%rax)
    40008752:	00 00                	add    %al,(%rax)
    40008754:	a0 00 00 00 00 00 00 	movabs 0x5500000000000000,%al
    4000875b:	00 55 
    4000875d:	6f                   	outsl  %ds:(%rsi),(%dx)
    4000875e:	70 73                	jo     400087d3 <CounterDefinitions+0x6f3>
    40008760:	28 55 46             	sub    %dl,0x46(%rbp)
    40008763:	29 00                	sub    %eax,(%rax)
    40008765:	00 00                	add    %al,(%rax)
    40008767:	00 68 00             	add    %ch,0x0(%rax)
    4000876a:	00 00                	add    %al,(%rax)
    4000876c:	30 00                	xor    %al,(%rax)
    4000876e:	00 00                	add    %al,(%rax)
    40008770:	04 00                	add    $0x0,%al
    40008772:	00 00                	add    %al,(%rax)
    40008774:	00 00                	add    %al,(%rax)
    40008776:	00 00                	add    %al,(%rax)
    40008778:	01 00                	add    %eax,(%rax)
    4000877a:	00 00                	add    %al,(%rax)
    4000877c:	00 00                	add    %al,(%rax)
    4000877e:	00 00                	add    %al,(%rax)
    40008780:	da 00                	fiaddl (%rax)
    40008782:	00 00                	add    %al,(%rax)
    40008784:	00 00                	add    %al,(%rax)
    40008786:	00 00                	add    %al,(%rax)
    40008788:	55                   	push   %rbp
    40008789:	6f                   	outsl  %ds:(%rsi),(%dx)
    4000878a:	70 73                	jo     400087ff <CounterDefinitions+0x71f>
    4000878c:	46 75 73             	rex.RX jne 40008802 <CounterDefinitions+0x722>
    4000878f:	65 64 00 00          	gs add %al,%fs:(%rax)
    40008793:	00 73 00             	add    %dh,0x0(%rbx)
    40008796:	00 00                	add    %al,(%rax)
    40008798:	30 00                	xor    %al,(%rax)
    4000879a:	00 00                	add    %al,(%rax)
    4000879c:	04 00                	add    $0x0,%al
    4000879e:	00 00                	add    %al,(%rax)
    400087a0:	00 00                	add    %al,(%rax)
    400087a2:	00 00                	add    %al,(%rax)
    400087a4:	01 00                	add    %eax,(%rax)
    400087a6:	00 00                	add    %al,(%rax)
    400087a8:	00 00                	add    %al,(%rax)
    400087aa:	00 00                	add    %al,(%rax)
    400087ac:	d3 00                	roll   %cl,(%rax)
    400087ae:	00 00                	add    %al,(%rax)
    400087b0:	00 00                	add    %al,(%rax)
    400087b2:	00 00                	add    %al,(%rax)
    400087b4:	53                   	push   %rbx
    400087b5:	79 6e                	jns    40008825 <CounterDefinitions+0x745>
    400087b7:	63 68 55             	movsxd 0x55(%rax),%ebp
    400087ba:	6f                   	outsl  %ds:(%rsi),(%dx)
    400087bb:	70 73                	jo     40008830 <CounterDefinitions+0x750>
    400087bd:	00 00                	add    %al,(%rax)
    400087bf:	00 79 00             	add    %bh,0x0(%rcx)
    400087c2:	00 00                	add    %al,(%rax)
    400087c4:	30 00                	xor    %al,(%rax)
    400087c6:	00 00                	add    %al,(%rax)
    400087c8:	ff                   	(bad)  
    400087c9:	ff                   	(bad)  
    400087ca:	ff                   	(bad)  
    400087cb:	ff 00                	incl   (%rax)
    400087cd:	00 00                	add    %al,(%rax)
    400087cf:	00 01                	add    %al,(%rcx)
    400087d1:	00 00                	add    %al,(%rax)
    400087d3:	00 00                	add    %al,(%rax)
    400087d5:	00 00                	add    %al,(%rax)
    400087d7:	00 d2                	add    %dl,%dl
    400087d9:	00 00                	add    %al,(%rax)
    400087db:	00 00                	add    %al,(%rax)
    400087dd:	00 00                	add    %al,(%rax)
    400087df:	00 50 61             	add    %dl,0x61(%rax)
    400087e2:	72 74                	jb     40008858 <CounterDefinitions+0x778>
    400087e4:	52                   	push   %rdx
    400087e5:	53                   	push   %rbx
    400087e6:	74 6c                	je     40008854 <CounterDefinitions+0x774>
    400087e8:	00 00                	add    %al,(%rax)
    400087ea:	00 00                	add    %al,(%rax)
    400087ec:	82                   	(bad)  
    400087ed:	00 00                	add    %al,(%rax)
    400087ef:	00 30                	add    %dh,(%rax)
    400087f1:	00 00                	add    %al,(%rax)
    400087f3:	00 ff                	add    %bh,%bh
    400087f5:	ff                   	(bad)  
    400087f6:	ff                   	(bad)  
    400087f7:	ff 00                	incl   (%rax)
    400087f9:	00 00                	add    %al,(%rax)
    400087fb:	00 01                	add    %al,(%rcx)
    400087fd:	00 00                	add    %al,(%rax)
    400087ff:	00 00                	add    %al,(%rax)
    40008801:	00 00                	add    %al,(%rax)
    40008803:	00 a2 00 00 00 00    	add    %ah,0x0(%rdx)
    40008809:	00 00                	add    %al,(%rax)
    4000880b:	00 52 73             	add    %dl,0x73(%rdx)
    4000880e:	20 53 74             	and    %dl,0x74(%rbx)
    40008811:	61                   	(bad)  
    40008812:	6c                   	insb   (%dx),%es:(%rdi)
    40008813:	6c                   	insb   (%dx),%es:(%rdi)
    40008814:	00 00                	add    %al,(%rax)
    40008816:	00 00                	add    %al,(%rax)
    40008818:	c9                   	leave  
    40008819:	00 00                	add    %al,(%rax)
    4000881b:	00 30                	add    %dh,(%rax)
    4000881d:	00 00                	add    %al,(%rax)
    4000881f:	00 ff                	add    %bh,%bh
    40008821:	ff                   	(bad)  
    40008822:	ff                   	(bad)  
    40008823:	ff 00                	incl   (%rax)
    40008825:	00 00                	add    %al,(%rax)
    40008827:	00 01                	add    %al,(%rcx)
    40008829:	00 00                	add    %al,(%rax)
    4000882b:	00 00                	add    %al,(%rax)
    4000882d:	00 00                	add    %al,(%rax)
    4000882f:	00 c9                	add    %cl,%cl
    40008831:	00 00                	add    %al,(%rax)
    40008833:	00 00                	add    %al,(%rax)
    40008835:	00 00                	add    %al,(%rax)
    40008837:	00 42 72             	add    %al,0x72(%rdx)
    4000883a:	54                   	push   %rsp
    4000883b:	61                   	(bad)  
    4000883c:	6b 65 6e 00          	imul   $0x0,0x6e(%rbp),%esp
    40008840:	00 00                	add    %al,(%rax)
    40008842:	00 00                	add    %al,(%rax)
    40008844:	cc                   	int3   
    40008845:	00 00                	add    %al,(%rax)
    40008847:	00 30                	add    %dh,(%rax)
    40008849:	00 00                	add    %al,(%rax)
    4000884b:	00 ff                	add    %bh,%bh
    4000884d:	ff                   	(bad)  
    4000884e:	ff                   	(bad)  
    4000884f:	ff 00                	incl   (%rax)
    40008851:	00 00                	add    %al,(%rax)
    40008853:	00 01                	add    %al,(%rcx)
    40008855:	00 00                	add    %al,(%rax)
    40008857:	00 00                	add    %al,(%rax)
    40008859:	00 00                	add    %al,(%rax)
    4000885b:	00 c5                	add    %al,%ch
    4000885d:	00 00                	add    %al,(%rax)
    4000885f:	00 00                	add    %al,(%rax)
    40008861:	00 00                	add    %al,(%rax)
    40008863:	00 42 72             	add    %al,0x72(%rdx)
    40008866:	4d 69 73 70 72 65 64 	imul   $0x646572,0x70(%r11),%r14
    4000886d:	00 
    4000886e:	00 00                	add    %al,(%rax)
    40008870:	cd 00                	int    $0x0
    40008872:	00 00                	add    %al,(%rax)
    40008874:	30 00                	xor    %al,(%rax)
    40008876:	00 00                	add    %al,(%rax)
    40008878:	ff                   	(bad)  
    40008879:	ff                   	(bad)  
    4000887a:	ff                   	(bad)  
    4000887b:	ff 00                	incl   (%rax)
    4000887d:	00 00                	add    %al,(%rax)
    4000887f:	00 01                	add    %al,(%rcx)
    40008881:	00 00                	add    %al,(%rax)
    40008883:	00 00                	add    %al,(%rax)
    40008885:	00 00                	add    %al,(%rax)
    40008887:	00 e6                	add    %ah,%dh
    40008889:	00 00                	add    %al,(%rax)
    4000888b:	00 00                	add    %al,(%rax)
    4000888d:	00 00                	add    %al,(%rax)
    4000888f:	00 42 54             	add    %al,0x54(%rdx)
    40008892:	42                   	rex.X
    40008893:	4d 69 73 73 00 00 00 	imul   $0x0,0x73(%r11),%r14
    4000889a:	00 
    4000889b:	00 36                	add    %dh,(%rsi)
    4000889d:	01 00                	add    %eax,(%rax)
    4000889f:	00 30                	add    %dh,(%rax)
    400088a1:	00 00                	add    %al,(%rax)
    400088a3:	00 ff                	add    %bh,%bh
    400088a5:	ff                   	(bad)  
    400088a6:	ff                   	(bad)  
    400088a7:	ff 00                	incl   (%rax)
    400088a9:	00 00                	add    %al,(%rax)
    400088ab:	00 01                	add    %al,(%rcx)
    400088ad:	00 00                	add    %al,(%rax)
    400088af:	00 00                	add    %al,(%rax)
    400088b1:	00 00                	add    %al,(%rax)
    400088b3:	00 28                	add    %ch,(%rax)
    400088b5:	00 00                	add    %al,(%rax)
    400088b7:	00 0f                	add    %cl,(%rdi)
    400088b9:	00 00                	add    %al,(%rax)
    400088bb:	00 43 6f             	add    %al,0x6f(%rbx)
    400088be:	64 65 4d 69 73 73 00 	fs imul $0x0,%gs:0x73(%r11),%r14
    400088c5:	00 00 00 
    400088c8:	37                   	(bad)  
    400088c9:	01 00                	add    %eax,(%rax)
    400088cb:	00 30                	add    %dh,(%rax)
    400088cd:	00 00                	add    %al,(%rax)
    400088cf:	00 02                	add    %al,(%rdx)
    400088d1:	00 00                	add    %al,(%rax)
    400088d3:	00 00                	add    %al,(%rax)
    400088d5:	00 00                	add    %al,(%rax)
    400088d7:	00 01                	add    %al,(%rcx)
    400088d9:	00 00                	add    %al,(%rax)
    400088db:	00 00                	add    %al,(%rax)
    400088dd:	00 00                	add    %al,(%rax)
    400088df:	00 29                	add    %ch,(%rcx)
    400088e1:	00 00                	add    %al,(%rax)
    400088e3:	00 0f                	add    %cl,(%rdi)
    400088e5:	00 00                	add    %al,(%rax)
    400088e7:	00 4c 31 44          	add    %cl,0x44(%rcx,%rsi,1)
    400088eb:	20 4d 69             	and    %cl,0x69(%rbp)
    400088ee:	73 73                	jae    40008963 <CounterDefinitions+0x883>
    400088f0:	00 00                	add    %al,(%rax)
    400088f2:	00 00                	add    %al,(%rax)
    400088f4:	01 00                	add    %eax,(%rax)
    400088f6:	00 00                	add    %al,(%rax)
    400088f8:	40 00 00             	rex add %al,(%rax)
    400088fb:	00 ff                	add    %bh,%bh
    400088fd:	ff                   	(bad)  
    400088fe:	ff                   	(bad)  
    400088ff:	ff 01                	incl   (%rcx)
    40008901:	00 00                	add    %al,(%rax)
    40008903:	40 00 00             	rex add %al,(%rax)
	...
    40008912:	00 00                	add    %al,(%rax)
    40008914:	43 6f                	rex.XB outsl %ds:(%rsi),(%dx)
    40008916:	72 65                	jb     4000897d <CounterDefinitions+0x89d>
    40008918:	20 63 79             	and    %ah,0x79(%rbx)
    4000891b:	63 00                	movsxd (%rax),%eax
    4000891d:	00 00                	add    %al,(%rax)
    4000891f:	00 02                	add    %al,(%rdx)
    40008921:	00 00                	add    %al,(%rax)
    40008923:	00 40 00             	add    %al,0x0(%rax)
    40008926:	00 00                	add    %al,(%rax)
    40008928:	ff                   	(bad)  
    40008929:	ff                   	(bad)  
    4000892a:	ff                   	(bad)  
    4000892b:	ff 02                	incl   (%rdx)
    4000892d:	00 00                	add    %al,(%rax)
    4000892f:	40 00 00             	rex add %al,(%rax)
	...
    4000893e:	00 00                	add    %al,(%rax)
    40008940:	52                   	push   %rdx
    40008941:	65 66 20 63 79       	data16 and %ah,%gs:0x79(%rbx)
    40008946:	63 00                	movsxd (%rax),%eax
    40008948:	00 00                	add    %al,(%rax)
    4000894a:	00 00                	add    %al,(%rax)
    4000894c:	09 00                	or     %eax,(%rax)
    4000894e:	00 00                	add    %al,(%rax)
    40008950:	40 00 00             	rex add %al,(%rax)
    40008953:	00 ff                	add    %bh,%bh
    40008955:	ff                   	(bad)  
    40008956:	ff                   	(bad)  
    40008957:	ff 00                	incl   (%rax)
    40008959:	00 00                	add    %al,(%rax)
    4000895b:	40 00 00             	rex add %al,(%rax)
	...
    4000896a:	00 00                	add    %al,(%rax)
    4000896c:	49 6e                	rex.WB outsb %ds:(%rsi),(%dx)
    4000896e:	73 74                	jae    400089e4 <CounterDefinitions+0x904>
    40008970:	72 75                	jb     400089e7 <CounterDefinitions+0x907>
    40008972:	63 74 00 00          	movsxd 0x0(%rax,%rax,1),%esi
    40008976:	00 00                	add    %al,(%rax)
    40008978:	0a 00                	or     (%rax),%al
    4000897a:	00 00                	add    %al,(%rax)
    4000897c:	40 00 00             	rex add %al,(%rax)
    4000897f:	00 ff                	add    %bh,%bh
    40008981:	ff                   	(bad)  
    40008982:	ff                   	(bad)  
    40008983:	ff 00                	incl   (%rax)
    40008985:	00 00                	add    %al,(%rax)
    40008987:	00 01                	add    %al,(%rcx)
    40008989:	00 00                	add    %al,(%rax)
    4000898b:	00 00                	add    %al,(%rax)
    4000898d:	00 00                	add    %al,(%rax)
    4000898f:	00 c0                	add    %al,%al
    40008991:	00 00                	add    %al,(%rax)
    40008993:	00 0f                	add    %cl,(%rdi)
    40008995:	00 00                	add    %al,(%rax)
    40008997:	00 49 6e             	add    %cl,0x6e(%rcx)
    4000899a:	73 74                	jae    40008a10 <CounterDefinitions+0x930>
    4000899c:	72 75                	jb     40008a13 <CounterDefinitions+0x933>
    4000899e:	63 74 00 00          	movsxd 0x0(%rax,%rax,1),%esi
    400089a2:	00 00                	add    %al,(%rax)
    400089a4:	0b 00                	or     (%rax),%eax
    400089a6:	00 00                	add    %al,(%rax)
    400089a8:	40 00 00             	rex add %al,(%rax)
    400089ab:	00 ff                	add    %bh,%bh
    400089ad:	ff                   	(bad)  
    400089ae:	ff                   	(bad)  
    400089af:	ff 00                	incl   (%rax)
    400089b1:	00 00                	add    %al,(%rax)
    400089b3:	00 01                	add    %al,(%rcx)
    400089b5:	00 00                	add    %al,(%rax)
    400089b7:	00 00                	add    %al,(%rax)
    400089b9:	00 00                	add    %al,(%rax)
    400089bb:	00 c0                	add    %al,%al
    400089bd:	00 00                	add    %al,(%rax)
    400089bf:	00 01                	add    %al,(%rcx)
    400089c1:	00 00                	add    %al,(%rax)
    400089c3:	00 52 65             	add    %dl,0x65(%rdx)
    400089c6:	61                   	(bad)  
    400089c7:	64 20 69 6e          	and    %ch,%fs:0x6e(%rcx)
    400089cb:	73 74                	jae    40008a41 <CounterDefinitions+0x961>
    400089cd:	00 00                	add    %al,(%rax)
    400089cf:	00 0c 00             	add    %cl,(%rax,%rax,1)
    400089d2:	00 00                	add    %al,(%rax)
    400089d4:	40 00 00             	rex add %al,(%rax)
    400089d7:	00 ff                	add    %bh,%bh
    400089d9:	ff                   	(bad)  
    400089da:	ff                   	(bad)  
    400089db:	ff 00                	incl   (%rax)
    400089dd:	00 00                	add    %al,(%rax)
    400089df:	00 01                	add    %al,(%rcx)
    400089e1:	00 00                	add    %al,(%rax)
    400089e3:	00 00                	add    %al,(%rax)
    400089e5:	00 00                	add    %al,(%rax)
    400089e7:	00 c0                	add    %al,%al
    400089e9:	00 00                	add    %al,(%rax)
    400089eb:	00 02                	add    %al,(%rdx)
    400089ed:	00 00                	add    %al,(%rax)
    400089ef:	00 57 72             	add    %dl,0x72(%rdi)
    400089f2:	69 74 65 20 69 6e 73 	imul   $0x736e69,0x20(%rbp,%riz,2),%esi
    400089f9:	00 
    400089fa:	00 00                	add    %al,(%rax)
    400089fc:	0d 00 00 00 40       	or     $0x40000000,%eax
    40008a01:	00 00                	add    %al,(%rax)
    40008a03:	00 ff                	add    %bh,%bh
    40008a05:	ff                   	(bad)  
    40008a06:	ff                   	(bad)  
    40008a07:	ff 00                	incl   (%rax)
    40008a09:	00 00                	add    %al,(%rax)
    40008a0b:	00 01                	add    %al,(%rcx)
    40008a0d:	00 00                	add    %al,(%rax)
    40008a0f:	00 00                	add    %al,(%rax)
    40008a11:	00 00                	add    %al,(%rax)
    40008a13:	00 c0                	add    %al,%al
    40008a15:	00 00                	add    %al,(%rax)
    40008a17:	00 04 00             	add    %al,(%rax,%rax,1)
    40008a1a:	00 00                	add    %al,(%rax)
    40008a1c:	4e 6f                	rex.WRX outsl %ds:(%rsi),(%dx)
    40008a1e:	6e                   	outsb  %ds:(%rsi),(%dx)
    40008a1f:	4d                   	rex.WRB
    40008a20:	65 6d                	gs insl (%dx),%es:(%rdi)
    40008a22:	20 69 6e             	and    %ch,0x6e(%rcx)
    40008a25:	00 00                	add    %al,(%rax)
    40008a27:	00 14 00             	add    %dl,(%rax,%rax,1)
    40008a2a:	00 00                	add    %al,(%rax)
    40008a2c:	40 00 00             	rex add %al,(%rax)
    40008a2f:	00 ff                	add    %bh,%bh
    40008a31:	ff                   	(bad)  
    40008a32:	ff                   	(bad)  
    40008a33:	ff 00                	incl   (%rax)
    40008a35:	00 00                	add    %al,(%rax)
    40008a37:	00 01                	add    %al,(%rcx)
    40008a39:	00 00                	add    %al,(%rax)
    40008a3b:	00 00                	add    %al,(%rax)
    40008a3d:	00 00                	add    %al,(%rax)
    40008a3f:	00 80 00 00 00 00    	add    %al,0x0(%rax)
    40008a45:	00 00                	add    %al,(%rax)
    40008a47:	00 49 6e             	add    %cl,0x6e(%rcx)
    40008a4a:	73 66                	jae    40008ab2 <CounterDefinitions+0x9d2>
    40008a4c:	65 74 63             	gs je  40008ab2 <CounterDefinitions+0x9d2>
    40008a4f:	68 00 00 00 00       	push   $0x0
    40008a54:	15 00 00 00 40       	adc    $0x40000000,%eax
    40008a59:	00 00                	add    %al,(%rax)
    40008a5b:	00 ff                	add    %bh,%bh
    40008a5d:	ff                   	(bad)  
    40008a5e:	ff                   	(bad)  
    40008a5f:	ff 00                	incl   (%rax)
    40008a61:	00 00                	add    %al,(%rax)
    40008a63:	00 01                	add    %al,(%rcx)
    40008a65:	00 00                	add    %al,(%rax)
    40008a67:	00 00                	add    %al,(%rax)
    40008a69:	00 00                	add    %al,(%rax)
    40008a6b:	00 86 00 00 00 00    	add    %al,0x0(%rsi)
    40008a71:	00 00                	add    %al,(%rax)
    40008a73:	00 49 46             	add    %cl,0x46(%rcx)
    40008a76:	65 74 63             	gs je  40008adc <CounterDefinitions+0x9fc>
    40008a79:	68 53 74 6c 00       	push   $0x6c7453
    40008a7e:	00 00                	add    %al,(%rax)
    40008a80:	16                   	(bad)  
    40008a81:	00 00                	add    %al,(%rax)
    40008a83:	00 40 00             	add    %al,0x0(%rax)
    40008a86:	00 00                	add    %al,(%rax)
    40008a88:	ff                   	(bad)  
    40008a89:	ff                   	(bad)  
    40008a8a:	ff                   	(bad)  
    40008a8b:	ff 00                	incl   (%rax)
    40008a8d:	00 00                	add    %al,(%rax)
    40008a8f:	00 01                	add    %al,(%rcx)
    40008a91:	00 00                	add    %al,(%rax)
    40008a93:	00 00                	add    %al,(%rax)
    40008a95:	00 00                	add    %al,(%rax)
    40008a97:	00 87 00 00 00 00    	add    %al,0x0(%rdi)
    40008a9d:	00 00                	add    %al,(%rax)
    40008a9f:	00 49 4c             	add    %cl,0x4c(%rcx)
    40008aa2:	65 6e                	outsb  %gs:(%rsi),(%dx)
    40008aa4:	53                   	push   %rbx
    40008aa5:	74 61                	je     40008b08 <CounterDefinitions+0xa28>
    40008aa7:	6c                   	insb   (%dx),%es:(%rdi)
    40008aa8:	00 00                	add    %al,(%rax)
    40008aaa:	00 00                	add    %al,(%rax)
    40008aac:	17                   	(bad)  
    40008aad:	00 00                	add    %al,(%rax)
    40008aaf:	00 40 00             	add    %al,0x0(%rax)
    40008ab2:	00 00                	add    %al,(%rax)
    40008ab4:	ff                   	(bad)  
    40008ab5:	ff                   	(bad)  
    40008ab6:	ff                   	(bad)  
    40008ab7:	ff 00                	incl   (%rax)
    40008ab9:	00 00                	add    %al,(%rax)
    40008abb:	00 01                	add    %al,(%rcx)
    40008abd:	00 00                	add    %al,(%rax)
    40008abf:	00 00                	add    %al,(%rax)
    40008ac1:	00 00                	add    %al,(%rax)
    40008ac3:	00 83 00 00 00 00    	add    %al,0x0(%rbx)
    40008ac9:	00 00                	add    %al,(%rax)
    40008acb:	00 49 51             	add    %cl,0x51(%rcx)
    40008ace:	75 65                	jne    40008b35 <CounterDefinitions+0xa55>
    40008ad0:	20 66 75             	and    %ah,0x75(%rsi)
    40008ad3:	6c                   	insb   (%dx),%es:(%rdi)
    40008ad4:	00 00                	add    %al,(%rax)
    40008ad6:	00 00                	add    %al,(%rax)
    40008ad8:	64 00 00             	add    %al,%fs:(%rax)
    40008adb:	00 40 00             	add    %al,0x0(%rax)
    40008ade:	00 00                	add    %al,(%rax)
    40008ae0:	ff                   	(bad)  
    40008ae1:	ff                   	(bad)  
    40008ae2:	ff                   	(bad)  
    40008ae3:	ff 00                	incl   (%rax)
    40008ae5:	00 00                	add    %al,(%rax)
    40008ae7:	00 01                	add    %al,(%rcx)
    40008ae9:	00 00                	add    %al,(%rax)
    40008aeb:	00 00                	add    %al,(%rax)
    40008aed:	00 00                	add    %al,(%rax)
    40008aef:	00 c2                	add    %al,%dl
    40008af1:	00 00                	add    %al,(%rax)
    40008af3:	00 0f                	add    %cl,(%rdi)
    40008af5:	00 00                	add    %al,(%rax)
    40008af7:	00 55 6f             	add    %dl,0x6f(%rbp)
    40008afa:	70 73                	jo     40008b6f <CounterDefinitions+0xa8f>
	...
    40008b04:	65 00 00             	add    %al,%gs:(%rax)
    40008b07:	00 40 00             	add    %al,0x0(%rax)
    40008b0a:	00 00                	add    %al,(%rax)
    40008b0c:	ff                   	(bad)  
    40008b0d:	ff                   	(bad)  
    40008b0e:	ff                   	(bad)  
    40008b0f:	ff 00                	incl   (%rax)
    40008b11:	00 00                	add    %al,(%rax)
    40008b13:	00 01                	add    %al,(%rcx)
    40008b15:	00 00                	add    %al,(%rax)
    40008b17:	00 00                	add    %al,(%rax)
    40008b19:	00 00                	add    %al,(%rax)
    40008b1b:	00 c2                	add    %al,%dl
    40008b1d:	00 00                	add    %al,(%rax)
    40008b1f:	00 01                	add    %al,(%rcx)
    40008b21:	00 00                	add    %al,(%rax)
    40008b23:	00 46 75             	add    %al,0x75(%rsi)
    40008b26:	73 65                	jae    40008b8d <CounterDefinitions+0xaad>
    40008b28:	64 20 52 64          	and    %dl,%fs:0x64(%rdx)
    40008b2c:	00 00                	add    %al,(%rax)
    40008b2e:	00 00                	add    %al,(%rax)
    40008b30:	66 00 00             	data16 add %al,(%rax)
    40008b33:	00 40 00             	add    %al,0x0(%rax)
    40008b36:	00 00                	add    %al,(%rax)
    40008b38:	ff                   	(bad)  
    40008b39:	ff                   	(bad)  
    40008b3a:	ff                   	(bad)  
    40008b3b:	ff 00                	incl   (%rax)
    40008b3d:	00 00                	add    %al,(%rax)
    40008b3f:	00 01                	add    %al,(%rcx)
    40008b41:	00 00                	add    %al,(%rax)
    40008b43:	00 00                	add    %al,(%rax)
    40008b45:	00 00                	add    %al,(%rax)
    40008b47:	00 c2                	add    %al,%dl
    40008b49:	00 00                	add    %al,(%rax)
    40008b4b:	00 02                	add    %al,(%rdx)
    40008b4d:	00 00                	add    %al,(%rax)
    40008b4f:	00 46 75             	add    %al,0x75(%rsi)
    40008b52:	73 65                	jae    40008bb9 <CounterDefinitions+0xad9>
    40008b54:	64 20 57 72          	and    %dl,%fs:0x72(%rdi)
    40008b58:	74 00                	je     40008b5a <CounterDefinitions+0xa7a>
    40008b5a:	00 00                	add    %al,(%rax)
    40008b5c:	67 00 00             	add    %al,(%eax)
    40008b5f:	00 40 00             	add    %al,0x0(%rax)
    40008b62:	00 00                	add    %al,(%rax)
    40008b64:	ff                   	(bad)  
    40008b65:	ff                   	(bad)  
    40008b66:	ff                   	(bad)  
    40008b67:	ff 00                	incl   (%rax)
    40008b69:	00 00                	add    %al,(%rax)
    40008b6b:	00 01                	add    %al,(%rcx)
    40008b6d:	00 00                	add    %al,(%rax)
    40008b6f:	00 00                	add    %al,(%rax)
    40008b71:	00 00                	add    %al,(%rax)
    40008b73:	00 c2                	add    %al,%dl
    40008b75:	00 00                	add    %al,(%rax)
    40008b77:	00 04 00             	add    %al,(%rax,%rax,1)
    40008b7a:	00 00                	add    %al,(%rax)
    40008b7c:	4d 61                	rex.WRB (bad) 
    40008b7e:	63 72 6f             	movsxd 0x6f(%rdx),%esi
    40008b81:	66 75 73             	data16 jne 40008bf7 <CounterDefinitions+0xb17>
    40008b84:	00 00                	add    %al,(%rax)
    40008b86:	00 00                	add    %al,(%rax)
    40008b88:	68 00 00 00 40       	push   $0x40000000
    40008b8d:	00 00                	add    %al,(%rax)
    40008b8f:	00 ff                	add    %bh,%bh
    40008b91:	ff                   	(bad)  
    40008b92:	ff                   	(bad)  
    40008b93:	ff 00                	incl   (%rax)
    40008b95:	00 00                	add    %al,(%rax)
    40008b97:	00 01                	add    %al,(%rcx)
    40008b99:	00 00                	add    %al,(%rax)
    40008b9b:	00 00                	add    %al,(%rax)
    40008b9d:	00 00                	add    %al,(%rax)
    40008b9f:	00 c2                	add    %al,%dl
    40008ba1:	00 00                	add    %al,(%rax)
    40008ba3:	00 07                	add    %al,(%rdi)
    40008ba5:	00 00                	add    %al,(%rax)
    40008ba7:	00 46 75             	add    %al,0x75(%rsi)
    40008baa:	73 65                	jae    40008c11 <CounterDefinitions+0xb31>
    40008bac:	64 55                	fs push %rbp
    40008bae:	6f                   	outsl  %ds:(%rsi),(%dx)
    40008baf:	70 00                	jo     40008bb1 <CounterDefinitions+0xad1>
    40008bb1:	00 00                	add    %al,(%rax)
    40008bb3:	00 69 00             	add    %ch,0x0(%rcx)
    40008bb6:	00 00                	add    %al,(%rax)
    40008bb8:	40 00 00             	rex add %al,(%rax)
    40008bbb:	00 ff                	add    %bh,%bh
    40008bbd:	ff                   	(bad)  
    40008bbe:	ff                   	(bad)  
    40008bbf:	ff 00                	incl   (%rax)
    40008bc1:	00 00                	add    %al,(%rax)
    40008bc3:	00 01                	add    %al,(%rcx)
    40008bc5:	00 00                	add    %al,(%rax)
    40008bc7:	00 00                	add    %al,(%rax)
    40008bc9:	00 00                	add    %al,(%rax)
    40008bcb:	00 c2                	add    %al,%dl
    40008bcd:	00 00                	add    %al,(%rax)
    40008bcf:	00 08                	add    %cl,(%rax)
    40008bd1:	00 00                	add    %al,(%rax)
    40008bd3:	00 4e 6f             	add    %cl,0x6f(%rsi)
    40008bd6:	74 46                	je     40008c1e <CounterDefinitions+0xb3e>
    40008bd8:	75 73                	jne    40008c4d <CounterDefinitions+0xb6d>
    40008bda:	55                   	push   %rbp
    40008bdb:	6f                   	outsl  %ds:(%rsi),(%dx)
    40008bdc:	70 00                	jo     40008bde <CounterDefinitions+0xafe>
    40008bde:	00 00                	add    %al,(%rax)
    40008be0:	6e                   	outsb  %ds:(%rsi),(%dx)
    40008be1:	00 00                	add    %al,(%rax)
    40008be3:	00 40 00             	add    %al,0x0(%rax)
    40008be6:	00 00                	add    %al,(%rax)
    40008be8:	ff                   	(bad)  
    40008be9:	ff                   	(bad)  
    40008bea:	ff                   	(bad)  
    40008beb:	ff 00                	incl   (%rax)
    40008bed:	00 00                	add    %al,(%rax)
    40008bef:	00 01                	add    %al,(%rcx)
    40008bf1:	00 00                	add    %al,(%rax)
    40008bf3:	00 00                	add    %al,(%rax)
    40008bf5:	00 00                	add    %al,(%rax)
    40008bf7:	00 a0 00 00 00 00    	add    %ah,0x0(%rax)
    40008bfd:	00 00                	add    %al,(%rax)
    40008bff:	00 55 6f             	add    %dl,0x6f(%rbp)
    40008c02:	70 73                	jo     40008c77 <CounterDefinitions+0xb97>
    40008c04:	20 55 46             	and    %dl,0x46(%rbp)
    40008c07:	44 00 00             	add    %r8b,(%rax)
    40008c0a:	00 00                	add    %al,(%rax)
    40008c0c:	6f                   	outsl  %ds:(%rsi),(%dx)
    40008c0d:	00 00                	add    %al,(%rax)
    40008c0f:	00 40 00             	add    %al,0x0(%rax)
    40008c12:	00 00                	add    %al,(%rax)
    40008c14:	ff                   	(bad)  
    40008c15:	ff                   	(bad)  
    40008c16:	ff                   	(bad)  
    40008c17:	ff 00                	incl   (%rax)
    40008c19:	00 00                	add    %al,(%rax)
    40008c1b:	00 01                	add    %al,(%rcx)
    40008c1d:	00 00                	add    %al,(%rax)
    40008c1f:	00 00                	add    %al,(%rax)
    40008c21:	00 00                	add    %al,(%rax)
    40008c23:	00 a2 00 00 00 00    	add    %ah,0x0(%rdx)
    40008c29:	00 00                	add    %al,(%rax)
    40008c2b:	00 72 65             	add    %dh,0x65(%rdx)
    40008c2e:	73 2e                	jae    40008c5e <CounterDefinitions+0xb7e>
    40008c30:	73 74                	jae    40008ca6 <CounterDefinitions+0xbc6>
    40008c32:	6c                   	insb   (%dx),%es:(%rdi)
    40008c33:	2e 00 00             	cs add %al,(%rax)
    40008c36:	00 00                	add    %al,(%rax)
    40008c38:	73 00                	jae    40008c3a <CounterDefinitions+0xb5a>
    40008c3a:	00 00                	add    %al,(%rax)
    40008c3c:	40 00 00             	rex add %al,(%rax)
    40008c3f:	00 ff                	add    %bh,%bh
    40008c41:	ff                   	(bad)  
    40008c42:	ff                   	(bad)  
    40008c43:	ff 00                	incl   (%rax)
    40008c45:	00 00                	add    %al,(%rax)
    40008c47:	00 01                	add    %al,(%rcx)
    40008c49:	00 00                	add    %al,(%rax)
    40008c4b:	00 00                	add    %al,(%rax)
    40008c4d:	00 00                	add    %al,(%rax)
    40008c4f:	00 ab 00 00 00 01    	add    %ch,0x1000000(%rbx)
    40008c55:	00 00                	add    %al,(%rax)
    40008c57:	00 53 50             	add    %dl,0x50(%rbx)
    40008c5a:	20 73 79             	and    %dh,0x79(%rbx)
    40008c5d:	6e                   	outsb  %ds:(%rsi),(%dx)
    40008c5e:	63 68 00             	movsxd 0x0(%rax),%ebp
    40008c61:	00 00                	add    %al,(%rax)
    40008c63:	00 74 00 00          	add    %dh,0x0(%rax,%rax,1)
    40008c67:	00 40 00             	add    %al,0x0(%rax)
    40008c6a:	00 00                	add    %al,(%rax)
    40008c6c:	ff                   	(bad)  
    40008c6d:	ff                   	(bad)  
    40008c6e:	ff                   	(bad)  
    40008c6f:	ff 00                	incl   (%rax)
    40008c71:	00 00                	add    %al,(%rax)
    40008c73:	00 01                	add    %al,(%rcx)
    40008c75:	00 00                	add    %al,(%rax)
    40008c77:	00 00                	add    %al,(%rax)
    40008c79:	00 00                	add    %al,(%rax)
    40008c7b:	00 ab 00 00 00 02    	add    %ch,0x2000000(%rbx)
    40008c81:	00 00                	add    %al,(%rax)
    40008c83:	00 53 50             	add    %dl,0x50(%rbx)
    40008c86:	20 65 6e             	and    %ah,0x6e(%rbp)
    40008c89:	67 69 6e 65 00 00 00 	imul   $0x79000000,0x65(%esi),%ebp
    40008c90:	79 
    40008c91:	00 00                	add    %al,(%rax)
    40008c93:	00 40 00             	add    %al,0x0(%rax)
    40008c96:	00 00                	add    %al,(%rax)
    40008c98:	ff                   	(bad)  
    40008c99:	ff                   	(bad)  
    40008c9a:	ff                   	(bad)  
    40008c9b:	ff 00                	incl   (%rax)
    40008c9d:	00 00                	add    %al,(%rax)
    40008c9f:	00 01                	add    %al,(%rcx)
    40008ca1:	00 00                	add    %al,(%rax)
    40008ca3:	00 00                	add    %al,(%rax)
    40008ca5:	00 00                	add    %al,(%rax)
    40008ca7:	00 d2                	add    %dl,%dl
    40008ca9:	00 00                	add    %al,(%rax)
    40008cab:	00 02                	add    %al,(%rdx)
    40008cad:	00 00                	add    %al,(%rax)
    40008caf:	00 50 61             	add    %dl,0x61(%rax)
    40008cb2:	72 74                	jb     40008d28 <CounterDefinitions+0xc48>
    40008cb4:	2e 72 65             	jb,pn  40008d1c <CounterDefinitions+0xc3c>
    40008cb7:	67 00 00             	add    %al,(%eax)
    40008cba:	00 00                	add    %al,(%rax)
    40008cbc:	7a 00                	jp     40008cbe <CounterDefinitions+0xbde>
    40008cbe:	00 00                	add    %al,(%rax)
    40008cc0:	40 00 00             	rex add %al,(%rax)
    40008cc3:	00 ff                	add    %bh,%bh
    40008cc5:	ff                   	(bad)  
    40008cc6:	ff                   	(bad)  
    40008cc7:	ff 00                	incl   (%rax)
    40008cc9:	00 00                	add    %al,(%rax)
    40008ccb:	00 01                	add    %al,(%rcx)
    40008ccd:	00 00                	add    %al,(%rax)
    40008ccf:	00 00                	add    %al,(%rax)
    40008cd1:	00 00                	add    %al,(%rax)
    40008cd3:	00 d2                	add    %dl,%dl
    40008cd5:	00 00                	add    %al,(%rax)
    40008cd7:	00 04 00             	add    %al,(%rax,%rax,1)
    40008cda:	00 00                	add    %al,(%rax)
    40008cdc:	70 61                	jo     40008d3f <CounterDefinitions+0xc5f>
    40008cde:	72 74                	jb     40008d54 <CounterDefinitions+0xc74>
    40008ce0:	2e 66 6c             	cs data16 insb (%dx),%es:(%rdi)
    40008ce3:	61                   	(bad)  
    40008ce4:	67 00 00             	add    %al,(%eax)
    40008ce7:	00 7b 00             	add    %bh,0x0(%rbx)
    40008cea:	00 00                	add    %al,(%rax)
    40008cec:	40 00 00             	rex add %al,(%rax)
    40008cef:	00 ff                	add    %bh,%bh
    40008cf1:	ff                   	(bad)  
    40008cf2:	ff                   	(bad)  
    40008cf3:	ff 00                	incl   (%rax)
    40008cf5:	00 00                	add    %al,(%rax)
    40008cf7:	00 01                	add    %al,(%rcx)
    40008cf9:	00 00                	add    %al,(%rax)
    40008cfb:	00 00                	add    %al,(%rax)
    40008cfd:	00 00                	add    %al,(%rax)
    40008cff:	00 d2                	add    %dl,%dl
    40008d01:	00 00                	add    %al,(%rax)
    40008d03:	00 08                	add    %cl,(%rax)
    40008d05:	00 00                	add    %al,(%rax)
    40008d07:	00 46 50             	add    %al,0x50(%rsi)
    40008d0a:	20 53 57             	and    %dl,0x57(%rbx)
    40008d0d:	20 73 74             	and    %dh,0x74(%rbx)
    40008d10:	6c                   	insb   (%dx),%es:(%rdi)
    40008d11:	00 00                	add    %al,(%rax)
    40008d13:	00 82 00 00 00 40    	add    %al,0x40000000(%rdx)
    40008d19:	00 00                	add    %al,(%rax)
    40008d1b:	00 ff                	add    %bh,%bh
    40008d1d:	ff                   	(bad)  
    40008d1e:	ff                   	(bad)  
    40008d1f:	ff 00                	incl   (%rax)
    40008d21:	00 00                	add    %al,(%rax)
    40008d23:	00 01                	add    %al,(%rcx)
    40008d25:	00 00                	add    %al,(%rax)
    40008d27:	00 00                	add    %al,(%rax)
    40008d29:	00 00                	add    %al,(%rax)
    40008d2b:	00 d2                	add    %dl,%dl
    40008d2d:	00 00                	add    %al,(%rax)
    40008d2f:	00 01                	add    %al,(%rcx)
    40008d31:	00 00                	add    %al,(%rax)
    40008d33:	00 52 20             	add    %dl,0x20(%rdx)
    40008d36:	52                   	push   %rdx
    40008d37:	64 20 73 74          	and    %dh,%fs:0x74(%rbx)
    40008d3b:	61                   	(bad)  
    40008d3c:	6c                   	insb   (%dx),%es:(%rdi)
    40008d3d:	00 00                	add    %al,(%rax)
    40008d3f:	00 8c 00 00 00 40 00 	add    %cl,0x400000(%rax,%rax,1)
    40008d46:	00 00                	add    %al,(%rax)
    40008d48:	ff                   	(bad)  
    40008d49:	ff                   	(bad)  
    40008d4a:	ff                   	(bad)  
    40008d4b:	ff 00                	incl   (%rax)
    40008d4d:	00 00                	add    %al,(%rax)
    40008d4f:	00 01                	add    %al,(%rcx)
    40008d51:	00 00                	add    %al,(%rax)
    40008d53:	00 00                	add    %al,(%rax)
    40008d55:	00 00                	add    %al,(%rax)
    40008d57:	00 19                	add    %bl,(%rcx)
    40008d59:	00 00                	add    %al,(%rax)
    40008d5b:	00 00                	add    %al,(%rax)
    40008d5d:	00 00                	add    %al,(%rax)
    40008d5f:	00 49 32             	add    %cl,0x32(%rcx)
    40008d62:	46 50                	rex.RX push %rax
    40008d64:	20 70 61             	and    %dh,0x61(%rax)
    40008d67:	73 73                	jae    40008ddc <CounterDefinitions+0xcfc>
    40008d69:	00 00                	add    %al,(%rax)
    40008d6b:	00 8d 00 00 00 40    	add    %cl,0x40000000(%rbp)
    40008d71:	00 00                	add    %al,(%rax)
    40008d73:	00 ff                	add    %bh,%bh
    40008d75:	ff                   	(bad)  
    40008d76:	ff                   	(bad)  
    40008d77:	ff 00                	incl   (%rax)
    40008d79:	00 00                	add    %al,(%rax)
    40008d7b:	00 01                	add    %al,(%rcx)
    40008d7d:	00 00                	add    %al,(%rax)
    40008d7f:	00 00                	add    %al,(%rax)
    40008d81:	00 00                	add    %al,(%rax)
    40008d83:	00 19                	add    %bl,(%rcx)
    40008d85:	00 00                	add    %al,(%rax)
    40008d87:	00 01                	add    %al,(%rcx)
    40008d89:	00 00                	add    %al,(%rax)
    40008d8b:	00 46 50             	add    %al,0x50(%rsi)
    40008d8e:	32 49 20             	xor    0x20(%rcx),%cl
    40008d91:	70 61                	jo     40008df4 <CounterDefinitions+0xd14>
    40008d93:	73 73                	jae    40008e08 <CounterDefinitions+0xd28>
    40008d95:	00 00                	add    %al,(%rax)
    40008d97:	00 96 00 00 00 40    	add    %dl,0x40000000(%rsi)
    40008d9d:	00 00                	add    %al,(%rax)
    40008d9f:	00 ff                	add    %bh,%bh
    40008da1:	ff                   	(bad)  
    40008da2:	ff                   	(bad)  
    40008da3:	ff 00                	incl   (%rax)
	...
    40008dad:	00 00                	add    %al,(%rax)
    40008daf:	00 a1 00 00 00 01    	add    %ah,0x1000000(%rcx)
    40008db5:	00 00                	add    %al,(%rax)
    40008db7:	00 75 6f             	add    %dh,0x6f(%rbp)
    40008dba:	70 20                	jo     40008ddc <CounterDefinitions+0xcfc>
    40008dbc:	70 30                	jo     40008dee <CounterDefinitions+0xd0e>
    40008dbe:	00 00                	add    %al,(%rax)
    40008dc0:	00 00                	add    %al,(%rax)
    40008dc2:	00 00                	add    %al,(%rax)
    40008dc4:	97                   	xchg   %eax,%edi
    40008dc5:	00 00                	add    %al,(%rax)
    40008dc7:	00 40 00             	add    %al,0x0(%rax)
    40008dca:	00 00                	add    %al,(%rax)
    40008dcc:	ff                   	(bad)  
    40008dcd:	ff                   	(bad)  
    40008dce:	ff                   	(bad)  
    40008dcf:	ff 00                	incl   (%rax)
	...
    40008dd9:	00 00                	add    %al,(%rax)
    40008ddb:	00 a1 00 00 00 02    	add    %ah,0x2000000(%rcx)
    40008de1:	00 00                	add    %al,(%rax)
    40008de3:	00 75 6f             	add    %dh,0x6f(%rbp)
    40008de6:	70 20                	jo     40008e08 <CounterDefinitions+0xd28>
    40008de8:	70 31                	jo     40008e1b <CounterDefinitions+0xd3b>
    40008dea:	00 00                	add    %al,(%rax)
    40008dec:	00 00                	add    %al,(%rax)
    40008dee:	00 00                	add    %al,(%rax)
    40008df0:	98                   	cwtl   
    40008df1:	00 00                	add    %al,(%rax)
    40008df3:	00 40 00             	add    %al,0x0(%rax)
    40008df6:	00 00                	add    %al,(%rax)
    40008df8:	ff                   	(bad)  
    40008df9:	ff                   	(bad)  
    40008dfa:	ff                   	(bad)  
    40008dfb:	ff 00                	incl   (%rax)
	...
    40008e05:	00 00                	add    %al,(%rax)
    40008e07:	00 a1 00 00 00 04    	add    %ah,0x4000000(%rcx)
    40008e0d:	00 00                	add    %al,(%rax)
    40008e0f:	00 75 6f             	add    %dh,0x6f(%rbp)
    40008e12:	70 20                	jo     40008e34 <CounterDefinitions+0xd54>
    40008e14:	70 32                	jo     40008e48 <CounterDefinitions+0xd68>
    40008e16:	00 00                	add    %al,(%rax)
    40008e18:	00 00                	add    %al,(%rax)
    40008e1a:	00 00                	add    %al,(%rax)
    40008e1c:	99                   	cltd   
    40008e1d:	00 00                	add    %al,(%rax)
    40008e1f:	00 40 00             	add    %al,0x0(%rax)
    40008e22:	00 00                	add    %al,(%rax)
    40008e24:	ff                   	(bad)  
    40008e25:	ff                   	(bad)  
    40008e26:	ff                   	(bad)  
    40008e27:	ff 00                	incl   (%rax)
	...
    40008e31:	00 00                	add    %al,(%rax)
    40008e33:	00 a1 00 00 00 08    	add    %ah,0x8000000(%rcx)
    40008e39:	00 00                	add    %al,(%rax)
    40008e3b:	00 75 6f             	add    %dh,0x6f(%rbp)
    40008e3e:	70 20                	jo     40008e60 <CounterDefinitions+0xd80>
    40008e40:	70 33                	jo     40008e75 <CounterDefinitions+0xd95>
    40008e42:	00 00                	add    %al,(%rax)
    40008e44:	00 00                	add    %al,(%rax)
    40008e46:	00 00                	add    %al,(%rax)
    40008e48:	9a                   	(bad)  
    40008e49:	00 00                	add    %al,(%rax)
    40008e4b:	00 40 00             	add    %al,0x0(%rax)
    40008e4e:	00 00                	add    %al,(%rax)
    40008e50:	ff                   	(bad)  
    40008e51:	ff                   	(bad)  
    40008e52:	ff                   	(bad)  
    40008e53:	ff 00                	incl   (%rax)
	...
    40008e5d:	00 00                	add    %al,(%rax)
    40008e5f:	00 a1 00 00 00 10    	add    %ah,0x10000000(%rcx)
    40008e65:	00 00                	add    %al,(%rax)
    40008e67:	00 75 6f             	add    %dh,0x6f(%rbp)
    40008e6a:	70 20                	jo     40008e8c <CounterDefinitions+0xdac>
    40008e6c:	70 34                	jo     40008ea2 <CounterDefinitions+0xdc2>
    40008e6e:	00 00                	add    %al,(%rax)
    40008e70:	00 00                	add    %al,(%rax)
    40008e72:	00 00                	add    %al,(%rax)
    40008e74:	9b                   	fwait
    40008e75:	00 00                	add    %al,(%rax)
    40008e77:	00 40 00             	add    %al,0x0(%rax)
    40008e7a:	00 00                	add    %al,(%rax)
    40008e7c:	ff                   	(bad)  
    40008e7d:	ff                   	(bad)  
    40008e7e:	ff                   	(bad)  
    40008e7f:	ff 00                	incl   (%rax)
	...
    40008e89:	00 00                	add    %al,(%rax)
    40008e8b:	00 a1 00 00 00 20    	add    %ah,0x20000000(%rcx)
    40008e91:	00 00                	add    %al,(%rax)
    40008e93:	00 75 6f             	add    %dh,0x6f(%rbp)
    40008e96:	70 20                	jo     40008eb8 <CounterDefinitions+0xdd8>
    40008e98:	70 35                	jo     40008ecf <CounterDefinitions+0xdef>
    40008e9a:	00 00                	add    %al,(%rax)
    40008e9c:	00 00                	add    %al,(%rax)
    40008e9e:	00 00                	add    %al,(%rax)
    40008ea0:	c9                   	leave  
    40008ea1:	00 00                	add    %al,(%rax)
    40008ea3:	00 40 00             	add    %al,0x0(%rax)
    40008ea6:	00 00                	add    %al,(%rax)
    40008ea8:	ff                   	(bad)  
    40008ea9:	ff                   	(bad)  
    40008eaa:	ff                   	(bad)  
    40008eab:	ff 00                	incl   (%rax)
    40008ead:	00 00                	add    %al,(%rax)
    40008eaf:	00 01                	add    %al,(%rcx)
    40008eb1:	00 00                	add    %al,(%rax)
    40008eb3:	00 00                	add    %al,(%rax)
    40008eb5:	00 00                	add    %al,(%rax)
    40008eb7:	00 c4                	add    %al,%ah
    40008eb9:	00 00                	add    %al,(%rax)
    40008ebb:	00 0c 00             	add    %cl,(%rax,%rax,1)
    40008ebe:	00 00                	add    %al,(%rax)
    40008ec0:	42 72 54             	rex.X jb 40008f17 <CounterDefinitions+0xe37>
    40008ec3:	61                   	(bad)  
    40008ec4:	6b 65 6e 00          	imul   $0x0,0x6e(%rbp),%esp
    40008ec8:	00 00                	add    %al,(%rax)
    40008eca:	00 00                	add    %al,(%rax)
    40008ecc:	cc                   	int3   
    40008ecd:	00 00                	add    %al,(%rax)
    40008ecf:	00 40 00             	add    %al,0x0(%rax)
    40008ed2:	00 00                	add    %al,(%rax)
    40008ed4:	ff                   	(bad)  
    40008ed5:	ff                   	(bad)  
    40008ed6:	ff                   	(bad)  
    40008ed7:	ff 00                	incl   (%rax)
    40008ed9:	00 00                	add    %al,(%rax)
    40008edb:	00 01                	add    %al,(%rcx)
    40008edd:	00 00                	add    %al,(%rax)
    40008edf:	00 00                	add    %al,(%rax)
    40008ee1:	00 00                	add    %al,(%rax)
    40008ee3:	00 c4                	add    %al,%ah
    40008ee5:	00 00                	add    %al,(%rax)
    40008ee7:	00 0a                	add    %cl,(%rdx)
    40008ee9:	00 00                	add    %al,(%rax)
    40008eeb:	00 42 72             	add    %al,0x72(%rdx)
    40008eee:	4d 69 73 70 72 65 64 	imul   $0x646572,0x70(%r11),%r14
    40008ef5:	00 
    40008ef6:	00 00                	add    %al,(%rax)
    40008ef8:	cd 00                	int    $0x0
    40008efa:	00 00                	add    %al,(%rax)
    40008efc:	40 00 00             	rex add %al,(%rax)
    40008eff:	00 ff                	add    %bh,%bh
    40008f01:	ff                   	(bad)  
    40008f02:	ff                   	(bad)  
    40008f03:	ff 00                	incl   (%rax)
    40008f05:	00 00                	add    %al,(%rax)
    40008f07:	00 01                	add    %al,(%rcx)
    40008f09:	00 00                	add    %al,(%rax)
    40008f0b:	00 00                	add    %al,(%rax)
    40008f0d:	00 00                	add    %al,(%rax)
    40008f0f:	00 e6                	add    %ah,%dh
    40008f11:	00 00                	add    %al,(%rax)
    40008f13:	00 00                	add    %al,(%rax)
    40008f15:	00 00                	add    %al,(%rax)
    40008f17:	00 42 54             	add    %al,0x54(%rdx)
    40008f1a:	42                   	rex.X
    40008f1b:	4d 69 73 73 00 00 00 	imul   $0x0,0x73(%r11),%r14
    40008f22:	00 
    40008f23:	00 d2                	add    %dl,%dl
    40008f25:	00 00                	add    %al,(%rax)
    40008f27:	00 40 00             	add    %al,0x0(%rax)
    40008f2a:	00 00                	add    %al,(%rax)
    40008f2c:	ff                   	(bad)  
    40008f2d:	ff                   	(bad)  
    40008f2e:	ff                   	(bad)  
    40008f2f:	ff 00                	incl   (%rax)
    40008f31:	00 00                	add    %al,(%rax)
    40008f33:	00 01                	add    %al,(%rcx)
    40008f35:	00 00                	add    %al,(%rax)
    40008f37:	00 00                	add    %al,(%rax)
    40008f39:	00 00                	add    %al,(%rax)
    40008f3b:	00 97 00 00 00 00    	add    %dl,0x0(%rdi)
    40008f41:	00 00                	add    %al,(%rax)
    40008f43:	00 42 72             	add    %al,0x72(%rdx)
    40008f46:	61                   	(bad)  
    40008f47:	6e                   	outsb  %ds:(%rsi),(%dx)
    40008f48:	63 68 42             	movsxd 0x42(%rax),%ebp
    40008f4b:	75 31                	jne    40008f7e <CounterDefinitions+0xe9e>
    40008f4d:	00 00                	add    %al,(%rax)
    40008f4f:	00 d3                	add    %dl,%bl
    40008f51:	00 00                	add    %al,(%rax)
    40008f53:	00 40 00             	add    %al,0x0(%rax)
    40008f56:	00 00                	add    %al,(%rax)
    40008f58:	ff                   	(bad)  
    40008f59:	ff                   	(bad)  
    40008f5a:	ff                   	(bad)  
    40008f5b:	ff 00                	incl   (%rax)
    40008f5d:	00 00                	add    %al,(%rax)
    40008f5f:	00 01                	add    %al,(%rcx)
    40008f61:	00 00                	add    %al,(%rax)
    40008f63:	00 00                	add    %al,(%rax)
    40008f65:	00 00                	add    %al,(%rax)
    40008f67:	00 98 00 00 00 00    	add    %bl,0x0(%rax)
    40008f6d:	00 00                	add    %al,(%rax)
    40008f6f:	00 42 72             	add    %al,0x72(%rdx)
    40008f72:	61                   	(bad)  
    40008f73:	6e                   	outsb  %ds:(%rsi),(%dx)
    40008f74:	63 68 42             	movsxd 0x42(%rax),%ebp
    40008f77:	75 32                	jne    40008fab <CounterDefinitions+0xecb>
    40008f79:	00 00                	add    %al,(%rax)
    40008f7b:	00 36                	add    %dh,(%rsi)
    40008f7d:	01 00                	add    %eax,(%rax)
    40008f7f:	00 40 00             	add    %al,0x0(%rax)
    40008f82:	00 00                	add    %al,(%rax)
    40008f84:	ff                   	(bad)  
    40008f85:	ff                   	(bad)  
    40008f86:	ff                   	(bad)  
    40008f87:	ff 00                	incl   (%rax)
    40008f89:	00 00                	add    %al,(%rax)
    40008f8b:	00 01                	add    %al,(%rcx)
    40008f8d:	00 00                	add    %al,(%rax)
    40008f8f:	00 00                	add    %al,(%rax)
    40008f91:	00 00                	add    %al,(%rax)
    40008f93:	00 28                	add    %ch,(%rax)
    40008f95:	00 00                	add    %al,(%rax)
    40008f97:	00 0f                	add    %cl,(%rdi)
    40008f99:	00 00                	add    %al,(%rax)
    40008f9b:	00 43 6f             	add    %al,0x6f(%rbx)
    40008f9e:	64 65 4d 69 73 73 00 	fs imul $0x0,%gs:0x73(%r11),%r14
    40008fa5:	00 00 00 
    40008fa8:	37                   	(bad)  
    40008fa9:	01 00                	add    %eax,(%rax)
    40008fab:	00 40 00             	add    %al,0x0(%rax)
    40008fae:	00 00                	add    %al,(%rax)
    40008fb0:	ff                   	(bad)  
    40008fb1:	ff                   	(bad)  
    40008fb2:	ff                   	(bad)  
    40008fb3:	ff 00                	incl   (%rax)
    40008fb5:	00 00                	add    %al,(%rax)
    40008fb7:	00 01                	add    %al,(%rcx)
    40008fb9:	00 00                	add    %al,(%rax)
    40008fbb:	00 00                	add    %al,(%rax)
    40008fbd:	00 00                	add    %al,(%rax)
    40008fbf:	00 29                	add    %ch,(%rcx)
    40008fc1:	00 00                	add    %al,(%rax)
    40008fc3:	00 0f                	add    %cl,(%rdi)
    40008fc5:	00 00                	add    %al,(%rax)
    40008fc7:	00 4c 31 44          	add    %cl,0x44(%rcx,%rsi,1)
    40008fcb:	20 4d 69             	and    %cl,0x69(%rbp)
    40008fce:	73 73                	jae    40009043 <CounterDefinitions+0xf63>
    40008fd0:	00 00                	add    %al,(%rax)
    40008fd2:	00 00                	add    %al,(%rax)
    40008fd4:	40 01 00             	rex add %eax,(%rax)
    40008fd7:	00 40 00             	add    %al,0x0(%rax)
    40008fda:	00 00                	add    %al,(%rax)
    40008fdc:	ff                   	(bad)  
    40008fdd:	ff                   	(bad)  
    40008fde:	ff                   	(bad)  
    40008fdf:	ff 00                	incl   (%rax)
    40008fe1:	00 00                	add    %al,(%rax)
    40008fe3:	00 01                	add    %al,(%rcx)
    40008fe5:	00 00                	add    %al,(%rax)
    40008fe7:	00 00                	add    %al,(%rax)
    40008fe9:	00 00                	add    %al,(%rax)
    40008feb:	00 24 00             	add    %ah,(%rax,%rax,1)
    40008fee:	00 00                	add    %al,(%rax)
    40008ff0:	00 00                	add    %al,(%rax)
    40008ff2:	00 00                	add    %al,(%rax)
    40008ff4:	4c 32 20             	rex.WR xor (%rax),%r12b
    40008ff7:	4d 69 73 73 00 00 00 	imul   $0x0,0x73(%r11),%r14
    40008ffe:	00 
    40008fff:	00 01                	add    %al,(%rcx)
    40009001:	00 00                	add    %al,(%rax)
    40009003:	00 80 00 00 00 c0    	add    %al,-0x40000000(%rax)
    40009009:	00 00                	add    %al,(%rax)
    4000900b:	00 01                	add    %al,(%rcx)
    4000900d:	00 00                	add    %al,(%rax)
    4000900f:	40 00 00             	rex add %al,(%rax)
	...
    4000901e:	00 00                	add    %al,(%rax)
    40009020:	43 6f                	rex.XB outsl %ds:(%rsi),(%dx)
    40009022:	72 65                	jb     40009089 <CounterDefinitions+0xfa9>
    40009024:	20 63 79             	and    %ah,0x79(%rbx)
    40009027:	63 00                	movsxd (%rax),%eax
    40009029:	00 00                	add    %al,(%rax)
    4000902b:	00 02                	add    %al,(%rdx)
    4000902d:	00 00                	add    %al,(%rax)
    4000902f:	00 80 00 00 00 c0    	add    %al,-0x40000000(%rax)
    40009035:	00 00                	add    %al,(%rax)
    40009037:	00 02                	add    %al,(%rdx)
    40009039:	00 00                	add    %al,(%rax)
    4000903b:	40 00 00             	rex add %al,(%rax)
	...
    4000904a:	00 00                	add    %al,(%rax)
    4000904c:	52                   	push   %rdx
    4000904d:	65 66 20 63 79       	data16 and %ah,%gs:0x79(%rbx)
    40009052:	63 00                	movsxd (%rax),%eax
    40009054:	00 00                	add    %al,(%rax)
    40009056:	00 00                	add    %al,(%rax)
    40009058:	09 00                	or     %eax,(%rax)
    4000905a:	00 00                	add    %al,(%rax)
    4000905c:	80 00 00             	addb   $0x0,(%rax)
    4000905f:	00 c0                	add    %al,%al
    40009061:	00 00                	add    %al,(%rax)
    40009063:	00 00                	add    %al,(%rax)
    40009065:	00 00                	add    %al,(%rax)
    40009067:	40 00 00             	rex add %al,(%rax)
	...
    40009076:	00 00                	add    %al,(%rax)
    40009078:	49 6e                	rex.WB outsb %ds:(%rsi),(%dx)
    4000907a:	73 74                	jae    400090f0 <CounterDefinitions+0x1010>
    4000907c:	72 75                	jb     400090f3 <CounterDefinitions+0x1013>
    4000907e:	63 74 00 00          	movsxd 0x0(%rax,%rax,1),%esi
    40009082:	00 00                	add    %al,(%rax)
    40009084:	0a 00                	or     (%rax),%al
    40009086:	00 00                	add    %al,(%rax)
    40009088:	80 00 00             	addb   $0x0,(%rax)
    4000908b:	00 c0                	add    %al,%al
    4000908d:	00 00                	add    %al,(%rax)
    4000908f:	00 00                	add    %al,(%rax)
    40009091:	00 00                	add    %al,(%rax)
    40009093:	00 03                	add    %al,(%rbx)
    40009095:	00 00                	add    %al,(%rax)
    40009097:	00 00                	add    %al,(%rax)
    40009099:	00 00                	add    %al,(%rax)
    4000909b:	00 c0                	add    %al,%al
    4000909d:	00 00                	add    %al,(%rax)
    4000909f:	00 01                	add    %al,(%rcx)
    400090a1:	00 00                	add    %al,(%rax)
    400090a3:	00 49 6e             	add    %cl,0x6e(%rcx)
    400090a6:	73 74                	jae    4000911c <CounterDefinitions+0x103c>
    400090a8:	72 75                	jb     4000911f <CounterDefinitions+0x103f>
    400090aa:	63 74 00 00          	movsxd 0x0(%rax,%rax,1),%esi
    400090ae:	00 00                	add    %al,(%rax)
    400090b0:	16                   	(bad)  
    400090b1:	00 00                	add    %al,(%rax)
    400090b3:	00 80 00 00 00 c0    	add    %al,-0x40000000(%rax)
    400090b9:	00 00                	add    %al,(%rax)
    400090bb:	00 00                	add    %al,(%rax)
    400090bd:	00 00                	add    %al,(%rax)
    400090bf:	00 03                	add    %al,(%rbx)
    400090c1:	00 00                	add    %al,(%rax)
    400090c3:	00 00                	add    %al,(%rax)
    400090c5:	00 00                	add    %al,(%rax)
    400090c7:	00 87 00 00 00 00    	add    %al,0x0(%rdi)
    400090cd:	00 00                	add    %al,(%rax)
    400090cf:	00 49 4c             	add    %cl,0x4c(%rcx)
    400090d2:	65 6e                	outsb  %gs:(%rsi),(%dx)
    400090d4:	53                   	push   %rbx
    400090d5:	74 61                	je     40009138 <CounterDefinitions+0x1058>
    400090d7:	6c                   	insb   (%dx),%es:(%rdi)
    400090d8:	00 00                	add    %al,(%rax)
    400090da:	00 00                	add    %al,(%rax)
    400090dc:	18 00                	sbb    %al,(%rax)
    400090de:	00 00                	add    %al,(%rax)
    400090e0:	80 00 00             	addb   $0x0,(%rax)
    400090e3:	00 c0                	add    %al,%al
    400090e5:	00 00                	add    %al,(%rax)
    400090e7:	00 00                	add    %al,(%rax)
    400090e9:	00 00                	add    %al,(%rax)
    400090eb:	00 03                	add    %al,(%rbx)
    400090ed:	00 00                	add    %al,(%rax)
    400090ef:	00 00                	add    %al,(%rax)
    400090f1:	00 00                	add    %al,(%rax)
    400090f3:	00 a8 00 00 00 01    	add    %ch,0x1000000(%rax)
    400090f9:	00 00                	add    %al,(%rax)
    400090fb:	00 4c 6f 6f          	add    %cl,0x6f(%rdi,%rbp,2)
    400090ff:	70 20                	jo     40009121 <CounterDefinitions+0x1041>
    40009101:	75 6f                	jne    40009172 <CounterDefinitions+0x1092>
    40009103:	70 73                	jo     40009178 <CounterDefinitions+0x1098>
    40009105:	00 00                	add    %al,(%rax)
    40009107:	00 19                	add    %bl,(%rcx)
    40009109:	00 00                	add    %al,(%rax)
    4000910b:	00 80 00 00 00 c0    	add    %al,-0x40000000(%rax)
    40009111:	00 00                	add    %al,(%rax)
    40009113:	00 00                	add    %al,(%rax)
    40009115:	00 00                	add    %al,(%rax)
    40009117:	00 03                	add    %al,(%rbx)
    40009119:	00 00                	add    %al,(%rax)
    4000911b:	00 00                	add    %al,(%rax)
    4000911d:	00 00                	add    %al,(%rax)
    4000911f:	00 79 00             	add    %bh,0x0(%rcx)
    40009122:	00 00                	add    %al,(%rax)
    40009124:	04 00                	add    $0x0,%al
    40009126:	00 00                	add    %al,(%rax)
    40009128:	44                   	rex.R
    40009129:	65 63 20             	movsxd %gs:(%rax),%esp
    4000912c:	75 6f                	jne    4000919d <CounterDefinitions+0x10bd>
    4000912e:	70 73                	jo     400091a3 <CounterDefinitions+0x10c3>
    40009130:	00 00                	add    %al,(%rax)
    40009132:	00 00                	add    %al,(%rax)
    40009134:	1a 00                	sbb    (%rax),%al
    40009136:	00 00                	add    %al,(%rax)
    40009138:	80 00 00             	addb   $0x0,(%rax)
    4000913b:	00 c0                	add    %al,%al
    4000913d:	00 00                	add    %al,(%rax)
    4000913f:	00 00                	add    %al,(%rax)
    40009141:	00 00                	add    %al,(%rax)
    40009143:	00 03                	add    %al,(%rbx)
    40009145:	00 00                	add    %al,(%rax)
    40009147:	00 00                	add    %al,(%rax)
    40009149:	00 00                	add    %al,(%rax)
    4000914b:	00 79 00             	add    %bh,0x0(%rcx)
    4000914e:	00 00                	add    %al,(%rax)
    40009150:	08 00                	or     %al,(%rax)
    40009152:	00 00                	add    %al,(%rax)
    40009154:	43 61                	rex.XB (bad) 
    40009156:	63 68 20             	movsxd 0x20(%rax),%ebp
    40009159:	75 6f                	jne    400091ca <CounterDefinitions+0x10ea>
    4000915b:	70 73                	jo     400091d0 <CounterDefinitions+0x10f0>
    4000915d:	00 00                	add    %al,(%rax)
    4000915f:	00 64 00 00          	add    %ah,0x0(%rax,%rax,1)
    40009163:	00 80 00 00 00 c0    	add    %al,-0x40000000(%rax)
    40009169:	00 00                	add    %al,(%rax)
    4000916b:	00 00                	add    %al,(%rax)
    4000916d:	00 00                	add    %al,(%rax)
    4000916f:	00 03                	add    %al,(%rbx)
    40009171:	00 00                	add    %al,(%rax)
    40009173:	00 00                	add    %al,(%rax)
    40009175:	00 00                	add    %al,(%rax)
    40009177:	00 c2                	add    %al,%dl
    40009179:	00 00                	add    %al,(%rax)
    4000917b:	00 01                	add    %al,(%rcx)
    4000917d:	00 00                	add    %al,(%rax)
    4000917f:	00 55 6f             	add    %dl,0x6f(%rbp)
    40009182:	70 73                	jo     400091f7 <CounterDefinitions+0x1117>
	...
    4000918c:	67 00 00             	add    %al,(%eax)
    4000918f:	00 80 00 00 00 c0    	add    %al,-0x40000000(%rax)
    40009195:	00 00                	add    %al,(%rax)
    40009197:	00 00                	add    %al,(%rax)
    40009199:	00 00                	add    %al,(%rax)
    4000919b:	00 03                	add    %al,(%rbx)
    4000919d:	00 00                	add    %al,(%rax)
    4000919f:	00 00                	add    %al,(%rax)
    400091a1:	00 00                	add    %al,(%rax)
    400091a3:	00 c2                	add    %al,%dl
    400091a5:	00 00                	add    %al,(%rax)
    400091a7:	00 04 00             	add    %al,(%rax,%rax,1)
    400091aa:	00 00                	add    %al,(%rax)
    400091ac:	4d 61                	rex.WRB (bad) 
    400091ae:	63 72 6f             	movsxd 0x6f(%rdx),%esi
    400091b1:	66 75 73             	data16 jne 40009227 <CounterDefinitions+0x1147>
    400091b4:	00 00                	add    %al,(%rax)
    400091b6:	00 00                	add    %al,(%rax)
    400091b8:	68 00 00 00 80       	push   $0xffffffff80000000
    400091bd:	00 00                	add    %al,(%rax)
    400091bf:	00 c0                	add    %al,%al
    400091c1:	00 00                	add    %al,(%rax)
    400091c3:	00 00                	add    %al,(%rax)
    400091c5:	00 00                	add    %al,(%rax)
    400091c7:	00 03                	add    %al,(%rbx)
    400091c9:	00 00                	add    %al,(%rax)
    400091cb:	00 00                	add    %al,(%rax)
    400091cd:	00 00                	add    %al,(%rax)
    400091cf:	00 0e                	add    %cl,(%rsi)
    400091d1:	00 00                	add    %al,(%rax)
    400091d3:	00 01                	add    %al,(%rcx)
    400091d5:	00 00                	add    %al,(%rax)
    400091d7:	00 55 6f             	add    %dl,0x6f(%rbp)
    400091da:	70 73                	jo     4000924f <CounterDefinitions+0x116f>
    400091dc:	20 46 2e             	and    %al,0x2e(%rsi)
    400091df:	44                   	rex.R
    400091e0:	2e 00 00             	cs add %al,(%rax)
    400091e3:	00 69 00             	add    %ch,0x0(%rcx)
    400091e6:	00 00                	add    %al,(%rax)
    400091e8:	80 00 00             	addb   $0x0,(%rax)
    400091eb:	00 40 00             	add    %al,0x0(%rax)
    400091ee:	00 00                	add    %al,(%rax)
    400091f0:	00 00                	add    %al,(%rax)
    400091f2:	00 00                	add    %al,(%rax)
    400091f4:	03 00                	add    (%rax),%eax
    400091f6:	00 00                	add    %al,(%rax)
    400091f8:	00 00                	add    %al,(%rax)
    400091fa:	00 00                	add    %al,(%rax)
    400091fc:	0e                   	(bad)  
    400091fd:	00 00                	add    %al,(%rax)
    400091ff:	00 02                	add    %al,(%rdx)
    40009201:	00 00                	add    %al,(%rax)
    40009203:	00 66 75             	add    %ah,0x75(%rsi)
    40009206:	73 65                	jae    4000926d <CounterDefinitions+0x118d>
    40009208:	64 20 75 6f          	and    %dh,%fs:0x6f(%rbp)
    4000920c:	70 00                	jo     4000920e <CounterDefinitions+0x112e>
    4000920e:	00 00                	add    %al,(%rax)
    40009210:	6e                   	outsb  %ds:(%rsi),(%dx)
    40009211:	00 00                	add    %al,(%rax)
    40009213:	00 80 00 00 00 40    	add    %al,0x40000000(%rax)
    40009219:	00 00                	add    %al,(%rax)
    4000921b:	00 00                	add    %al,(%rax)
    4000921d:	00 00                	add    %al,(%rax)
    4000921f:	00 03                	add    %al,(%rbx)
    40009221:	00 00                	add    %al,(%rax)
    40009223:	00 00                	add    %al,(%rax)
    40009225:	00 00                	add    %al,(%rax)
    40009227:	00 a0 00 00 00 00    	add    %ah,0x0(%rax)
    4000922d:	00 00                	add    %al,(%rax)
    4000922f:	00 55 6f             	add    %dl,0x6f(%rbp)
    40009232:	70 73                	jo     400092a7 <CounterDefinitions+0x11c7>
    40009234:	20 55 46             	and    %dl,0x46(%rbp)
    40009237:	44 3f                	rex.R (bad) 
    40009239:	00 00                	add    %al,(%rax)
    4000923b:	00 6f 00             	add    %ch,0x0(%rdi)
    4000923e:	00 00                	add    %al,(%rax)
    40009240:	80 00 00             	addb   $0x0,(%rax)
    40009243:	00 c0                	add    %al,%al
    40009245:	00 00                	add    %al,(%rax)
    40009247:	00 00                	add    %al,(%rax)
    40009249:	00 00                	add    %al,(%rax)
    4000924b:	00 03                	add    %al,(%rbx)
    4000924d:	00 00                	add    %al,(%rax)
    4000924f:	00 00                	add    %al,(%rax)
    40009251:	00 00                	add    %al,(%rax)
    40009253:	00 a2 00 00 00 01    	add    %ah,0x1000000(%rdx)
    40009259:	00 00                	add    %al,(%rax)
    4000925b:	00 72 65             	add    %dh,0x65(%rdx)
    4000925e:	73 2e                	jae    4000928e <CounterDefinitions+0x11ae>
    40009260:	73 74                	jae    400092d6 <CounterDefinitions+0x11f6>
    40009262:	6c                   	insb   (%dx),%es:(%rdi)
    40009263:	2e 00 00             	cs add %al,(%rax)
    40009266:	00 00                	add    %al,(%rax)
    40009268:	79 00                	jns    4000926a <CounterDefinitions+0x118a>
    4000926a:	00 00                	add    %al,(%rax)
    4000926c:	80 00 00             	addb   $0x0,(%rax)
    4000926f:	00 40 00             	add    %al,0x0(%rax)
    40009272:	00 00                	add    %al,(%rax)
    40009274:	00 00                	add    %al,(%rax)
    40009276:	00 00                	add    %al,(%rax)
    40009278:	03 00                	add    (%rax),%eax
    4000927a:	00 00                	add    %al,(%rax)
    4000927c:	00 00                	add    %al,(%rax)
    4000927e:	00 00                	add    %al,(%rax)
    40009280:	d2 00                	rolb   %cl,(%rax)
    40009282:	00 00                	add    %al,(%rax)
    40009284:	02 00                	add    (%rax),%al
    40009286:	00 00                	add    %al,(%rax)
    40009288:	50                   	push   %rax
    40009289:	61                   	(bad)  
    4000928a:	72 74                	jb     40009300 <CounterDefinitions+0x1220>
    4000928c:	2e 72 65             	jb,pn  400092f4 <CounterDefinitions+0x1214>
    4000928f:	67 00 00             	add    %al,(%eax)
    40009292:	00 00                	add    %al,(%rax)
    40009294:	7a 00                	jp     40009296 <CounterDefinitions+0x11b6>
    40009296:	00 00                	add    %al,(%rax)
    40009298:	80 00 00             	addb   $0x0,(%rax)
    4000929b:	00 40 00             	add    %al,0x0(%rax)
    4000929e:	00 00                	add    %al,(%rax)
    400092a0:	00 00                	add    %al,(%rax)
    400092a2:	00 00                	add    %al,(%rax)
    400092a4:	03 00                	add    (%rax),%eax
    400092a6:	00 00                	add    %al,(%rax)
    400092a8:	00 00                	add    %al,(%rax)
    400092aa:	00 00                	add    %al,(%rax)
    400092ac:	d2 00                	rolb   %cl,(%rax)
    400092ae:	00 00                	add    %al,(%rax)
    400092b0:	01 00                	add    %eax,(%rax)
    400092b2:	00 00                	add    %al,(%rax)
    400092b4:	70 61                	jo     40009317 <CounterDefinitions+0x1237>
    400092b6:	72 74                	jb     4000932c <CounterDefinitions+0x124c>
    400092b8:	2e 66 6c             	cs data16 insb (%dx),%es:(%rdi)
    400092bb:	61                   	(bad)  
    400092bc:	67 00 00             	add    %al,(%eax)
    400092bf:	00 7b 00             	add    %bh,0x0(%rbx)
    400092c2:	00 00                	add    %al,(%rax)
    400092c4:	80 00 00             	addb   $0x0,(%rax)
    400092c7:	00 40 00             	add    %al,0x0(%rax)
    400092ca:	00 00                	add    %al,(%rax)
    400092cc:	00 00                	add    %al,(%rax)
    400092ce:	00 00                	add    %al,(%rax)
    400092d0:	03 00                	add    (%rax),%eax
    400092d2:	00 00                	add    %al,(%rax)
    400092d4:	00 00                	add    %al,(%rax)
    400092d6:	00 00                	add    %al,(%rax)
    400092d8:	d2 00                	rolb   %cl,(%rax)
    400092da:	00 00                	add    %al,(%rax)
    400092dc:	04 00                	add    $0x0,%al
    400092de:	00 00                	add    %al,(%rax)
    400092e0:	52                   	push   %rdx
    400092e1:	20 52 64             	and    %dl,0x64(%rdx)
    400092e4:	20 73 74             	and    %dh,0x74(%rbx)
    400092e7:	61                   	(bad)  
    400092e8:	6c                   	insb   (%dx),%es:(%rdi)
    400092e9:	00 00                	add    %al,(%rax)
    400092eb:	00 7c 00 00          	add    %bh,0x0(%rax,%rax,1)
    400092ef:	00 80 00 00 00 40    	add    %al,0x40000000(%rax)
    400092f5:	00 00                	add    %al,(%rax)
    400092f7:	00 00                	add    %al,(%rax)
    400092f9:	00 00                	add    %al,(%rax)
    400092fb:	00 03                	add    %al,(%rbx)
    400092fd:	00 00                	add    %al,(%rax)
    400092ff:	00 00                	add    %al,(%rax)
    40009301:	00 00                	add    %al,(%rax)
    40009303:	00 d2                	add    %dl,%dl
    40009305:	00 00                	add    %al,(%rax)
    40009307:	00 0f                	add    %cl,(%rdi)
    40009309:	00 00                	add    %al,(%rax)
    4000930b:	00 52 41             	add    %dl,0x41(%rdx)
    4000930e:	54                   	push   %rsp
    4000930f:	20 73 74             	and    %dh,0x74(%rbx)
    40009312:	61                   	(bad)  
    40009313:	6c                   	insb   (%dx),%es:(%rdi)
    40009314:	00 00                	add    %al,(%rax)
    40009316:	00 00                	add    %al,(%rax)
    40009318:	96                   	xchg   %eax,%esi
    40009319:	00 00                	add    %al,(%rax)
    4000931b:	00 80 00 00 00 40    	add    %al,0x40000000(%rax)
    40009321:	00 00                	add    %al,(%rax)
    40009323:	00 00                	add    %al,(%rax)
    40009325:	00 00                	add    %al,(%rax)
    40009327:	00 03                	add    %al,(%rbx)
    40009329:	00 00                	add    %al,(%rax)
    4000932b:	00 00                	add    %al,(%rax)
    4000932d:	00 00                	add    %al,(%rax)
    4000932f:	00 b1 00 00 00 01    	add    %dh,0x1000000(%rcx)
    40009335:	00 00                	add    %al,(%rax)
    40009337:	00 75 6f             	add    %dh,0x6f(%rbp)
    4000933a:	70 20                	jo     4000935c <CounterDefinitions+0x127c>
    4000933c:	70 30                	jo     4000936e <CounterDefinitions+0x128e>
    4000933e:	00 00                	add    %al,(%rax)
    40009340:	00 00                	add    %al,(%rax)
    40009342:	00 00                	add    %al,(%rax)
    40009344:	97                   	xchg   %eax,%edi
    40009345:	00 00                	add    %al,(%rax)
    40009347:	00 80 00 00 00 40    	add    %al,0x40000000(%rax)
    4000934d:	00 00                	add    %al,(%rax)
    4000934f:	00 00                	add    %al,(%rax)
    40009351:	00 00                	add    %al,(%rax)
    40009353:	00 03                	add    %al,(%rbx)
    40009355:	00 00                	add    %al,(%rax)
    40009357:	00 00                	add    %al,(%rax)
    40009359:	00 00                	add    %al,(%rax)
    4000935b:	00 b1 00 00 00 02    	add    %dh,0x2000000(%rcx)
    40009361:	00 00                	add    %al,(%rax)
    40009363:	00 75 6f             	add    %dh,0x6f(%rbp)
    40009366:	70 20                	jo     40009388 <CounterDefinitions+0x12a8>
    40009368:	70 31                	jo     4000939b <CounterDefinitions+0x12bb>
    4000936a:	00 00                	add    %al,(%rax)
    4000936c:	00 00                	add    %al,(%rax)
    4000936e:	00 00                	add    %al,(%rax)
    40009370:	98                   	cwtl   
    40009371:	00 00                	add    %al,(%rax)
    40009373:	00 80 00 00 00 40    	add    %al,0x40000000(%rax)
    40009379:	00 00                	add    %al,(%rax)
    4000937b:	00 00                	add    %al,(%rax)
    4000937d:	00 00                	add    %al,(%rax)
    4000937f:	00 03                	add    %al,(%rbx)
    40009381:	00 00                	add    %al,(%rax)
    40009383:	00 00                	add    %al,(%rax)
    40009385:	00 00                	add    %al,(%rax)
    40009387:	00 b1 00 00 00 04    	add    %dh,0x4000000(%rcx)
    4000938d:	00 00                	add    %al,(%rax)
    4000938f:	00 75 6f             	add    %dh,0x6f(%rbp)
    40009392:	70 20                	jo     400093b4 <CounterDefinitions+0x12d4>
    40009394:	70 32                	jo     400093c8 <CounterDefinitions+0x12e8>
    40009396:	00 00                	add    %al,(%rax)
    40009398:	00 00                	add    %al,(%rax)
    4000939a:	00 00                	add    %al,(%rax)
    4000939c:	99                   	cltd   
    4000939d:	00 00                	add    %al,(%rax)
    4000939f:	00 80 00 00 00 40    	add    %al,0x40000000(%rax)
    400093a5:	00 00                	add    %al,(%rax)
    400093a7:	00 00                	add    %al,(%rax)
    400093a9:	00 00                	add    %al,(%rax)
    400093ab:	00 03                	add    %al,(%rbx)
    400093ad:	00 00                	add    %al,(%rax)
    400093af:	00 00                	add    %al,(%rax)
    400093b1:	00 00                	add    %al,(%rax)
    400093b3:	00 b1 00 00 00 08    	add    %dh,0x8000000(%rcx)
    400093b9:	00 00                	add    %al,(%rax)
    400093bb:	00 75 6f             	add    %dh,0x6f(%rbp)
    400093be:	70 20                	jo     400093e0 <CounterDefinitions+0x1300>
    400093c0:	70 33                	jo     400093f5 <CounterDefinitions+0x1315>
    400093c2:	00 00                	add    %al,(%rax)
    400093c4:	00 00                	add    %al,(%rax)
    400093c6:	00 00                	add    %al,(%rax)
    400093c8:	9a                   	(bad)  
    400093c9:	00 00                	add    %al,(%rax)
    400093cb:	00 80 00 00 00 40    	add    %al,0x40000000(%rax)
    400093d1:	00 00                	add    %al,(%rax)
    400093d3:	00 00                	add    %al,(%rax)
    400093d5:	00 00                	add    %al,(%rax)
    400093d7:	00 03                	add    %al,(%rbx)
    400093d9:	00 00                	add    %al,(%rax)
    400093db:	00 00                	add    %al,(%rax)
    400093dd:	00 00                	add    %al,(%rax)
    400093df:	00 b1 00 00 00 10    	add    %dh,0x10000000(%rcx)
    400093e5:	00 00                	add    %al,(%rax)
    400093e7:	00 75 6f             	add    %dh,0x6f(%rbp)
    400093ea:	70 20                	jo     4000940c <CounterDefinitions+0x132c>
    400093ec:	70 34                	jo     40009422 <CounterDefinitions+0x1342>
    400093ee:	00 00                	add    %al,(%rax)
    400093f0:	00 00                	add    %al,(%rax)
    400093f2:	00 00                	add    %al,(%rax)
    400093f4:	9b                   	fwait
    400093f5:	00 00                	add    %al,(%rax)
    400093f7:	00 80 00 00 00 40    	add    %al,0x40000000(%rax)
    400093fd:	00 00                	add    %al,(%rax)
    400093ff:	00 00                	add    %al,(%rax)
    40009401:	00 00                	add    %al,(%rax)
    40009403:	00 03                	add    %al,(%rbx)
    40009405:	00 00                	add    %al,(%rax)
    40009407:	00 00                	add    %al,(%rax)
    40009409:	00 00                	add    %al,(%rax)
    4000940b:	00 b1 00 00 00 20    	add    %dh,0x20000000(%rcx)
    40009411:	00 00                	add    %al,(%rax)
    40009413:	00 75 6f             	add    %dh,0x6f(%rbp)
    40009416:	70 20                	jo     40009438 <CounterDefinitions+0x1358>
    40009418:	70 35                	jo     4000944f <CounterDefinitions+0x136f>
    4000941a:	00 00                	add    %al,(%rax)
    4000941c:	00 00                	add    %al,(%rax)
    4000941e:	00 00                	add    %al,(%rax)
    40009420:	9c                   	pushf  
    40009421:	00 00                	add    %al,(%rax)
    40009423:	00 80 00 00 00 40    	add    %al,0x40000000(%rax)
    40009429:	00 00                	add    %al,(%rax)
    4000942b:	00 00                	add    %al,(%rax)
    4000942d:	00 00                	add    %al,(%rax)
    4000942f:	00 03                	add    %al,(%rbx)
    40009431:	00 00                	add    %al,(%rax)
    40009433:	00 00                	add    %al,(%rax)
    40009435:	00 00                	add    %al,(%rax)
    40009437:	00 b1 00 00 00 40    	add    %dh,0x40000000(%rcx)
    4000943d:	00 00                	add    %al,(%rax)
    4000943f:	00 75 6f             	add    %dh,0x6f(%rbp)
    40009442:	70 20                	jo     40009464 <CounterDefinitions+0x1384>
    40009444:	70 30                	jo     40009476 <CounterDefinitions+0x1396>
    40009446:	31 35 00 00 00 00    	xor    %esi,0x0(%rip)        # 4000944c <CounterDefinitions+0x136c>
    4000944c:	9d                   	popf   
    4000944d:	00 00                	add    %al,(%rax)
    4000944f:	00 80 00 00 00 40    	add    %al,0x40000000(%rax)
    40009455:	00 00                	add    %al,(%rax)
    40009457:	00 00                	add    %al,(%rax)
    40009459:	00 00                	add    %al,(%rax)
    4000945b:	00 03                	add    %al,(%rbx)
    4000945d:	00 00                	add    %al,(%rax)
    4000945f:	00 00                	add    %al,(%rax)
    40009461:	00 00                	add    %al,(%rax)
    40009463:	00 b1 00 00 00 80    	add    %dh,-0x80000000(%rcx)
    40009469:	00 00                	add    %al,(%rax)
    4000946b:	00 75 6f             	add    %dh,0x6f(%rbp)
    4000946e:	70 20                	jo     40009490 <CounterDefinitions+0x13b0>
    40009470:	70 32                	jo     400094a4 <CounterDefinitions+0x13c4>
    40009472:	33 34 00             	xor    (%rax,%rax,1),%esi
    40009475:	00 00                	add    %al,(%rax)
    40009477:	00 96 00 00 00 80    	add    %dl,-0x80000000(%rsi)
    4000947d:	00 00                	add    %al,(%rax)
    4000947f:	00 80 00 00 00 00    	add    %al,0x0(%rax)
    40009485:	00 00                	add    %al,(%rax)
    40009487:	00 03                	add    %al,(%rbx)
    40009489:	00 00                	add    %al,(%rax)
    4000948b:	00 00                	add    %al,(%rax)
    4000948d:	00 00                	add    %al,(%rax)
    4000948f:	00 a1 00 00 00 01    	add    %ah,0x1000000(%rcx)
    40009495:	00 00                	add    %al,(%rax)
    40009497:	00 75 6f             	add    %dh,0x6f(%rbp)
    4000949a:	70 20                	jo     400094bc <CounterDefinitions+0x13dc>
    4000949c:	70 30                	jo     400094ce <CounterDefinitions+0x13ee>
    4000949e:	00 00                	add    %al,(%rax)
    400094a0:	00 00                	add    %al,(%rax)
    400094a2:	00 00                	add    %al,(%rax)
    400094a4:	97                   	xchg   %eax,%edi
    400094a5:	00 00                	add    %al,(%rax)
    400094a7:	00 80 00 00 00 80    	add    %al,-0x80000000(%rax)
    400094ad:	00 00                	add    %al,(%rax)
    400094af:	00 00                	add    %al,(%rax)
    400094b1:	00 00                	add    %al,(%rax)
    400094b3:	00 03                	add    %al,(%rbx)
    400094b5:	00 00                	add    %al,(%rax)
    400094b7:	00 00                	add    %al,(%rax)
    400094b9:	00 00                	add    %al,(%rax)
    400094bb:	00 a1 00 00 00 02    	add    %ah,0x2000000(%rcx)
    400094c1:	00 00                	add    %al,(%rax)
    400094c3:	00 75 6f             	add    %dh,0x6f(%rbp)
    400094c6:	70 20                	jo     400094e8 <CounterDefinitions+0x1408>
    400094c8:	70 31                	jo     400094fb <CounterDefinitions+0x141b>
    400094ca:	00 00                	add    %al,(%rax)
    400094cc:	00 00                	add    %al,(%rax)
    400094ce:	00 00                	add    %al,(%rax)
    400094d0:	98                   	cwtl   
    400094d1:	00 00                	add    %al,(%rax)
    400094d3:	00 80 00 00 00 80    	add    %al,-0x80000000(%rax)
    400094d9:	00 00                	add    %al,(%rax)
    400094db:	00 00                	add    %al,(%rax)
    400094dd:	00 00                	add    %al,(%rax)
    400094df:	00 03                	add    %al,(%rbx)
    400094e1:	00 00                	add    %al,(%rax)
    400094e3:	00 00                	add    %al,(%rax)
    400094e5:	00 00                	add    %al,(%rax)
    400094e7:	00 a1 00 00 00 0c    	add    %ah,0xc000000(%rcx)
    400094ed:	00 00                	add    %al,(%rax)
    400094ef:	00 75 6f             	add    %dh,0x6f(%rbp)
    400094f2:	70 20                	jo     40009514 <CounterDefinitions+0x1434>
    400094f4:	70 32                	jo     40009528 <CounterDefinitions+0x1448>
    400094f6:	00 00                	add    %al,(%rax)
    400094f8:	00 00                	add    %al,(%rax)
    400094fa:	00 00                	add    %al,(%rax)
    400094fc:	99                   	cltd   
    400094fd:	00 00                	add    %al,(%rax)
    400094ff:	00 80 00 00 00 80    	add    %al,-0x80000000(%rax)
    40009505:	00 00                	add    %al,(%rax)
    40009507:	00 00                	add    %al,(%rax)
    40009509:	00 00                	add    %al,(%rax)
    4000950b:	00 03                	add    %al,(%rbx)
    4000950d:	00 00                	add    %al,(%rax)
    4000950f:	00 00                	add    %al,(%rax)
    40009511:	00 00                	add    %al,(%rax)
    40009513:	00 a1 00 00 00 30    	add    %ah,0x30000000(%rcx)
    40009519:	00 00                	add    %al,(%rax)
    4000951b:	00 75 6f             	add    %dh,0x6f(%rbp)
    4000951e:	70 20                	jo     40009540 <CounterDefinitions+0x1460>
    40009520:	70 33                	jo     40009555 <CounterDefinitions+0x1475>
    40009522:	00 00                	add    %al,(%rax)
    40009524:	00 00                	add    %al,(%rax)
    40009526:	00 00                	add    %al,(%rax)
    40009528:	9a                   	(bad)  
    40009529:	00 00                	add    %al,(%rax)
    4000952b:	00 80 00 00 00 80    	add    %al,-0x80000000(%rax)
    40009531:	00 00                	add    %al,(%rax)
    40009533:	00 00                	add    %al,(%rax)
    40009535:	00 00                	add    %al,(%rax)
    40009537:	00 03                	add    %al,(%rbx)
    40009539:	00 00                	add    %al,(%rax)
    4000953b:	00 00                	add    %al,(%rax)
    4000953d:	00 00                	add    %al,(%rax)
    4000953f:	00 a1 00 00 00 40    	add    %ah,0x40000000(%rcx)
    40009545:	00 00                	add    %al,(%rax)
    40009547:	00 75 6f             	add    %dh,0x6f(%rbp)
    4000954a:	70 20                	jo     4000956c <CounterDefinitions+0x148c>
    4000954c:	70 34                	jo     40009582 <CounterDefinitions+0x14a2>
    4000954e:	00 00                	add    %al,(%rax)
    40009550:	00 00                	add    %al,(%rax)
    40009552:	00 00                	add    %al,(%rax)
    40009554:	9b                   	fwait
    40009555:	00 00                	add    %al,(%rax)
    40009557:	00 80 00 00 00 80    	add    %al,-0x80000000(%rax)
    4000955d:	00 00                	add    %al,(%rax)
    4000955f:	00 00                	add    %al,(%rax)
    40009561:	00 00                	add    %al,(%rax)
    40009563:	00 03                	add    %al,(%rbx)
    40009565:	00 00                	add    %al,(%rax)
    40009567:	00 00                	add    %al,(%rax)
    40009569:	00 00                	add    %al,(%rax)
    4000956b:	00 a1 00 00 00 80    	add    %ah,-0x80000000(%rcx)
    40009571:	00 00                	add    %al,(%rax)
    40009573:	00 75 6f             	add    %dh,0x6f(%rbp)
    40009576:	70 20                	jo     40009598 <CounterDefinitions+0x14b8>
    40009578:	70 35                	jo     400095af <CounterDefinitions+0x14cf>
    4000957a:	00 00                	add    %al,(%rax)
    4000957c:	00 00                	add    %al,(%rax)
    4000957e:	00 00                	add    %al,(%rax)
    40009580:	a0 00 00 00 80 00 00 	movabs 0x8000000080000000,%al
    40009587:	00 80 
    40009589:	00 00                	add    %al,(%rax)
    4000958b:	00 00                	add    %al,(%rax)
    4000958d:	00 00                	add    %al,(%rax)
    4000958f:	00 03                	add    %al,(%rbx)
    40009591:	00 00                	add    %al,(%rax)
    40009593:	00 00                	add    %al,(%rax)
    40009595:	00 00                	add    %al,(%rax)
    40009597:	00 a1 00 00 00 ff    	add    %ah,-0x1000000(%rcx)
    4000959d:	00 00                	add    %al,(%rax)
    4000959f:	00 75 6f             	add    %dh,0x6f(%rbp)
    400095a2:	70 20                	jo     400095c4 <CounterDefinitions+0x14e4>
    400095a4:	70 30                	jo     400095d6 <CounterDefinitions+0x14f6>
    400095a6:	35 00 00 00 00       	xor    $0x0,%eax
    400095ab:	00 c9                	add    %cl,%cl
    400095ad:	00 00                	add    %al,(%rax)
    400095af:	00 80 00 00 00 80    	add    %al,-0x80000000(%rax)
    400095b5:	00 00                	add    %al,(%rax)
    400095b7:	00 00                	add    %al,(%rax)
    400095b9:	00 00                	add    %al,(%rax)
    400095bb:	00 01                	add    %al,(%rcx)
    400095bd:	00 00                	add    %al,(%rax)
    400095bf:	00 00                	add    %al,(%rax)
    400095c1:	00 00                	add    %al,(%rax)
    400095c3:	00 c4                	add    %al,%ah
    400095c5:	00 00                	add    %al,(%rax)
    400095c7:	00 20                	add    %ah,(%rax)
    400095c9:	00 00                	add    %al,(%rax)
    400095cb:	00 42 72             	add    %al,0x72(%rdx)
    400095ce:	54                   	push   %rsp
    400095cf:	61                   	(bad)  
    400095d0:	6b 65 6e 00          	imul   $0x0,0x6e(%rbp),%esp
    400095d4:	00 00                	add    %al,(%rax)
    400095d6:	00 00                	add    %al,(%rax)
    400095d8:	cc                   	int3   
    400095d9:	00 00                	add    %al,(%rax)
    400095db:	00 80 00 00 00 40    	add    %al,0x40000000(%rax)
    400095e1:	00 00                	add    %al,(%rax)
    400095e3:	00 00                	add    %al,(%rax)
    400095e5:	00 00                	add    %al,(%rax)
    400095e7:	00 03                	add    %al,(%rbx)
    400095e9:	00 00                	add    %al,(%rax)
    400095eb:	00 00                	add    %al,(%rax)
    400095ed:	00 00                	add    %al,(%rax)
    400095ef:	00 c5                	add    %al,%ch
    400095f1:	00 00                	add    %al,(%rax)
    400095f3:	00 0a                	add    %cl,(%rdx)
    400095f5:	00 00                	add    %al,(%rax)
    400095f7:	00 42 72             	add    %al,0x72(%rdx)
    400095fa:	4d 69 73 70 72 65 64 	imul   $0x646572,0x70(%r11),%r14
    40009601:	00 
    40009602:	00 00                	add    %al,(%rax)
    40009604:	cf                   	iret   
    40009605:	00 00                	add    %al,(%rax)
    40009607:	00 80 00 00 00 c0    	add    %al,-0x40000000(%rax)
    4000960d:	00 00                	add    %al,(%rax)
    4000960f:	00 00                	add    %al,(%rax)
    40009611:	00 00                	add    %al,(%rax)
    40009613:	00 03                	add    %al,(%rbx)
    40009615:	00 00                	add    %al,(%rax)
    40009617:	00 00                	add    %al,(%rax)
    40009619:	00 00                	add    %al,(%rax)
    4000961b:	00 c5                	add    %al,%ch
    4000961d:	00 00                	add    %al,(%rax)
    4000961f:	00 00                	add    %al,(%rax)
    40009621:	00 00                	add    %al,(%rax)
    40009623:	00 42 72             	add    %al,0x72(%rdx)
    40009626:	4d 69 73 70 72 65 64 	imul   $0x646572,0x70(%r11),%r14
    4000962d:	00 
    4000962e:	00 00                	add    %al,(%rax)
    40009630:	cd 00                	int    $0x0
    40009632:	00 00                	add    %al,(%rax)
    40009634:	80 00 00             	addb   $0x0,(%rax)
    40009637:	00 40 00             	add    %al,0x0(%rax)
    4000963a:	00 00                	add    %al,(%rax)
    4000963c:	00 00                	add    %al,(%rax)
    4000963e:	00 00                	add    %al,(%rax)
    40009640:	03 00                	add    (%rax),%eax
    40009642:	00 00                	add    %al,(%rax)
    40009644:	00 00                	add    %al,(%rax)
    40009646:	00 00                	add    %al,(%rax)
    40009648:	e6 00                	out    %al,$0x0
    4000964a:	00 00                	add    %al,(%rax)
    4000964c:	02 00                	add    (%rax),%al
    4000964e:	00 00                	add    %al,(%rax)
    40009650:	42 54                	rex.X push %rsp
    40009652:	42                   	rex.X
    40009653:	4d 69 73 73 00 00 00 	imul   $0x0,0x73(%r11),%r14
    4000965a:	00 
    4000965b:	00 dc                	add    %bl,%ah
    4000965d:	00 00                	add    %al,(%rax)
    4000965f:	00 80 00 00 00 80    	add    %al,-0x80000000(%rax)
    40009665:	00 00                	add    %al,(%rax)
    40009667:	00 00                	add    %al,(%rax)
    40009669:	00 00                	add    %al,(%rax)
    4000966b:	00 03                	add    %al,(%rbx)
    4000966d:	00 00                	add    %al,(%rax)
    4000966f:	00 00                	add    %al,(%rax)
    40009671:	00 00                	add    %al,(%rax)
    40009673:	00 58 00             	add    %bl,0x0(%rax)
    40009676:	00 00                	add    %al,(%rax)
    40009678:	03 00                	add    (%rax),%eax
    4000967a:	00 00                	add    %al,(%rax)
    4000967c:	4d 6f                	rex.WRB outsl %ds:(%rsi),(%dx)
    4000967e:	76 20                	jbe    400096a0 <CounterDefinitions+0x15c0>
    40009680:	65 6c                	gs insb (%dx),%es:(%rdi)
    40009682:	69 6d 00 00 00 00 dd 	imul   $0xdd000000,0x0(%rbp),%ebp
    40009689:	00 00                	add    %al,(%rax)
    4000968b:	00 80 00 00 00 80    	add    %al,-0x80000000(%rax)
    40009691:	00 00                	add    %al,(%rax)
    40009693:	00 00                	add    %al,(%rax)
    40009695:	00 00                	add    %al,(%rax)
    40009697:	00 03                	add    %al,(%rbx)
    40009699:	00 00                	add    %al,(%rax)
    4000969b:	00 00                	add    %al,(%rax)
    4000969d:	00 00                	add    %al,(%rax)
    4000969f:	00 58 00             	add    %bl,0x0(%rax)
    400096a2:	00 00                	add    %al,(%rax)
    400096a4:	0c 00                	or     $0x0,%al
    400096a6:	00 00                	add    %al,(%rax)
    400096a8:	4d 6f                	rex.WRB outsl %ds:(%rsi),(%dx)
    400096aa:	76 20                	jbe    400096cc <CounterDefinitions+0x15ec>
    400096ac:	65 6c                	gs insb (%dx),%es:(%rdi)
    400096ae:	69 6d 2d 00 00 00 37 	imul   $0x37000000,0x2d(%rbp),%ebp
    400096b5:	01 00                	add    %eax,(%rax)
    400096b7:	00 80 00 00 00 c0    	add    %al,-0x40000000(%rax)
    400096bd:	00 00                	add    %al,(%rax)
    400096bf:	00 00                	add    %al,(%rax)
    400096c1:	00 00                	add    %al,(%rax)
    400096c3:	00 03                	add    %al,(%rbx)
    400096c5:	00 00                	add    %al,(%rax)
    400096c7:	00 00                	add    %al,(%rax)
    400096c9:	00 00                	add    %al,(%rax)
    400096cb:	00 28                	add    %ch,(%rax)
    400096cd:	00 00                	add    %al,(%rax)
    400096cf:	00 0f                	add    %cl,(%rdi)
    400096d1:	00 00                	add    %al,(%rax)
    400096d3:	00 4c 31 44          	add    %cl,0x44(%rcx,%rsi,1)
    400096d7:	20 4d 69             	and    %cl,0x69(%rbp)
    400096da:	73 73                	jae    4000974f <CounterDefinitions+0x166f>
    400096dc:	00 00                	add    %al,(%rax)
    400096de:	00 00                	add    %al,(%rax)
    400096e0:	38 01                	cmp    %al,(%rcx)
    400096e2:	00 00                	add    %al,(%rax)
    400096e4:	80 00 00             	addb   $0x0,(%rax)
    400096e7:	00 40 00             	add    %al,0x0(%rax)
    400096ea:	00 00                	add    %al,(%rax)
    400096ec:	00 00                	add    %al,(%rax)
    400096ee:	00 00                	add    %al,(%rax)
    400096f0:	03 00                	add    (%rax),%eax
    400096f2:	00 00                	add    %al,(%rax)
    400096f4:	00 00                	add    %al,(%rax)
    400096f6:	00 00                	add    %al,(%rax)
    400096f8:	24 00                	and    $0x0,%al
    400096fa:	00 00                	add    %al,(%rax)
    400096fc:	0f 00 00             	sldt   (%rax)
    400096ff:	00 4c 31 20          	add    %cl,0x20(%rcx,%rsi,1)
    40009703:	4d 69 73 73 00 00 00 	imul   $0x0,0x73(%r11),%r14
    4000970a:	00 
    4000970b:	00 01                	add    %al,(%rcx)
    4000970d:	00 00                	add    %al,(%rax)
    4000970f:	00 80 00 00 00 00    	add    %al,0x0(%rax)
    40009715:	01 00                	add    %eax,(%rax)
    40009717:	00 01                	add    %al,(%rcx)
    40009719:	00 00                	add    %al,(%rax)
    4000971b:	40 00 00             	rex add %al,(%rax)
	...
    4000972a:	00 00                	add    %al,(%rax)
    4000972c:	43 6f                	rex.XB outsl %ds:(%rsi),(%dx)
    4000972e:	72 65                	jb     40009795 <CounterDefinitions+0x16b5>
    40009730:	20 63 79             	and    %ah,0x79(%rbx)
    40009733:	63 00                	movsxd (%rax),%eax
    40009735:	00 00                	add    %al,(%rax)
    40009737:	00 02                	add    %al,(%rdx)
    40009739:	00 00                	add    %al,(%rax)
    4000973b:	00 80 00 00 00 00    	add    %al,0x0(%rax)
    40009741:	01 00                	add    %eax,(%rax)
    40009743:	00 02                	add    %al,(%rdx)
    40009745:	00 00                	add    %al,(%rax)
    40009747:	40 00 00             	rex add %al,(%rax)
	...
    40009756:	00 00                	add    %al,(%rax)
    40009758:	52                   	push   %rdx
    40009759:	65 66 20 63 79       	data16 and %ah,%gs:0x79(%rbx)
    4000975e:	63 00                	movsxd (%rax),%eax
    40009760:	00 00                	add    %al,(%rax)
    40009762:	00 00                	add    %al,(%rax)
    40009764:	09 00                	or     %eax,(%rax)
    40009766:	00 00                	add    %al,(%rax)
    40009768:	80 00 00             	addb   $0x0,(%rax)
    4000976b:	00 00                	add    %al,(%rax)
    4000976d:	01 00                	add    %eax,(%rax)
    4000976f:	00 00                	add    %al,(%rax)
    40009771:	00 00                	add    %al,(%rax)
    40009773:	40 00 00             	rex add %al,(%rax)
	...
    40009782:	00 00                	add    %al,(%rax)
    40009784:	49 6e                	rex.WB outsb %ds:(%rsi),(%dx)
    40009786:	73 74                	jae    400097fc <CounterDefinitions+0x171c>
    40009788:	72 75                	jb     400097ff <CounterDefinitions+0x171f>
    4000978a:	63 74 00 00          	movsxd 0x0(%rax,%rax,1),%esi
    4000978e:	00 00                	add    %al,(%rax)
    40009790:	0a 00                	or     (%rax),%al
    40009792:	00 00                	add    %al,(%rax)
    40009794:	80 00 00             	addb   $0x0,(%rax)
    40009797:	00 00                	add    %al,(%rax)
    40009799:	01 00                	add    %eax,(%rax)
    4000979b:	00 00                	add    %al,(%rax)
    4000979d:	00 00                	add    %al,(%rax)
    4000979f:	00 03                	add    %al,(%rbx)
    400097a1:	00 00                	add    %al,(%rax)
    400097a3:	00 00                	add    %al,(%rax)
    400097a5:	00 00                	add    %al,(%rax)
    400097a7:	00 c0                	add    %al,%al
    400097a9:	00 00                	add    %al,(%rax)
    400097ab:	00 01                	add    %al,(%rcx)
    400097ad:	00 00                	add    %al,(%rax)
    400097af:	00 49 6e             	add    %cl,0x6e(%rcx)
    400097b2:	73 74                	jae    40009828 <CounterDefinitions+0x1748>
    400097b4:	72 75                	jb     4000982b <CounterDefinitions+0x174b>
    400097b6:	63 74 00 00          	movsxd 0x0(%rax,%rax,1),%esi
    400097ba:	00 00                	add    %al,(%rax)
    400097bc:	16                   	(bad)  
    400097bd:	00 00                	add    %al,(%rax)
    400097bf:	00 80 00 00 00 00    	add    %al,0x0(%rax)
    400097c5:	01 00                	add    %eax,(%rax)
    400097c7:	00 00                	add    %al,(%rax)
    400097c9:	00 00                	add    %al,(%rax)
    400097cb:	00 03                	add    %al,(%rbx)
    400097cd:	00 00                	add    %al,(%rax)
    400097cf:	00 00                	add    %al,(%rax)
    400097d1:	00 00                	add    %al,(%rax)
    400097d3:	00 87 00 00 00 01    	add    %al,0x1000000(%rdi)
    400097d9:	00 00                	add    %al,(%rax)
    400097db:	00 49 4c             	add    %cl,0x4c(%rcx)
    400097de:	65 6e                	outsb  %gs:(%rsi),(%dx)
    400097e0:	53                   	push   %rbx
    400097e1:	74 61                	je     40009844 <CounterDefinitions+0x1764>
    400097e3:	6c                   	insb   (%dx),%es:(%rdi)
    400097e4:	00 00                	add    %al,(%rax)
    400097e6:	00 00                	add    %al,(%rax)
    400097e8:	18 00                	sbb    %al,(%rax)
    400097ea:	00 00                	add    %al,(%rax)
    400097ec:	80 00 00             	addb   $0x0,(%rax)
    400097ef:	00 00                	add    %al,(%rax)
    400097f1:	01 00                	add    %eax,(%rax)
    400097f3:	00 00                	add    %al,(%rax)
    400097f5:	00 00                	add    %al,(%rax)
    400097f7:	00 03                	add    %al,(%rbx)
    400097f9:	00 00                	add    %al,(%rax)
    400097fb:	00 00                	add    %al,(%rax)
    400097fd:	00 00                	add    %al,(%rax)
    400097ff:	00 a8 00 00 00 01    	add    %ch,0x1000000(%rax)
    40009805:	00 00                	add    %al,(%rax)
    40009807:	00 4c 6f 6f          	add    %cl,0x6f(%rdi,%rbp,2)
    4000980b:	70 20                	jo     4000982d <CounterDefinitions+0x174d>
    4000980d:	75 6f                	jne    4000987e <CounterDefinitions+0x179e>
    4000980f:	70 73                	jo     40009884 <CounterDefinitions+0x17a4>
    40009811:	00 00                	add    %al,(%rax)
    40009813:	00 19                	add    %bl,(%rcx)
    40009815:	00 00                	add    %al,(%rax)
    40009817:	00 80 00 00 00 00    	add    %al,0x0(%rax)
    4000981d:	01 00                	add    %eax,(%rax)
    4000981f:	00 00                	add    %al,(%rax)
    40009821:	00 00                	add    %al,(%rax)
    40009823:	00 03                	add    %al,(%rbx)
    40009825:	00 00                	add    %al,(%rax)
    40009827:	00 00                	add    %al,(%rax)
    40009829:	00 00                	add    %al,(%rax)
    4000982b:	00 79 00             	add    %bh,0x0(%rcx)
    4000982e:	00 00                	add    %al,(%rax)
    40009830:	04 00                	add    $0x0,%al
    40009832:	00 00                	add    %al,(%rax)
    40009834:	44                   	rex.R
    40009835:	65 63 20             	movsxd %gs:(%rax),%esp
    40009838:	75 6f                	jne    400098a9 <CounterDefinitions+0x17c9>
    4000983a:	70 73                	jo     400098af <CounterDefinitions+0x17cf>
    4000983c:	00 00                	add    %al,(%rax)
    4000983e:	00 00                	add    %al,(%rax)
    40009840:	1a 00                	sbb    (%rax),%al
    40009842:	00 00                	add    %al,(%rax)
    40009844:	80 00 00             	addb   $0x0,(%rax)
    40009847:	00 00                	add    %al,(%rax)
    40009849:	01 00                	add    %eax,(%rax)
    4000984b:	00 00                	add    %al,(%rax)
    4000984d:	00 00                	add    %al,(%rax)
    4000984f:	00 03                	add    %al,(%rbx)
    40009851:	00 00                	add    %al,(%rax)
    40009853:	00 00                	add    %al,(%rax)
    40009855:	00 00                	add    %al,(%rax)
    40009857:	00 79 00             	add    %bh,0x0(%rcx)
    4000985a:	00 00                	add    %al,(%rax)
    4000985c:	08 00                	or     %al,(%rax)
    4000985e:	00 00                	add    %al,(%rax)
    40009860:	43 61                	rex.XB (bad) 
    40009862:	63 68 20             	movsxd 0x20(%rax),%ebp
    40009865:	75 6f                	jne    400098d6 <CounterDefinitions+0x17f6>
    40009867:	70 73                	jo     400098dc <CounterDefinitions+0x17fc>
    40009869:	00 00                	add    %al,(%rax)
    4000986b:	00 64 00 00          	add    %ah,0x0(%rax,%rax,1)
    4000986f:	00 80 00 00 00 00    	add    %al,0x0(%rax)
    40009875:	01 00                	add    %eax,(%rax)
    40009877:	00 00                	add    %al,(%rax)
    40009879:	00 00                	add    %al,(%rax)
    4000987b:	00 03                	add    %al,(%rbx)
    4000987d:	00 00                	add    %al,(%rax)
    4000987f:	00 00                	add    %al,(%rax)
    40009881:	00 00                	add    %al,(%rax)
    40009883:	00 c2                	add    %al,%dl
    40009885:	00 00                	add    %al,(%rax)
    40009887:	00 01                	add    %al,(%rcx)
    40009889:	00 00                	add    %al,(%rax)
    4000988b:	00 55 6f             	add    %dl,0x6f(%rbp)
    4000988e:	70 73                	jo     40009903 <CounterDefinitions+0x1823>
	...
    40009898:	68 00 00 00 80       	push   $0xffffffff80000000
    4000989d:	00 00                	add    %al,(%rax)
    4000989f:	00 00                	add    %al,(%rax)
    400098a1:	01 00                	add    %eax,(%rax)
    400098a3:	00 00                	add    %al,(%rax)
    400098a5:	00 00                	add    %al,(%rax)
    400098a7:	00 03                	add    %al,(%rbx)
    400098a9:	00 00                	add    %al,(%rax)
    400098ab:	00 00                	add    %al,(%rax)
    400098ad:	00 00                	add    %al,(%rax)
    400098af:	00 0e                	add    %cl,(%rsi)
    400098b1:	00 00                	add    %al,(%rax)
    400098b3:	00 01                	add    %al,(%rcx)
    400098b5:	00 00                	add    %al,(%rax)
    400098b7:	00 75 6f             	add    %dh,0x6f(%rbp)
    400098ba:	70 73                	jo     4000992f <CounterDefinitions+0x184f>
    400098bc:	20 52 41             	and    %dl,0x41(%rdx)
    400098bf:	54                   	push   %rsp
    400098c0:	00 00                	add    %al,(%rax)
    400098c2:	00 00                	add    %al,(%rax)
    400098c4:	6f                   	outsl  %ds:(%rsi),(%dx)
    400098c5:	00 00                	add    %al,(%rax)
    400098c7:	00 80 00 00 00 00    	add    %al,0x0(%rax)
    400098cd:	01 00                	add    %eax,(%rax)
    400098cf:	00 00                	add    %al,(%rax)
    400098d1:	00 00                	add    %al,(%rax)
    400098d3:	00 03                	add    %al,(%rbx)
    400098d5:	00 00                	add    %al,(%rax)
    400098d7:	00 00                	add    %al,(%rax)
    400098d9:	00 00                	add    %al,(%rax)
    400098db:	00 a2 00 00 00 01    	add    %ah,0x1000000(%rdx)
    400098e1:	00 00                	add    %al,(%rax)
    400098e3:	00 72 65             	add    %dh,0x65(%rdx)
    400098e6:	73 2e                	jae    40009916 <CounterDefinitions+0x1836>
    400098e8:	73 74                	jae    4000995e <CounterDefinitions+0x187e>
    400098ea:	6c                   	insb   (%dx),%es:(%rdi)
    400098eb:	2e 00 00             	cs add %al,(%rax)
    400098ee:	00 00                	add    %al,(%rax)
    400098f0:	83 00 00             	addl   $0x0,(%rax)
    400098f3:	00 80 00 00 00 00    	add    %al,0x0(%rax)
    400098f9:	01 00                	add    %eax,(%rax)
    400098fb:	00 00                	add    %al,(%rax)
    400098fd:	00 00                	add    %al,(%rax)
    400098ff:	00 03                	add    %al,(%rbx)
    40009901:	00 00                	add    %al,(%rax)
    40009903:	00 00                	add    %al,(%rax)
    40009905:	00 00                	add    %al,(%rax)
    40009907:	00 c1                	add    %al,%cl
    40009909:	00 00                	add    %al,(%rax)
    4000990b:	00 18                	add    %bl,(%rax)
    4000990d:	00 00                	add    %al,(%rax)
    4000990f:	00 41 56             	add    %al,0x56(%rcx)
    40009912:	58                   	pop    %rax
    40009913:	20 74 72 61          	and    %dh,0x61(%rdx,%rsi,2)
    40009917:	6e                   	outsb  %ds:(%rsi),(%dx)
    40009918:	73 00                	jae    4000991a <CounterDefinitions+0x183a>
    4000991a:	00 00                	add    %al,(%rax)
    4000991c:	96                   	xchg   %eax,%esi
    4000991d:	00 00                	add    %al,(%rax)
    4000991f:	00 80 00 00 00 00    	add    %al,0x0(%rax)
    40009925:	01 00                	add    %eax,(%rax)
    40009927:	00 00                	add    %al,(%rax)
    40009929:	00 00                	add    %al,(%rax)
    4000992b:	00 03                	add    %al,(%rbx)
    4000992d:	00 00                	add    %al,(%rax)
    4000992f:	00 00                	add    %al,(%rax)
    40009931:	00 00                	add    %al,(%rax)
    40009933:	00 a1 00 00 00 01    	add    %ah,0x1000000(%rcx)
    40009939:	00 00                	add    %al,(%rax)
    4000993b:	00 75 6f             	add    %dh,0x6f(%rbp)
    4000993e:	70 20                	jo     40009960 <CounterDefinitions+0x1880>
    40009940:	70 30                	jo     40009972 <CounterDefinitions+0x1892>
    40009942:	00 00                	add    %al,(%rax)
    40009944:	00 00                	add    %al,(%rax)
    40009946:	00 00                	add    %al,(%rax)
    40009948:	97                   	xchg   %eax,%edi
    40009949:	00 00                	add    %al,(%rax)
    4000994b:	00 80 00 00 00 00    	add    %al,0x0(%rax)
    40009951:	01 00                	add    %eax,(%rax)
    40009953:	00 00                	add    %al,(%rax)
    40009955:	00 00                	add    %al,(%rax)
    40009957:	00 03                	add    %al,(%rbx)
    40009959:	00 00                	add    %al,(%rax)
    4000995b:	00 00                	add    %al,(%rax)
    4000995d:	00 00                	add    %al,(%rax)
    4000995f:	00 a1 00 00 00 02    	add    %ah,0x2000000(%rcx)
    40009965:	00 00                	add    %al,(%rax)
    40009967:	00 75 6f             	add    %dh,0x6f(%rbp)
    4000996a:	70 20                	jo     4000998c <CounterDefinitions+0x18ac>
    4000996c:	70 31                	jo     4000999f <CounterDefinitions+0x18bf>
    4000996e:	00 00                	add    %al,(%rax)
    40009970:	00 00                	add    %al,(%rax)
    40009972:	00 00                	add    %al,(%rax)
    40009974:	98                   	cwtl   
    40009975:	00 00                	add    %al,(%rax)
    40009977:	00 80 00 00 00 00    	add    %al,0x0(%rax)
    4000997d:	01 00                	add    %eax,(%rax)
    4000997f:	00 00                	add    %al,(%rax)
    40009981:	00 00                	add    %al,(%rax)
    40009983:	00 03                	add    %al,(%rbx)
    40009985:	00 00                	add    %al,(%rax)
    40009987:	00 00                	add    %al,(%rax)
    40009989:	00 00                	add    %al,(%rax)
    4000998b:	00 a1 00 00 00 04    	add    %ah,0x4000000(%rcx)
    40009991:	00 00                	add    %al,(%rax)
    40009993:	00 75 6f             	add    %dh,0x6f(%rbp)
    40009996:	70 20                	jo     400099b8 <CounterDefinitions+0x18d8>
    40009998:	70 32                	jo     400099cc <CounterDefinitions+0x18ec>
    4000999a:	00 00                	add    %al,(%rax)
    4000999c:	00 00                	add    %al,(%rax)
    4000999e:	00 00                	add    %al,(%rax)
    400099a0:	99                   	cltd   
    400099a1:	00 00                	add    %al,(%rax)
    400099a3:	00 80 00 00 00 00    	add    %al,0x0(%rax)
    400099a9:	01 00                	add    %eax,(%rax)
    400099ab:	00 00                	add    %al,(%rax)
    400099ad:	00 00                	add    %al,(%rax)
    400099af:	00 03                	add    %al,(%rbx)
    400099b1:	00 00                	add    %al,(%rax)
    400099b3:	00 00                	add    %al,(%rax)
    400099b5:	00 00                	add    %al,(%rax)
    400099b7:	00 a1 00 00 00 08    	add    %ah,0x8000000(%rcx)
    400099bd:	00 00                	add    %al,(%rax)
    400099bf:	00 75 6f             	add    %dh,0x6f(%rbp)
    400099c2:	70 20                	jo     400099e4 <CounterDefinitions+0x1904>
    400099c4:	70 33                	jo     400099f9 <CounterDefinitions+0x1919>
    400099c6:	00 00                	add    %al,(%rax)
    400099c8:	00 00                	add    %al,(%rax)
    400099ca:	00 00                	add    %al,(%rax)
    400099cc:	9a                   	(bad)  
    400099cd:	00 00                	add    %al,(%rax)
    400099cf:	00 80 00 00 00 00    	add    %al,0x0(%rax)
    400099d5:	01 00                	add    %eax,(%rax)
    400099d7:	00 00                	add    %al,(%rax)
    400099d9:	00 00                	add    %al,(%rax)
    400099db:	00 03                	add    %al,(%rbx)
    400099dd:	00 00                	add    %al,(%rax)
    400099df:	00 00                	add    %al,(%rax)
    400099e1:	00 00                	add    %al,(%rax)
    400099e3:	00 a1 00 00 00 10    	add    %ah,0x10000000(%rcx)
    400099e9:	00 00                	add    %al,(%rax)
    400099eb:	00 75 6f             	add    %dh,0x6f(%rbp)
    400099ee:	70 20                	jo     40009a10 <CounterDefinitions+0x1930>
    400099f0:	70 34                	jo     40009a26 <CounterDefinitions+0x1946>
    400099f2:	00 00                	add    %al,(%rax)
    400099f4:	00 00                	add    %al,(%rax)
    400099f6:	00 00                	add    %al,(%rax)
    400099f8:	9b                   	fwait
    400099f9:	00 00                	add    %al,(%rax)
    400099fb:	00 80 00 00 00 00    	add    %al,0x0(%rax)
    40009a01:	01 00                	add    %eax,(%rax)
    40009a03:	00 00                	add    %al,(%rax)
    40009a05:	00 00                	add    %al,(%rax)
    40009a07:	00 03                	add    %al,(%rbx)
    40009a09:	00 00                	add    %al,(%rax)
    40009a0b:	00 00                	add    %al,(%rax)
    40009a0d:	00 00                	add    %al,(%rax)
    40009a0f:	00 a1 00 00 00 20    	add    %ah,0x20000000(%rcx)
    40009a15:	00 00                	add    %al,(%rax)
    40009a17:	00 75 6f             	add    %dh,0x6f(%rbp)
    40009a1a:	70 20                	jo     40009a3c <CounterDefinitions+0x195c>
    40009a1c:	70 35                	jo     40009a53 <CounterDefinitions+0x1973>
    40009a1e:	00 00                	add    %al,(%rax)
    40009a20:	00 00                	add    %al,(%rax)
    40009a22:	00 00                	add    %al,(%rax)
    40009a24:	9c                   	pushf  
    40009a25:	00 00                	add    %al,(%rax)
    40009a27:	00 80 00 00 00 00    	add    %al,0x0(%rax)
    40009a2d:	01 00                	add    %eax,(%rax)
    40009a2f:	00 00                	add    %al,(%rax)
    40009a31:	00 00                	add    %al,(%rax)
    40009a33:	00 03                	add    %al,(%rbx)
    40009a35:	00 00                	add    %al,(%rax)
    40009a37:	00 00                	add    %al,(%rax)
    40009a39:	00 00                	add    %al,(%rax)
    40009a3b:	00 a1 00 00 00 40    	add    %ah,0x40000000(%rcx)
    40009a41:	00 00                	add    %al,(%rax)
    40009a43:	00 75 6f             	add    %dh,0x6f(%rbp)
    40009a46:	70 20                	jo     40009a68 <CounterDefinitions+0x1988>
    40009a48:	70 36                	jo     40009a80 <CounterDefinitions+0x19a0>
    40009a4a:	00 00                	add    %al,(%rax)
    40009a4c:	00 00                	add    %al,(%rax)
    40009a4e:	00 00                	add    %al,(%rax)
    40009a50:	9d                   	popf   
    40009a51:	00 00                	add    %al,(%rax)
    40009a53:	00 80 00 00 00 00    	add    %al,0x0(%rax)
    40009a59:	01 00                	add    %eax,(%rax)
    40009a5b:	00 00                	add    %al,(%rax)
    40009a5d:	00 00                	add    %al,(%rax)
    40009a5f:	00 03                	add    %al,(%rbx)
    40009a61:	00 00                	add    %al,(%rax)
    40009a63:	00 00                	add    %al,(%rax)
    40009a65:	00 00                	add    %al,(%rax)
    40009a67:	00 a1 00 00 00 80    	add    %ah,-0x80000000(%rcx)
    40009a6d:	00 00                	add    %al,(%rax)
    40009a6f:	00 75 6f             	add    %dh,0x6f(%rbp)
    40009a72:	70 20                	jo     40009a94 <CounterDefinitions+0x19b4>
    40009a74:	70 37                	jo     40009aad <CounterDefinitions+0x19cd>
    40009a76:	00 00                	add    %al,(%rax)
    40009a78:	00 00                	add    %al,(%rax)
    40009a7a:	00 00                	add    %al,(%rax)
    40009a7c:	a0 00 00 00 80 00 00 	movabs 0x80000000,%al
    40009a83:	00 00 
    40009a85:	01 00                	add    %eax,(%rax)
    40009a87:	00 00                	add    %al,(%rax)
    40009a89:	00 00                	add    %al,(%rax)
    40009a8b:	00 03                	add    %al,(%rbx)
    40009a8d:	00 00                	add    %al,(%rax)
    40009a8f:	00 00                	add    %al,(%rax)
    40009a91:	00 00                	add    %al,(%rax)
    40009a93:	00 a1 00 00 00 ff    	add    %ah,-0x1000000(%rcx)
    40009a99:	00 00                	add    %al,(%rax)
    40009a9b:	00 75 6f             	add    %dh,0x6f(%rbp)
    40009a9e:	70 20                	jo     40009ac0 <CounterDefinitions+0x19e0>
    40009aa0:	70 30                	jo     40009ad2 <CounterDefinitions+0x19f2>
    40009aa2:	37                   	(bad)  
    40009aa3:	00 00                	add    %al,(%rax)
    40009aa5:	00 00                	add    %al,(%rax)
    40009aa7:	00 c9                	add    %cl,%cl
    40009aa9:	00 00                	add    %al,(%rax)
    40009aab:	00 80 00 00 00 00    	add    %al,0x0(%rax)
    40009ab1:	01 00                	add    %eax,(%rax)
    40009ab3:	00 00                	add    %al,(%rax)
    40009ab5:	00 00                	add    %al,(%rax)
    40009ab7:	00 03                	add    %al,(%rbx)
    40009ab9:	00 00                	add    %al,(%rax)
    40009abb:	00 00                	add    %al,(%rax)
    40009abd:	00 00                	add    %al,(%rax)
    40009abf:	00 c4                	add    %al,%ah
    40009ac1:	00 00                	add    %al,(%rax)
    40009ac3:	00 20                	add    %ah,(%rax)
    40009ac5:	00 00                	add    %al,(%rax)
    40009ac7:	00 42 72             	add    %al,0x72(%rdx)
    40009aca:	54                   	push   %rsp
    40009acb:	61                   	(bad)  
    40009acc:	6b 65 6e 00          	imul   $0x0,0x6e(%rbp),%esp
    40009ad0:	00 00                	add    %al,(%rax)
    40009ad2:	00 00                	add    %al,(%rax)
    40009ad4:	cf                   	iret   
    40009ad5:	00 00                	add    %al,(%rax)
    40009ad7:	00 80 00 00 00 00    	add    %al,0x0(%rax)
    40009add:	01 00                	add    %eax,(%rax)
    40009adf:	00 00                	add    %al,(%rax)
    40009ae1:	00 00                	add    %al,(%rax)
    40009ae3:	00 03                	add    %al,(%rbx)
    40009ae5:	00 00                	add    %al,(%rax)
    40009ae7:	00 00                	add    %al,(%rax)
    40009ae9:	00 00                	add    %al,(%rax)
    40009aeb:	00 c5                	add    %al,%ch
    40009aed:	00 00                	add    %al,(%rax)
    40009aef:	00 00                	add    %al,(%rax)
    40009af1:	00 00                	add    %al,(%rax)
    40009af3:	00 42 72             	add    %al,0x72(%rdx)
    40009af6:	4d 69 73 70 72 65 64 	imul   $0x646572,0x70(%r11),%r14
    40009afd:	00 
    40009afe:	00 00                	add    %al,(%rax)
    40009b00:	dc 00                	faddl  (%rax)
    40009b02:	00 00                	add    %al,(%rax)
    40009b04:	80 00 00             	addb   $0x0,(%rax)
    40009b07:	00 00                	add    %al,(%rax)
    40009b09:	01 00                	add    %eax,(%rax)
    40009b0b:	00 00                	add    %al,(%rax)
    40009b0d:	00 00                	add    %al,(%rax)
    40009b0f:	00 03                	add    %al,(%rbx)
    40009b11:	00 00                	add    %al,(%rax)
    40009b13:	00 00                	add    %al,(%rax)
    40009b15:	00 00                	add    %al,(%rax)
    40009b17:	00 58 00             	add    %bl,0x0(%rax)
    40009b1a:	00 00                	add    %al,(%rax)
    40009b1c:	03 00                	add    (%rax),%eax
    40009b1e:	00 00                	add    %al,(%rax)
    40009b20:	4d 6f                	rex.WRB outsl %ds:(%rsi),(%dx)
    40009b22:	76 20                	jbe    40009b44 <CounterDefinitions+0x1a64>
    40009b24:	65 6c                	gs insb (%dx),%es:(%rdi)
    40009b26:	69 6d 00 00 00 00 dd 	imul   $0xdd000000,0x0(%rbp),%ebp
    40009b2d:	00 00                	add    %al,(%rax)
    40009b2f:	00 80 00 00 00 00    	add    %al,0x0(%rax)
    40009b35:	01 00                	add    %eax,(%rax)
    40009b37:	00 00                	add    %al,(%rax)
    40009b39:	00 00                	add    %al,(%rax)
    40009b3b:	00 03                	add    %al,(%rbx)
    40009b3d:	00 00                	add    %al,(%rax)
    40009b3f:	00 00                	add    %al,(%rax)
    40009b41:	00 00                	add    %al,(%rax)
    40009b43:	00 58 00             	add    %bl,0x0(%rax)
    40009b46:	00 00                	add    %al,(%rax)
    40009b48:	0c 00                	or     $0x0,%al
    40009b4a:	00 00                	add    %al,(%rax)
    40009b4c:	4d 6f                	rex.WRB outsl %ds:(%rsi),(%dx)
    40009b4e:	76 20                	jbe    40009b70 <CounterDefinitions+0x1a90>
    40009b50:	65 6c                	gs insb (%dx),%es:(%rdi)
    40009b52:	69 6d 2d 00 00 00 36 	imul   $0x36000000,0x2d(%rbp),%ebp
    40009b59:	01 00                	add    %eax,(%rax)
    40009b5b:	00 80 00 00 00 00    	add    %al,0x0(%rax)
    40009b61:	01 00                	add    %eax,(%rax)
    40009b63:	00 00                	add    %al,(%rax)
    40009b65:	00 00                	add    %al,(%rax)
    40009b67:	00 03                	add    %al,(%rbx)
    40009b69:	00 00                	add    %al,(%rax)
    40009b6b:	00 00                	add    %al,(%rax)
    40009b6d:	00 00                	add    %al,(%rax)
    40009b6f:	00 80 00 00 00 02    	add    %al,0x2000000(%rax)
    40009b75:	00 00                	add    %al,(%rax)
    40009b77:	00 43 6f             	add    %al,0x6f(%rbx)
    40009b7a:	64 65 4d 69 73 73 00 	fs imul $0x0,%gs:0x73(%r11),%r14
    40009b81:	00 00 00 
    40009b84:	37                   	(bad)  
    40009b85:	01 00                	add    %eax,(%rax)
    40009b87:	00 80 00 00 00 00    	add    %al,0x0(%rax)
    40009b8d:	01 00                	add    %eax,(%rax)
    40009b8f:	00 00                	add    %al,(%rax)
    40009b91:	00 00                	add    %al,(%rax)
    40009b93:	00 03                	add    %al,(%rbx)
    40009b95:	00 00                	add    %al,(%rax)
    40009b97:	00 00                	add    %al,(%rax)
    40009b99:	00 00                	add    %al,(%rax)
    40009b9b:	00 24 00             	add    %ah,(%rax,%rax,1)
    40009b9e:	00 00                	add    %al,(%rax)
    40009ba0:	e1 00                	loope  40009ba2 <CounterDefinitions+0x1ac2>
    40009ba2:	00 00                	add    %al,(%rax)
    40009ba4:	4c 31 44 20 4d       	xor    %r8,0x4d(%rax,%riz,1)
    40009ba9:	69 73 73 00 00 00 00 	imul   $0x0,0x73(%rbx),%esi
    40009bb0:	40 01 00             	rex add %eax,(%rax)
    40009bb3:	00 80 00 00 00 00    	add    %al,0x0(%rax)
    40009bb9:	01 00                	add    %eax,(%rax)
    40009bbb:	00 00                	add    %al,(%rax)
    40009bbd:	00 00                	add    %al,(%rax)
    40009bbf:	00 03                	add    %al,(%rbx)
    40009bc1:	00 00                	add    %al,(%rax)
    40009bc3:	00 00                	add    %al,(%rax)
    40009bc5:	00 00                	add    %al,(%rax)
    40009bc7:	00 24 00             	add    %ah,(%rax,%rax,1)
    40009bca:	00 00                	add    %al,(%rax)
    40009bcc:	27                   	(bad)  
    40009bcd:	00 00                	add    %al,(%rax)
    40009bcf:	00 4c 32 20          	add    %cl,0x20(%rdx,%rsi,1)
    40009bd3:	4d 69 73 73 00 00 00 	imul   $0x0,0x73(%r11),%r14
    40009bda:	00 
    40009bdb:	00 01                	add    %al,(%rcx)
    40009bdd:	00 00                	add    %al,(%rax)
    40009bdf:	00 00                	add    %al,(%rax)
    40009be1:	01 00                	add    %eax,(%rax)
    40009be3:	00 00                	add    %al,(%rax)
    40009be5:	02 00                	add    (%rax),%al
    40009be7:	00 01                	add    %al,(%rcx)
    40009be9:	00 00                	add    %al,(%rax)
    40009beb:	40 00 00             	rex add %al,(%rax)
	...
    40009bfa:	00 00                	add    %al,(%rax)
    40009bfc:	43 6f                	rex.XB outsl %ds:(%rsi),(%dx)
    40009bfe:	72 65                	jb     40009c65 <CounterDefinitions+0x1b85>
    40009c00:	20 63 79             	and    %ah,0x79(%rbx)
    40009c03:	63 00                	movsxd (%rax),%eax
    40009c05:	00 00                	add    %al,(%rax)
    40009c07:	00 02                	add    %al,(%rdx)
    40009c09:	00 00                	add    %al,(%rax)
    40009c0b:	00 00                	add    %al,(%rax)
    40009c0d:	01 00                	add    %eax,(%rax)
    40009c0f:	00 00                	add    %al,(%rax)
    40009c11:	02 00                	add    (%rax),%al
    40009c13:	00 02                	add    %al,(%rdx)
    40009c15:	00 00                	add    %al,(%rax)
    40009c17:	40 00 00             	rex add %al,(%rax)
	...
    40009c26:	00 00                	add    %al,(%rax)
    40009c28:	52                   	push   %rdx
    40009c29:	65 66 20 63 79       	data16 and %ah,%gs:0x79(%rbx)
    40009c2e:	63 00                	movsxd (%rax),%eax
    40009c30:	00 00                	add    %al,(%rax)
    40009c32:	00 00                	add    %al,(%rax)
    40009c34:	09 00                	or     %eax,(%rax)
    40009c36:	00 00                	add    %al,(%rax)
    40009c38:	00 01                	add    %al,(%rcx)
    40009c3a:	00 00                	add    %al,(%rax)
    40009c3c:	00 02                	add    %al,(%rdx)
    40009c3e:	00 00                	add    %al,(%rax)
    40009c40:	00 00                	add    %al,(%rax)
    40009c42:	00 40 00             	add    %al,0x0(%rax)
	...
    40009c51:	00 00                	add    %al,(%rax)
    40009c53:	00 49 6e             	add    %cl,0x6e(%rcx)
    40009c56:	73 74                	jae    40009ccc <CounterDefinitions+0x1bec>
    40009c58:	72 75                	jb     40009ccf <CounterDefinitions+0x1bef>
    40009c5a:	63 74 00 00          	movsxd 0x0(%rax,%rax,1),%esi
    40009c5e:	00 00                	add    %al,(%rax)
    40009c60:	0a 00                	or     (%rax),%al
    40009c62:	00 00                	add    %al,(%rax)
    40009c64:	00 01                	add    %al,(%rcx)
    40009c66:	00 00                	add    %al,(%rax)
    40009c68:	00 02                	add    %al,(%rdx)
    40009c6a:	00 00                	add    %al,(%rax)
    40009c6c:	00 00                	add    %al,(%rax)
    40009c6e:	00 00                	add    %al,(%rax)
    40009c70:	03 00                	add    (%rax),%eax
    40009c72:	00 00                	add    %al,(%rax)
    40009c74:	00 00                	add    %al,(%rax)
    40009c76:	00 00                	add    %al,(%rax)
    40009c78:	c0 00 00             	rolb   $0x0,(%rax)
    40009c7b:	00 01                	add    %al,(%rcx)
    40009c7d:	00 00                	add    %al,(%rax)
    40009c7f:	00 49 6e             	add    %cl,0x6e(%rcx)
    40009c82:	73 74                	jae    40009cf8 <CounterDefinitions+0x1c18>
    40009c84:	72 75                	jb     40009cfb <CounterDefinitions+0x1c1b>
    40009c86:	63 74 00 00          	movsxd 0x0(%rax,%rax,1),%esi
    40009c8a:	00 00                	add    %al,(%rax)
    40009c8c:	16                   	(bad)  
    40009c8d:	00 00                	add    %al,(%rax)
    40009c8f:	00 00                	add    %al,(%rax)
    40009c91:	01 00                	add    %eax,(%rax)
    40009c93:	00 00                	add    %al,(%rax)
    40009c95:	02 00                	add    (%rax),%al
    40009c97:	00 00                	add    %al,(%rax)
    40009c99:	00 00                	add    %al,(%rax)
    40009c9b:	00 03                	add    %al,(%rbx)
    40009c9d:	00 00                	add    %al,(%rax)
    40009c9f:	00 00                	add    %al,(%rax)
    40009ca1:	00 00                	add    %al,(%rax)
    40009ca3:	00 87 00 00 00 01    	add    %al,0x1000000(%rdi)
    40009ca9:	00 00                	add    %al,(%rax)
    40009cab:	00 49 4c             	add    %cl,0x4c(%rcx)
    40009cae:	65 6e                	outsb  %gs:(%rsi),(%dx)
    40009cb0:	53                   	push   %rbx
    40009cb1:	74 61                	je     40009d14 <CounterDefinitions+0x1c34>
    40009cb3:	6c                   	insb   (%dx),%es:(%rdi)
    40009cb4:	00 00                	add    %al,(%rax)
    40009cb6:	00 00                	add    %al,(%rax)
    40009cb8:	18 00                	sbb    %al,(%rax)
    40009cba:	00 00                	add    %al,(%rax)
    40009cbc:	00 01                	add    %al,(%rcx)
    40009cbe:	00 00                	add    %al,(%rax)
    40009cc0:	00 02                	add    %al,(%rdx)
    40009cc2:	00 00                	add    %al,(%rax)
    40009cc4:	00 00                	add    %al,(%rax)
    40009cc6:	00 00                	add    %al,(%rax)
    40009cc8:	03 00                	add    (%rax),%eax
    40009cca:	00 00                	add    %al,(%rax)
    40009ccc:	00 00                	add    %al,(%rax)
    40009cce:	00 00                	add    %al,(%rax)
    40009cd0:	a8 00                	test   $0x0,%al
    40009cd2:	00 00                	add    %al,(%rax)
    40009cd4:	01 00                	add    %eax,(%rax)
    40009cd6:	00 00                	add    %al,(%rax)
    40009cd8:	4c 6f                	rex.WR outsl %ds:(%rsi),(%dx)
    40009cda:	6f                   	outsl  %ds:(%rsi),(%dx)
    40009cdb:	70 20                	jo     40009cfd <CounterDefinitions+0x1c1d>
    40009cdd:	75 6f                	jne    40009d4e <CounterDefinitions+0x1c6e>
    40009cdf:	70 73                	jo     40009d54 <CounterDefinitions+0x1c74>
    40009ce1:	00 00                	add    %al,(%rax)
    40009ce3:	00 19                	add    %bl,(%rcx)
    40009ce5:	00 00                	add    %al,(%rax)
    40009ce7:	00 00                	add    %al,(%rax)
    40009ce9:	01 00                	add    %eax,(%rax)
    40009ceb:	00 00                	add    %al,(%rax)
    40009ced:	02 00                	add    (%rax),%al
    40009cef:	00 00                	add    %al,(%rax)
    40009cf1:	00 00                	add    %al,(%rax)
    40009cf3:	00 03                	add    %al,(%rbx)
    40009cf5:	00 00                	add    %al,(%rax)
    40009cf7:	00 00                	add    %al,(%rax)
    40009cf9:	00 00                	add    %al,(%rax)
    40009cfb:	00 79 00             	add    %bh,0x0(%rcx)
    40009cfe:	00 00                	add    %al,(%rax)
    40009d00:	04 00                	add    $0x0,%al
    40009d02:	00 00                	add    %al,(%rax)
    40009d04:	44                   	rex.R
    40009d05:	65 63 20             	movsxd %gs:(%rax),%esp
    40009d08:	75 6f                	jne    40009d79 <CounterDefinitions+0x1c99>
    40009d0a:	70 73                	jo     40009d7f <CounterDefinitions+0x1c9f>
    40009d0c:	00 00                	add    %al,(%rax)
    40009d0e:	00 00                	add    %al,(%rax)
    40009d10:	1a 00                	sbb    (%rax),%al
    40009d12:	00 00                	add    %al,(%rax)
    40009d14:	00 01                	add    %al,(%rcx)
    40009d16:	00 00                	add    %al,(%rax)
    40009d18:	00 02                	add    %al,(%rdx)
    40009d1a:	00 00                	add    %al,(%rax)
    40009d1c:	00 00                	add    %al,(%rax)
    40009d1e:	00 00                	add    %al,(%rax)
    40009d20:	03 00                	add    (%rax),%eax
    40009d22:	00 00                	add    %al,(%rax)
    40009d24:	00 00                	add    %al,(%rax)
    40009d26:	00 00                	add    %al,(%rax)
    40009d28:	79 00                	jns    40009d2a <CounterDefinitions+0x1c4a>
    40009d2a:	00 00                	add    %al,(%rax)
    40009d2c:	08 00                	or     %al,(%rax)
    40009d2e:	00 00                	add    %al,(%rax)
    40009d30:	43 61                	rex.XB (bad) 
    40009d32:	63 68 20             	movsxd 0x20(%rax),%ebp
    40009d35:	75 6f                	jne    40009da6 <CounterDefinitions+0x1cc6>
    40009d37:	70 73                	jo     40009dac <CounterDefinitions+0x1ccc>
    40009d39:	00 00                	add    %al,(%rax)
    40009d3b:	00 64 00 00          	add    %ah,0x0(%rax,%rax,1)
    40009d3f:	00 00                	add    %al,(%rax)
    40009d41:	01 00                	add    %eax,(%rax)
    40009d43:	00 00                	add    %al,(%rax)
    40009d45:	02 00                	add    (%rax),%al
    40009d47:	00 00                	add    %al,(%rax)
    40009d49:	00 00                	add    %al,(%rax)
    40009d4b:	00 03                	add    %al,(%rbx)
    40009d4d:	00 00                	add    %al,(%rax)
    40009d4f:	00 00                	add    %al,(%rax)
    40009d51:	00 00                	add    %al,(%rax)
    40009d53:	00 c2                	add    %al,%dl
    40009d55:	00 00                	add    %al,(%rax)
    40009d57:	00 01                	add    %al,(%rcx)
    40009d59:	00 00                	add    %al,(%rax)
    40009d5b:	00 55 6f             	add    %dl,0x6f(%rbp)
    40009d5e:	70 73                	jo     40009dd3 <CounterDefinitions+0x1cf3>
	...
    40009d68:	68 00 00 00 00       	push   $0x0
    40009d6d:	01 00                	add    %eax,(%rax)
    40009d6f:	00 00                	add    %al,(%rax)
    40009d71:	02 00                	add    (%rax),%al
    40009d73:	00 00                	add    %al,(%rax)
    40009d75:	00 00                	add    %al,(%rax)
    40009d77:	00 03                	add    %al,(%rbx)
    40009d79:	00 00                	add    %al,(%rax)
    40009d7b:	00 00                	add    %al,(%rax)
    40009d7d:	00 00                	add    %al,(%rax)
    40009d7f:	00 0e                	add    %cl,(%rsi)
    40009d81:	00 00                	add    %al,(%rax)
    40009d83:	00 01                	add    %al,(%rcx)
    40009d85:	00 00                	add    %al,(%rax)
    40009d87:	00 75 6f             	add    %dh,0x6f(%rbp)
    40009d8a:	70 73                	jo     40009dff <CounterDefinitions+0x1d1f>
    40009d8c:	20 52 41             	and    %dl,0x41(%rdx)
    40009d8f:	54                   	push   %rsp
    40009d90:	00 00                	add    %al,(%rax)
    40009d92:	00 00                	add    %al,(%rax)
    40009d94:	6f                   	outsl  %ds:(%rsi),(%dx)
    40009d95:	00 00                	add    %al,(%rax)
    40009d97:	00 00                	add    %al,(%rax)
    40009d99:	01 00                	add    %eax,(%rax)
    40009d9b:	00 00                	add    %al,(%rax)
    40009d9d:	02 00                	add    (%rax),%al
    40009d9f:	00 00                	add    %al,(%rax)
    40009da1:	00 00                	add    %al,(%rax)
    40009da3:	00 03                	add    %al,(%rbx)
    40009da5:	00 00                	add    %al,(%rax)
    40009da7:	00 00                	add    %al,(%rax)
    40009da9:	00 00                	add    %al,(%rax)
    40009dab:	00 a2 00 00 00 01    	add    %ah,0x1000000(%rdx)
    40009db1:	00 00                	add    %al,(%rax)
    40009db3:	00 72 65             	add    %dh,0x65(%rdx)
    40009db6:	73 2e                	jae    40009de6 <CounterDefinitions+0x1d06>
    40009db8:	73 74                	jae    40009e2e <CounterDefinitions+0x1d4e>
    40009dba:	6c                   	insb   (%dx),%es:(%rdi)
    40009dbb:	2e 00 00             	cs add %al,(%rax)
    40009dbe:	00 00                	add    %al,(%rax)
    40009dc0:	83 00 00             	addl   $0x0,(%rax)
    40009dc3:	00 00                	add    %al,(%rax)
    40009dc5:	01 00                	add    %eax,(%rax)
    40009dc7:	00 00                	add    %al,(%rax)
    40009dc9:	02 00                	add    (%rax),%al
    40009dcb:	00 00                	add    %al,(%rax)
    40009dcd:	00 00                	add    %al,(%rax)
    40009dcf:	00 03                	add    %al,(%rbx)
    40009dd1:	00 00                	add    %al,(%rax)
    40009dd3:	00 00                	add    %al,(%rax)
    40009dd5:	00 00                	add    %al,(%rax)
    40009dd7:	00 c1                	add    %al,%cl
    40009dd9:	00 00                	add    %al,(%rax)
    40009ddb:	00 18                	add    %bl,(%rax)
    40009ddd:	00 00                	add    %al,(%rax)
    40009ddf:	00 41 56             	add    %al,0x56(%rcx)
    40009de2:	58                   	pop    %rax
    40009de3:	20 74 72 61          	and    %dh,0x61(%rdx,%rsi,2)
    40009de7:	6e                   	outsb  %ds:(%rsi),(%dx)
    40009de8:	73 00                	jae    40009dea <CounterDefinitions+0x1d0a>
    40009dea:	00 00                	add    %al,(%rax)
    40009dec:	96                   	xchg   %eax,%esi
    40009ded:	00 00                	add    %al,(%rax)
    40009def:	00 00                	add    %al,(%rax)
    40009df1:	01 00                	add    %eax,(%rax)
    40009df3:	00 00                	add    %al,(%rax)
    40009df5:	02 00                	add    (%rax),%al
    40009df7:	00 00                	add    %al,(%rax)
    40009df9:	00 00                	add    %al,(%rax)
    40009dfb:	00 03                	add    %al,(%rbx)
    40009dfd:	00 00                	add    %al,(%rax)
    40009dff:	00 00                	add    %al,(%rax)
    40009e01:	00 00                	add    %al,(%rax)
    40009e03:	00 a1 00 00 00 01    	add    %ah,0x1000000(%rcx)
    40009e09:	00 00                	add    %al,(%rax)
    40009e0b:	00 75 6f             	add    %dh,0x6f(%rbp)
    40009e0e:	70 20                	jo     40009e30 <CounterDefinitions+0x1d50>
    40009e10:	70 30                	jo     40009e42 <CounterDefinitions+0x1d62>
    40009e12:	00 00                	add    %al,(%rax)
    40009e14:	00 00                	add    %al,(%rax)
    40009e16:	00 00                	add    %al,(%rax)
    40009e18:	97                   	xchg   %eax,%edi
    40009e19:	00 00                	add    %al,(%rax)
    40009e1b:	00 00                	add    %al,(%rax)
    40009e1d:	01 00                	add    %eax,(%rax)
    40009e1f:	00 00                	add    %al,(%rax)
    40009e21:	02 00                	add    (%rax),%al
    40009e23:	00 00                	add    %al,(%rax)
    40009e25:	00 00                	add    %al,(%rax)
    40009e27:	00 03                	add    %al,(%rbx)
    40009e29:	00 00                	add    %al,(%rax)
    40009e2b:	00 00                	add    %al,(%rax)
    40009e2d:	00 00                	add    %al,(%rax)
    40009e2f:	00 a1 00 00 00 02    	add    %ah,0x2000000(%rcx)
    40009e35:	00 00                	add    %al,(%rax)
    40009e37:	00 75 6f             	add    %dh,0x6f(%rbp)
    40009e3a:	70 20                	jo     40009e5c <CounterDefinitions+0x1d7c>
    40009e3c:	70 31                	jo     40009e6f <CounterDefinitions+0x1d8f>
    40009e3e:	00 00                	add    %al,(%rax)
    40009e40:	00 00                	add    %al,(%rax)
    40009e42:	00 00                	add    %al,(%rax)
    40009e44:	98                   	cwtl   
    40009e45:	00 00                	add    %al,(%rax)
    40009e47:	00 00                	add    %al,(%rax)
    40009e49:	01 00                	add    %eax,(%rax)
    40009e4b:	00 00                	add    %al,(%rax)
    40009e4d:	02 00                	add    (%rax),%al
    40009e4f:	00 00                	add    %al,(%rax)
    40009e51:	00 00                	add    %al,(%rax)
    40009e53:	00 03                	add    %al,(%rbx)
    40009e55:	00 00                	add    %al,(%rax)
    40009e57:	00 00                	add    %al,(%rax)
    40009e59:	00 00                	add    %al,(%rax)
    40009e5b:	00 a1 00 00 00 04    	add    %ah,0x4000000(%rcx)
    40009e61:	00 00                	add    %al,(%rax)
    40009e63:	00 75 6f             	add    %dh,0x6f(%rbp)
    40009e66:	70 20                	jo     40009e88 <CounterDefinitions+0x1da8>
    40009e68:	70 32                	jo     40009e9c <CounterDefinitions+0x1dbc>
    40009e6a:	00 00                	add    %al,(%rax)
    40009e6c:	00 00                	add    %al,(%rax)
    40009e6e:	00 00                	add    %al,(%rax)
    40009e70:	99                   	cltd   
    40009e71:	00 00                	add    %al,(%rax)
    40009e73:	00 00                	add    %al,(%rax)
    40009e75:	01 00                	add    %eax,(%rax)
    40009e77:	00 00                	add    %al,(%rax)
    40009e79:	02 00                	add    (%rax),%al
    40009e7b:	00 00                	add    %al,(%rax)
    40009e7d:	00 00                	add    %al,(%rax)
    40009e7f:	00 03                	add    %al,(%rbx)
    40009e81:	00 00                	add    %al,(%rax)
    40009e83:	00 00                	add    %al,(%rax)
    40009e85:	00 00                	add    %al,(%rax)
    40009e87:	00 a1 00 00 00 08    	add    %ah,0x8000000(%rcx)
    40009e8d:	00 00                	add    %al,(%rax)
    40009e8f:	00 75 6f             	add    %dh,0x6f(%rbp)
    40009e92:	70 20                	jo     40009eb4 <CounterDefinitions+0x1dd4>
    40009e94:	70 33                	jo     40009ec9 <CounterDefinitions+0x1de9>
    40009e96:	00 00                	add    %al,(%rax)
    40009e98:	00 00                	add    %al,(%rax)
    40009e9a:	00 00                	add    %al,(%rax)
    40009e9c:	9a                   	(bad)  
    40009e9d:	00 00                	add    %al,(%rax)
    40009e9f:	00 00                	add    %al,(%rax)
    40009ea1:	01 00                	add    %eax,(%rax)
    40009ea3:	00 00                	add    %al,(%rax)
    40009ea5:	02 00                	add    (%rax),%al
    40009ea7:	00 00                	add    %al,(%rax)
    40009ea9:	00 00                	add    %al,(%rax)
    40009eab:	00 03                	add    %al,(%rbx)
    40009ead:	00 00                	add    %al,(%rax)
    40009eaf:	00 00                	add    %al,(%rax)
    40009eb1:	00 00                	add    %al,(%rax)
    40009eb3:	00 a1 00 00 00 10    	add    %ah,0x10000000(%rcx)
    40009eb9:	00 00                	add    %al,(%rax)
    40009ebb:	00 75 6f             	add    %dh,0x6f(%rbp)
    40009ebe:	70 20                	jo     40009ee0 <CounterDefinitions+0x1e00>
    40009ec0:	70 34                	jo     40009ef6 <CounterDefinitions+0x1e16>
    40009ec2:	00 00                	add    %al,(%rax)
    40009ec4:	00 00                	add    %al,(%rax)
    40009ec6:	00 00                	add    %al,(%rax)
    40009ec8:	9b                   	fwait
    40009ec9:	00 00                	add    %al,(%rax)
    40009ecb:	00 00                	add    %al,(%rax)
    40009ecd:	01 00                	add    %eax,(%rax)
    40009ecf:	00 00                	add    %al,(%rax)
    40009ed1:	02 00                	add    (%rax),%al
    40009ed3:	00 00                	add    %al,(%rax)
    40009ed5:	00 00                	add    %al,(%rax)
    40009ed7:	00 03                	add    %al,(%rbx)
    40009ed9:	00 00                	add    %al,(%rax)
    40009edb:	00 00                	add    %al,(%rax)
    40009edd:	00 00                	add    %al,(%rax)
    40009edf:	00 a1 00 00 00 20    	add    %ah,0x20000000(%rcx)
    40009ee5:	00 00                	add    %al,(%rax)
    40009ee7:	00 75 6f             	add    %dh,0x6f(%rbp)
    40009eea:	70 20                	jo     40009f0c <CounterDefinitions+0x1e2c>
    40009eec:	70 35                	jo     40009f23 <CounterDefinitions+0x1e43>
    40009eee:	00 00                	add    %al,(%rax)
    40009ef0:	00 00                	add    %al,(%rax)
    40009ef2:	00 00                	add    %al,(%rax)
    40009ef4:	9c                   	pushf  
    40009ef5:	00 00                	add    %al,(%rax)
    40009ef7:	00 00                	add    %al,(%rax)
    40009ef9:	01 00                	add    %eax,(%rax)
    40009efb:	00 00                	add    %al,(%rax)
    40009efd:	02 00                	add    (%rax),%al
    40009eff:	00 00                	add    %al,(%rax)
    40009f01:	00 00                	add    %al,(%rax)
    40009f03:	00 03                	add    %al,(%rbx)
    40009f05:	00 00                	add    %al,(%rax)
    40009f07:	00 00                	add    %al,(%rax)
    40009f09:	00 00                	add    %al,(%rax)
    40009f0b:	00 a1 00 00 00 40    	add    %ah,0x40000000(%rcx)
    40009f11:	00 00                	add    %al,(%rax)
    40009f13:	00 75 6f             	add    %dh,0x6f(%rbp)
    40009f16:	70 20                	jo     40009f38 <CounterDefinitions+0x1e58>
    40009f18:	70 36                	jo     40009f50 <CounterDefinitions+0x1e70>
    40009f1a:	00 00                	add    %al,(%rax)
    40009f1c:	00 00                	add    %al,(%rax)
    40009f1e:	00 00                	add    %al,(%rax)
    40009f20:	9d                   	popf   
    40009f21:	00 00                	add    %al,(%rax)
    40009f23:	00 00                	add    %al,(%rax)
    40009f25:	01 00                	add    %eax,(%rax)
    40009f27:	00 00                	add    %al,(%rax)
    40009f29:	02 00                	add    (%rax),%al
    40009f2b:	00 00                	add    %al,(%rax)
    40009f2d:	00 00                	add    %al,(%rax)
    40009f2f:	00 03                	add    %al,(%rbx)
    40009f31:	00 00                	add    %al,(%rax)
    40009f33:	00 00                	add    %al,(%rax)
    40009f35:	00 00                	add    %al,(%rax)
    40009f37:	00 a1 00 00 00 80    	add    %ah,-0x80000000(%rcx)
    40009f3d:	00 00                	add    %al,(%rax)
    40009f3f:	00 75 6f             	add    %dh,0x6f(%rbp)
    40009f42:	70 20                	jo     40009f64 <CounterDefinitions+0x1e84>
    40009f44:	70 37                	jo     40009f7d <CounterDefinitions+0x1e9d>
    40009f46:	00 00                	add    %al,(%rax)
    40009f48:	00 00                	add    %al,(%rax)
    40009f4a:	00 00                	add    %al,(%rax)
    40009f4c:	a0 00 00 00 00 01 00 	movabs 0x100000000,%al
    40009f53:	00 00 
    40009f55:	02 00                	add    (%rax),%al
    40009f57:	00 00                	add    %al,(%rax)
    40009f59:	00 00                	add    %al,(%rax)
    40009f5b:	00 03                	add    %al,(%rbx)
    40009f5d:	00 00                	add    %al,(%rax)
    40009f5f:	00 00                	add    %al,(%rax)
    40009f61:	00 00                	add    %al,(%rax)
    40009f63:	00 a1 00 00 00 ff    	add    %ah,-0x1000000(%rcx)
    40009f69:	00 00                	add    %al,(%rax)
    40009f6b:	00 75 6f             	add    %dh,0x6f(%rbp)
    40009f6e:	70 20                	jo     40009f90 <CounterDefinitions+0x1eb0>
    40009f70:	70 30                	jo     40009fa2 <CounterDefinitions+0x1ec2>
    40009f72:	37                   	(bad)  
    40009f73:	00 00                	add    %al,(%rax)
    40009f75:	00 00                	add    %al,(%rax)
    40009f77:	00 c9                	add    %cl,%cl
    40009f79:	00 00                	add    %al,(%rax)
    40009f7b:	00 00                	add    %al,(%rax)
    40009f7d:	01 00                	add    %eax,(%rax)
    40009f7f:	00 00                	add    %al,(%rax)
    40009f81:	02 00                	add    (%rax),%al
    40009f83:	00 00                	add    %al,(%rax)
    40009f85:	00 00                	add    %al,(%rax)
    40009f87:	00 03                	add    %al,(%rbx)
    40009f89:	00 00                	add    %al,(%rax)
    40009f8b:	00 00                	add    %al,(%rax)
    40009f8d:	00 00                	add    %al,(%rax)
    40009f8f:	00 c4                	add    %al,%ah
    40009f91:	00 00                	add    %al,(%rax)
    40009f93:	00 20                	add    %ah,(%rax)
    40009f95:	00 00                	add    %al,(%rax)
    40009f97:	00 42 72             	add    %al,0x72(%rdx)
    40009f9a:	54                   	push   %rsp
    40009f9b:	61                   	(bad)  
    40009f9c:	6b 65 6e 00          	imul   $0x0,0x6e(%rbp),%esp
    40009fa0:	00 00                	add    %al,(%rax)
    40009fa2:	00 00                	add    %al,(%rax)
    40009fa4:	cc                   	int3   
    40009fa5:	00 00                	add    %al,(%rax)
    40009fa7:	00 00                	add    %al,(%rax)
    40009fa9:	01 00                	add    %eax,(%rax)
    40009fab:	00 00                	add    %al,(%rax)
    40009fad:	02 00                	add    (%rax),%al
    40009faf:	00 00                	add    %al,(%rax)
    40009fb1:	00 00                	add    %al,(%rax)
    40009fb3:	00 03                	add    %al,(%rbx)
    40009fb5:	00 00                	add    %al,(%rax)
    40009fb7:	00 00                	add    %al,(%rax)
    40009fb9:	00 00                	add    %al,(%rax)
    40009fbb:	00 c4                	add    %al,%ah
    40009fbd:	00 00                	add    %al,(%rax)
    40009fbf:	00 00                	add    %al,(%rax)
    40009fc1:	00 00                	add    %al,(%rax)
    40009fc3:	00 42 72             	add    %al,0x72(%rdx)
    40009fc6:	52                   	push   %rdx
    40009fc7:	65 74 69             	gs je  4000a033 <CounterDefinitions+0x1f53>
    40009fca:	72 65                	jb     4000a031 <CounterDefinitions+0x1f51>
    40009fcc:	64 00 00             	add    %al,%fs:(%rax)
    40009fcf:	00 ce                	add    %cl,%dh
    40009fd1:	00 00                	add    %al,(%rax)
    40009fd3:	00 00                	add    %al,(%rax)
    40009fd5:	01 00                	add    %eax,(%rax)
    40009fd7:	00 00                	add    %al,(%rax)
    40009fd9:	02 00                	add    (%rax),%al
    40009fdb:	00 00                	add    %al,(%rax)
    40009fdd:	00 00                	add    %al,(%rax)
    40009fdf:	00 03                	add    %al,(%rbx)
    40009fe1:	00 00                	add    %al,(%rax)
    40009fe3:	00 00                	add    %al,(%rax)
    40009fe5:	00 00                	add    %al,(%rax)
    40009fe7:	00 89 00 00 00 e4    	add    %cl,-0x1c000000(%rcx)
    40009fed:	00 00                	add    %al,(%rax)
    40009fef:	00 42 72             	add    %al,0x72(%rdx)
    40009ff2:	4d 69 73 70 49 6e 64 	imul   $0x646e49,0x70(%r11),%r14
    40009ff9:	00 
    40009ffa:	00 00                	add    %al,(%rax)
    40009ffc:	cf                   	iret   
    40009ffd:	00 00                	add    %al,(%rax)
    40009fff:	00 00                	add    %al,(%rax)
    4000a001:	01 00                	add    %eax,(%rax)
    4000a003:	00 00                	add    %al,(%rax)
    4000a005:	02 00                	add    (%rax),%al
    4000a007:	00 00                	add    %al,(%rax)
    4000a009:	00 00                	add    %al,(%rax)
    4000a00b:	00 03                	add    %al,(%rbx)
    4000a00d:	00 00                	add    %al,(%rax)
    4000a00f:	00 00                	add    %al,(%rax)
    4000a011:	00 00                	add    %al,(%rax)
    4000a013:	00 c5                	add    %al,%ch
    4000a015:	00 00                	add    %al,(%rax)
    4000a017:	00 00                	add    %al,(%rax)
    4000a019:	00 00                	add    %al,(%rax)
    4000a01b:	00 42 72             	add    %al,0x72(%rdx)
    4000a01e:	4d 69 73 70 72 65 64 	imul   $0x646572,0x70(%r11),%r14
    4000a025:	00 
    4000a026:	00 00                	add    %al,(%rax)
    4000a028:	d0 00                	rolb   (%rax)
    4000a02a:	00 00                	add    %al,(%rax)
    4000a02c:	00 01                	add    %al,(%rcx)
    4000a02e:	00 00                	add    %al,(%rax)
    4000a030:	00 02                	add    %al,(%rdx)
    4000a032:	00 00                	add    %al,(%rax)
    4000a034:	00 00                	add    %al,(%rax)
    4000a036:	00 00                	add    %al,(%rax)
    4000a038:	03 00                	add    (%rax),%eax
    4000a03a:	00 00                	add    %al,(%rax)
    4000a03c:	00 00                	add    %al,(%rax)
    4000a03e:	00 00                	add    %al,(%rax)
    4000a040:	c5 00 00             	(bad)
    4000a043:	00 01                	add    %al,(%rcx)
    4000a045:	00 00                	add    %al,(%rax)
    4000a047:	00 42 72             	add    %al,0x72(%rdx)
    4000a04a:	4d 69 73 70 43 6f 6e 	imul   $0x6e6f43,0x70(%r11),%r14
    4000a051:	00 
    4000a052:	00 00                	add    %al,(%rax)
    4000a054:	d4                   	(bad)  
    4000a055:	00 00                	add    %al,(%rax)
    4000a057:	00 00                	add    %al,(%rax)
    4000a059:	01 00                	add    %eax,(%rax)
    4000a05b:	00 00                	add    %al,(%rax)
    4000a05d:	02 00                	add    (%rax),%al
    4000a05f:	00 00                	add    %al,(%rax)
    4000a061:	00 00                	add    %al,(%rax)
    4000a063:	00 03                	add    %al,(%rbx)
    4000a065:	00 00                	add    %al,(%rax)
    4000a067:	00 00                	add    %al,(%rax)
    4000a069:	00 00                	add    %al,(%rax)
    4000a06b:	00 e6                	add    %ah,%dh
    4000a06d:	00 00                	add    %al,(%rax)
    4000a06f:	00 01                	add    %al,(%rcx)
    4000a071:	00 00                	add    %al,(%rax)
    4000a073:	00 42 72             	add    %al,0x72(%rdx)
    4000a076:	43 6c                	rex.XB insb (%dx),%es:(%rdi)
    4000a078:	65 61                	gs (bad) 
    4000a07a:	72 00                	jb     4000a07c <CounterDefinitions+0x1f9c>
    4000a07c:	00 00                	add    %al,(%rax)
    4000a07e:	00 00                	add    %al,(%rax)
    4000a080:	dc 00                	faddl  (%rax)
    4000a082:	00 00                	add    %al,(%rax)
    4000a084:	00 01                	add    %al,(%rcx)
    4000a086:	00 00                	add    %al,(%rax)
    4000a088:	00 02                	add    %al,(%rdx)
    4000a08a:	00 00                	add    %al,(%rax)
    4000a08c:	00 00                	add    %al,(%rax)
    4000a08e:	00 00                	add    %al,(%rax)
    4000a090:	03 00                	add    (%rax),%eax
    4000a092:	00 00                	add    %al,(%rax)
    4000a094:	00 00                	add    %al,(%rax)
    4000a096:	00 00                	add    %al,(%rax)
    4000a098:	58                   	pop    %rax
    4000a099:	00 00                	add    %al,(%rax)
    4000a09b:	00 03                	add    %al,(%rbx)
    4000a09d:	00 00                	add    %al,(%rax)
    4000a09f:	00 4d 6f             	add    %cl,0x6f(%rbp)
    4000a0a2:	76 20                	jbe    4000a0c4 <CounterDefinitions+0x1fe4>
    4000a0a4:	65 6c                	gs insb (%dx),%es:(%rdi)
    4000a0a6:	69 6d 00 00 00 00 dd 	imul   $0xdd000000,0x0(%rbp),%ebp
    4000a0ad:	00 00                	add    %al,(%rax)
    4000a0af:	00 00                	add    %al,(%rax)
    4000a0b1:	01 00                	add    %eax,(%rax)
    4000a0b3:	00 00                	add    %al,(%rax)
    4000a0b5:	02 00                	add    (%rax),%al
    4000a0b7:	00 00                	add    %al,(%rax)
    4000a0b9:	00 00                	add    %al,(%rax)
    4000a0bb:	00 03                	add    %al,(%rbx)
    4000a0bd:	00 00                	add    %al,(%rax)
    4000a0bf:	00 00                	add    %al,(%rax)
    4000a0c1:	00 00                	add    %al,(%rax)
    4000a0c3:	00 58 00             	add    %bl,0x0(%rax)
    4000a0c6:	00 00                	add    %al,(%rax)
    4000a0c8:	0c 00                	or     $0x0,%al
    4000a0ca:	00 00                	add    %al,(%rax)
    4000a0cc:	4d 6f                	rex.WRB outsl %ds:(%rsi),(%dx)
    4000a0ce:	76 20                	jbe    4000a0f0 <CounterDefinitions+0x2010>
    4000a0d0:	65 6c                	gs insb (%dx),%es:(%rdi)
    4000a0d2:	69 6d 2d 00 00 00 36 	imul   $0x36000000,0x2d(%rbp),%ebp
    4000a0d9:	01 00                	add    %eax,(%rax)
    4000a0db:	00 00                	add    %al,(%rax)
    4000a0dd:	01 00                	add    %eax,(%rax)
    4000a0df:	00 00                	add    %al,(%rax)
    4000a0e1:	02 00                	add    (%rax),%al
    4000a0e3:	00 00                	add    %al,(%rax)
    4000a0e5:	00 00                	add    %al,(%rax)
    4000a0e7:	00 03                	add    %al,(%rbx)
    4000a0e9:	00 00                	add    %al,(%rax)
    4000a0eb:	00 00                	add    %al,(%rax)
    4000a0ed:	00 00                	add    %al,(%rax)
    4000a0ef:	00 80 00 00 00 02    	add    %al,0x2000000(%rax)
    4000a0f5:	00 00                	add    %al,(%rax)
    4000a0f7:	00 43 6f             	add    %al,0x6f(%rbx)
    4000a0fa:	64 65 4d 69 73 73 00 	fs imul $0x0,%gs:0x73(%r11),%r14
    4000a101:	00 00 00 
    4000a104:	37                   	(bad)  
    4000a105:	01 00                	add    %eax,(%rax)
    4000a107:	00 00                	add    %al,(%rax)
    4000a109:	01 00                	add    %eax,(%rax)
    4000a10b:	00 00                	add    %al,(%rax)
    4000a10d:	02 00                	add    (%rax),%al
    4000a10f:	00 00                	add    %al,(%rax)
    4000a111:	00 00                	add    %al,(%rax)
    4000a113:	00 03                	add    %al,(%rbx)
    4000a115:	00 00                	add    %al,(%rax)
    4000a117:	00 00                	add    %al,(%rax)
    4000a119:	00 00                	add    %al,(%rax)
    4000a11b:	00 24 00             	add    %ah,(%rax,%rax,1)
    4000a11e:	00 00                	add    %al,(%rax)
    4000a120:	e1 00                	loope  4000a122 <CounterDefinitions+0x2042>
    4000a122:	00 00                	add    %al,(%rax)
    4000a124:	4c 31 44 20 4d       	xor    %r8,0x4d(%rax,%riz,1)
    4000a129:	69 73 73 00 00 00 00 	imul   $0x0,0x73(%rbx),%esi
    4000a130:	40 01 00             	rex add %eax,(%rax)
    4000a133:	00 00                	add    %al,(%rax)
    4000a135:	01 00                	add    %eax,(%rax)
    4000a137:	00 00                	add    %al,(%rax)
    4000a139:	02 00                	add    (%rax),%al
    4000a13b:	00 00                	add    %al,(%rax)
    4000a13d:	00 00                	add    %al,(%rax)
    4000a13f:	00 03                	add    %al,(%rbx)
    4000a141:	00 00                	add    %al,(%rax)
    4000a143:	00 00                	add    %al,(%rax)
    4000a145:	00 00                	add    %al,(%rax)
    4000a147:	00 24 00             	add    %ah,(%rax,%rax,1)
    4000a14a:	00 00                	add    %al,(%rax)
    4000a14c:	27                   	(bad)  
    4000a14d:	00 00                	add    %al,(%rax)
    4000a14f:	00 4c 32 20          	add    %cl,0x20(%rdx,%rsi,1)
    4000a153:	4d 69 73 73 00 00 00 	imul   $0x0,0x73(%r11),%r14
    4000a15a:	00 
    4000a15b:	00 01                	add    %al,(%rcx)
    4000a15d:	00 00                	add    %al,(%rax)
    4000a15f:	00 00                	add    %al,(%rax)
    4000a161:	02 00                	add    (%rax),%al
    4000a163:	00 00                	add    %al,(%rax)
    4000a165:	04 00                	add    $0x0,%al
    4000a167:	00 01                	add    %al,(%rcx)
    4000a169:	00 00                	add    %al,(%rax)
    4000a16b:	40 00 00             	rex add %al,(%rax)
	...
    4000a17a:	00 00                	add    %al,(%rax)
    4000a17c:	43 6f                	rex.XB outsl %ds:(%rsi),(%dx)
    4000a17e:	72 65                	jb     4000a1e5 <CounterDefinitions+0x2105>
    4000a180:	20 63 79             	and    %ah,0x79(%rbx)
    4000a183:	63 00                	movsxd (%rax),%eax
    4000a185:	00 00                	add    %al,(%rax)
    4000a187:	00 02                	add    %al,(%rdx)
    4000a189:	00 00                	add    %al,(%rax)
    4000a18b:	00 00                	add    %al,(%rax)
    4000a18d:	02 00                	add    (%rax),%al
    4000a18f:	00 00                	add    %al,(%rax)
    4000a191:	04 00                	add    $0x0,%al
    4000a193:	00 02                	add    %al,(%rdx)
    4000a195:	00 00                	add    %al,(%rax)
    4000a197:	40 00 00             	rex add %al,(%rax)
	...
    4000a1a6:	00 00                	add    %al,(%rax)
    4000a1a8:	52                   	push   %rdx
    4000a1a9:	65 66 20 63 79       	data16 and %ah,%gs:0x79(%rbx)
    4000a1ae:	63 00                	movsxd (%rax),%eax
    4000a1b0:	00 00                	add    %al,(%rax)
    4000a1b2:	00 00                	add    %al,(%rax)
    4000a1b4:	09 00                	or     %eax,(%rax)
    4000a1b6:	00 00                	add    %al,(%rax)
    4000a1b8:	00 02                	add    %al,(%rdx)
    4000a1ba:	00 00                	add    %al,(%rax)
    4000a1bc:	00 04 00             	add    %al,(%rax,%rax,1)
    4000a1bf:	00 00                	add    %al,(%rax)
    4000a1c1:	00 00                	add    %al,(%rax)
    4000a1c3:	40 00 00             	rex add %al,(%rax)
	...
    4000a1d2:	00 00                	add    %al,(%rax)
    4000a1d4:	49 6e                	rex.WB outsb %ds:(%rsi),(%dx)
    4000a1d6:	73 74                	jae    4000a24c <CounterDefinitions+0x216c>
    4000a1d8:	72 75                	jb     4000a24f <CounterDefinitions+0x216f>
    4000a1da:	63 74 00 00          	movsxd 0x0(%rax,%rax,1),%esi
    4000a1de:	00 00                	add    %al,(%rax)
    4000a1e0:	0a 00                	or     (%rax),%al
    4000a1e2:	00 00                	add    %al,(%rax)
    4000a1e4:	00 02                	add    %al,(%rdx)
    4000a1e6:	00 00                	add    %al,(%rax)
    4000a1e8:	00 04 00             	add    %al,(%rax,%rax,1)
    4000a1eb:	00 00                	add    %al,(%rax)
    4000a1ed:	00 00                	add    %al,(%rax)
    4000a1ef:	00 07                	add    %al,(%rdi)
    4000a1f1:	00 00                	add    %al,(%rax)
    4000a1f3:	00 00                	add    %al,(%rax)
    4000a1f5:	00 00                	add    %al,(%rax)
    4000a1f7:	00 c0                	add    %al,%al
    4000a1f9:	00 00                	add    %al,(%rax)
    4000a1fb:	00 00                	add    %al,(%rax)
    4000a1fd:	00 00                	add    %al,(%rax)
    4000a1ff:	00 49 6e             	add    %cl,0x6e(%rcx)
    4000a202:	73 74                	jae    4000a278 <CounterDefinitions+0x2198>
    4000a204:	72 75                	jb     4000a27b <CounterDefinitions+0x219b>
    4000a206:	63 74 00 00          	movsxd 0x0(%rax,%rax,1),%esi
    4000a20a:	00 00                	add    %al,(%rax)
    4000a20c:	16                   	(bad)  
    4000a20d:	00 00                	add    %al,(%rax)
    4000a20f:	00 00                	add    %al,(%rax)
    4000a211:	02 00                	add    (%rax),%al
    4000a213:	00 00                	add    %al,(%rax)
    4000a215:	04 00                	add    $0x0,%al
    4000a217:	00 00                	add    %al,(%rax)
    4000a219:	00 00                	add    %al,(%rax)
    4000a21b:	00 07                	add    %al,(%rdi)
    4000a21d:	00 00                	add    %al,(%rax)
    4000a21f:	00 00                	add    %al,(%rax)
    4000a221:	00 00                	add    %al,(%rax)
    4000a223:	00 87 00 00 00 01    	add    %al,0x1000000(%rdi)
    4000a229:	00 00                	add    %al,(%rax)
    4000a22b:	00 49 4c             	add    %cl,0x4c(%rcx)
    4000a22e:	65 6e                	outsb  %gs:(%rsi),(%dx)
    4000a230:	53                   	push   %rbx
    4000a231:	74 61                	je     4000a294 <CounterDefinitions+0x21b4>
    4000a233:	6c                   	insb   (%dx),%es:(%rdi)
    4000a234:	00 00                	add    %al,(%rax)
    4000a236:	00 00                	add    %al,(%rax)
    4000a238:	18 00                	sbb    %al,(%rax)
    4000a23a:	00 00                	add    %al,(%rax)
    4000a23c:	00 02                	add    %al,(%rdx)
    4000a23e:	00 00                	add    %al,(%rax)
    4000a240:	00 04 00             	add    %al,(%rax,%rax,1)
    4000a243:	00 00                	add    %al,(%rax)
    4000a245:	00 00                	add    %al,(%rax)
    4000a247:	00 07                	add    %al,(%rdi)
    4000a249:	00 00                	add    %al,(%rax)
    4000a24b:	00 00                	add    %al,(%rax)
    4000a24d:	00 00                	add    %al,(%rax)
    4000a24f:	00 a8 00 00 00 01    	add    %ch,0x1000000(%rax)
    4000a255:	00 00                	add    %al,(%rax)
    4000a257:	00 4c 6f 6f          	add    %cl,0x6f(%rdi,%rbp,2)
    4000a25b:	70 20                	jo     4000a27d <CounterDefinitions+0x219d>
    4000a25d:	75 6f                	jne    4000a2ce <CounterDefinitions+0x21ee>
    4000a25f:	70 73                	jo     4000a2d4 <CounterDefinitions+0x21f4>
    4000a261:	00 00                	add    %al,(%rax)
    4000a263:	00 19                	add    %bl,(%rcx)
    4000a265:	00 00                	add    %al,(%rax)
    4000a267:	00 00                	add    %al,(%rax)
    4000a269:	02 00                	add    (%rax),%al
    4000a26b:	00 00                	add    %al,(%rax)
    4000a26d:	04 00                	add    $0x0,%al
    4000a26f:	00 00                	add    %al,(%rax)
    4000a271:	00 00                	add    %al,(%rax)
    4000a273:	00 07                	add    %al,(%rdi)
    4000a275:	00 00                	add    %al,(%rax)
    4000a277:	00 00                	add    %al,(%rax)
    4000a279:	00 00                	add    %al,(%rax)
    4000a27b:	00 79 00             	add    %bh,0x0(%rcx)
    4000a27e:	00 00                	add    %al,(%rax)
    4000a280:	04 00                	add    $0x0,%al
    4000a282:	00 00                	add    %al,(%rax)
    4000a284:	44                   	rex.R
    4000a285:	65 63 20             	movsxd %gs:(%rax),%esp
    4000a288:	75 6f                	jne    4000a2f9 <CounterDefinitions+0x2219>
    4000a28a:	70 73                	jo     4000a2ff <CounterDefinitions+0x221f>
    4000a28c:	00 00                	add    %al,(%rax)
    4000a28e:	00 00                	add    %al,(%rax)
    4000a290:	1a 00                	sbb    (%rax),%al
    4000a292:	00 00                	add    %al,(%rax)
    4000a294:	00 02                	add    %al,(%rdx)
    4000a296:	00 00                	add    %al,(%rax)
    4000a298:	00 04 00             	add    %al,(%rax,%rax,1)
    4000a29b:	00 00                	add    %al,(%rax)
    4000a29d:	00 00                	add    %al,(%rax)
    4000a29f:	00 07                	add    %al,(%rdi)
    4000a2a1:	00 00                	add    %al,(%rax)
    4000a2a3:	00 00                	add    %al,(%rax)
    4000a2a5:	00 00                	add    %al,(%rax)
    4000a2a7:	00 79 00             	add    %bh,0x0(%rcx)
    4000a2aa:	00 00                	add    %al,(%rax)
    4000a2ac:	08 00                	or     %al,(%rax)
    4000a2ae:	00 00                	add    %al,(%rax)
    4000a2b0:	43 61                	rex.XB (bad) 
    4000a2b2:	63 68 20             	movsxd 0x20(%rax),%ebp
    4000a2b5:	75 6f                	jne    4000a326 <CounterDefinitions+0x2246>
    4000a2b7:	70 73                	jo     4000a32c <CounterDefinitions+0x224c>
    4000a2b9:	00 00                	add    %al,(%rax)
    4000a2bb:	00 64 00 00          	add    %ah,0x0(%rax,%rax,1)
    4000a2bf:	00 00                	add    %al,(%rax)
    4000a2c1:	02 00                	add    (%rax),%al
    4000a2c3:	00 00                	add    %al,(%rax)
    4000a2c5:	04 00                	add    $0x0,%al
    4000a2c7:	00 00                	add    %al,(%rax)
    4000a2c9:	00 00                	add    %al,(%rax)
    4000a2cb:	00 07                	add    %al,(%rdi)
    4000a2cd:	00 00                	add    %al,(%rax)
    4000a2cf:	00 00                	add    %al,(%rax)
    4000a2d1:	00 00                	add    %al,(%rax)
    4000a2d3:	00 c2                	add    %al,%dl
    4000a2d5:	00 00                	add    %al,(%rax)
    4000a2d7:	00 01                	add    %al,(%rcx)
    4000a2d9:	00 00                	add    %al,(%rax)
    4000a2db:	00 55 6f             	add    %dl,0x6f(%rbp)
    4000a2de:	70 73                	jo     4000a353 <CounterDefinitions+0x2273>
	...
    4000a2e8:	68 00 00 00 00       	push   $0x0
    4000a2ed:	02 00                	add    (%rax),%al
    4000a2ef:	00 00                	add    %al,(%rax)
    4000a2f1:	04 00                	add    $0x0,%al
    4000a2f3:	00 00                	add    %al,(%rax)
    4000a2f5:	00 00                	add    %al,(%rax)
    4000a2f7:	00 07                	add    %al,(%rdi)
    4000a2f9:	00 00                	add    %al,(%rax)
    4000a2fb:	00 00                	add    %al,(%rax)
    4000a2fd:	00 00                	add    %al,(%rax)
    4000a2ff:	00 0e                	add    %cl,(%rsi)
    4000a301:	00 00                	add    %al,(%rax)
    4000a303:	00 01                	add    %al,(%rcx)
    4000a305:	00 00                	add    %al,(%rax)
    4000a307:	00 75 6f             	add    %dh,0x6f(%rbp)
    4000a30a:	70 73                	jo     4000a37f <CounterDefinitions+0x229f>
    4000a30c:	20 52 41             	and    %dl,0x41(%rdx)
    4000a30f:	54                   	push   %rsp
    4000a310:	00 00                	add    %al,(%rax)
    4000a312:	00 00                	add    %al,(%rax)
    4000a314:	6f                   	outsl  %ds:(%rsi),(%dx)
    4000a315:	00 00                	add    %al,(%rax)
    4000a317:	00 00                	add    %al,(%rax)
    4000a319:	02 00                	add    (%rax),%al
    4000a31b:	00 00                	add    %al,(%rax)
    4000a31d:	04 00                	add    $0x0,%al
    4000a31f:	00 00                	add    %al,(%rax)
    4000a321:	00 00                	add    %al,(%rax)
    4000a323:	00 07                	add    %al,(%rdi)
    4000a325:	00 00                	add    %al,(%rax)
    4000a327:	00 00                	add    %al,(%rax)
    4000a329:	00 00                	add    %al,(%rax)
    4000a32b:	00 a2 00 00 00 08    	add    %ah,0x8000000(%rdx)
    4000a331:	00 00                	add    %al,(%rax)
    4000a333:	00 72 65             	add    %dh,0x65(%rdx)
    4000a336:	73 2e                	jae    4000a366 <CounterDefinitions+0x2286>
    4000a338:	73 74                	jae    4000a3ae <CounterDefinitions+0x22ce>
    4000a33a:	6c                   	insb   (%dx),%es:(%rdi)
    4000a33b:	2e 00 00             	cs add %al,(%rax)
    4000a33e:	00 00                	add    %al,(%rax)
    4000a340:	83 00 00             	addl   $0x0,(%rax)
    4000a343:	00 00                	add    %al,(%rax)
    4000a345:	02 00                	add    (%rax),%al
    4000a347:	00 00                	add    %al,(%rax)
    4000a349:	04 00                	add    $0x0,%al
    4000a34b:	00 00                	add    %al,(%rax)
    4000a34d:	00 00                	add    %al,(%rax)
    4000a34f:	00 07                	add    %al,(%rdi)
    4000a351:	00 00                	add    %al,(%rax)
    4000a353:	00 00                	add    %al,(%rax)
    4000a355:	00 00                	add    %al,(%rax)
    4000a357:	00 c1                	add    %al,%cl
    4000a359:	00 00                	add    %al,(%rax)
    4000a35b:	00 07                	add    %al,(%rdi)
    4000a35d:	00 00                	add    %al,(%rax)
    4000a35f:	00 75 63             	add    %dh,0x63(%rbp)
    4000a362:	20 61 73             	and    %ah,0x73(%rcx)
    4000a365:	69 73 74 00 00 00 00 	imul   $0x0,0x74(%rbx),%esi
    4000a36c:	96                   	xchg   %eax,%esi
    4000a36d:	00 00                	add    %al,(%rax)
    4000a36f:	00 00                	add    %al,(%rax)
    4000a371:	02 00                	add    (%rax),%al
    4000a373:	00 00                	add    %al,(%rax)
    4000a375:	04 00                	add    $0x0,%al
    4000a377:	00 00                	add    %al,(%rax)
    4000a379:	00 00                	add    %al,(%rax)
    4000a37b:	00 07                	add    %al,(%rdi)
    4000a37d:	00 00                	add    %al,(%rax)
    4000a37f:	00 00                	add    %al,(%rax)
    4000a381:	00 00                	add    %al,(%rax)
    4000a383:	00 a1 00 00 00 01    	add    %ah,0x1000000(%rcx)
    4000a389:	00 00                	add    %al,(%rax)
    4000a38b:	00 75 6f             	add    %dh,0x6f(%rbp)
    4000a38e:	70 20                	jo     4000a3b0 <CounterDefinitions+0x22d0>
    4000a390:	70 30                	jo     4000a3c2 <CounterDefinitions+0x22e2>
    4000a392:	00 00                	add    %al,(%rax)
    4000a394:	00 00                	add    %al,(%rax)
    4000a396:	00 00                	add    %al,(%rax)
    4000a398:	97                   	xchg   %eax,%edi
    4000a399:	00 00                	add    %al,(%rax)
    4000a39b:	00 00                	add    %al,(%rax)
    4000a39d:	02 00                	add    (%rax),%al
    4000a39f:	00 00                	add    %al,(%rax)
    4000a3a1:	04 00                	add    $0x0,%al
    4000a3a3:	00 00                	add    %al,(%rax)
    4000a3a5:	00 00                	add    %al,(%rax)
    4000a3a7:	00 07                	add    %al,(%rdi)
    4000a3a9:	00 00                	add    %al,(%rax)
    4000a3ab:	00 00                	add    %al,(%rax)
    4000a3ad:	00 00                	add    %al,(%rax)
    4000a3af:	00 a1 00 00 00 02    	add    %ah,0x2000000(%rcx)
    4000a3b5:	00 00                	add    %al,(%rax)
    4000a3b7:	00 75 6f             	add    %dh,0x6f(%rbp)
    4000a3ba:	70 20                	jo     4000a3dc <CounterDefinitions+0x22fc>
    4000a3bc:	70 31                	jo     4000a3ef <CounterDefinitions+0x230f>
    4000a3be:	00 00                	add    %al,(%rax)
    4000a3c0:	00 00                	add    %al,(%rax)
    4000a3c2:	00 00                	add    %al,(%rax)
    4000a3c4:	98                   	cwtl   
    4000a3c5:	00 00                	add    %al,(%rax)
    4000a3c7:	00 00                	add    %al,(%rax)
    4000a3c9:	02 00                	add    (%rax),%al
    4000a3cb:	00 00                	add    %al,(%rax)
    4000a3cd:	04 00                	add    $0x0,%al
    4000a3cf:	00 00                	add    %al,(%rax)
    4000a3d1:	00 00                	add    %al,(%rax)
    4000a3d3:	00 07                	add    %al,(%rdi)
    4000a3d5:	00 00                	add    %al,(%rax)
    4000a3d7:	00 00                	add    %al,(%rax)
    4000a3d9:	00 00                	add    %al,(%rax)
    4000a3db:	00 a1 00 00 00 04    	add    %ah,0x4000000(%rcx)
    4000a3e1:	00 00                	add    %al,(%rax)
    4000a3e3:	00 75 6f             	add    %dh,0x6f(%rbp)
    4000a3e6:	70 20                	jo     4000a408 <CounterDefinitions+0x2328>
    4000a3e8:	70 32                	jo     4000a41c <CounterDefinitions+0x233c>
    4000a3ea:	33 00                	xor    (%rax),%eax
    4000a3ec:	00 00                	add    %al,(%rax)
    4000a3ee:	00 00                	add    %al,(%rax)
    4000a3f0:	9a                   	(bad)  
    4000a3f1:	00 00                	add    %al,(%rax)
    4000a3f3:	00 00                	add    %al,(%rax)
    4000a3f5:	02 00                	add    (%rax),%al
    4000a3f7:	00 00                	add    %al,(%rax)
    4000a3f9:	04 00                	add    $0x0,%al
    4000a3fb:	00 00                	add    %al,(%rax)
    4000a3fd:	00 00                	add    %al,(%rax)
    4000a3ff:	00 07                	add    %al,(%rdi)
    4000a401:	00 00                	add    %al,(%rax)
    4000a403:	00 00                	add    %al,(%rax)
    4000a405:	00 00                	add    %al,(%rax)
    4000a407:	00 a1 00 00 00 10    	add    %ah,0x10000000(%rcx)
    4000a40d:	00 00                	add    %al,(%rax)
    4000a40f:	00 75 6f             	add    %dh,0x6f(%rbp)
    4000a412:	70 20                	jo     4000a434 <CounterDefinitions+0x2354>
    4000a414:	70 34                	jo     4000a44a <CounterDefinitions+0x236a>
    4000a416:	39 00                	cmp    %eax,(%rax)
    4000a418:	00 00                	add    %al,(%rax)
    4000a41a:	00 00                	add    %al,(%rax)
    4000a41c:	9b                   	fwait
    4000a41d:	00 00                	add    %al,(%rax)
    4000a41f:	00 00                	add    %al,(%rax)
    4000a421:	02 00                	add    (%rax),%al
    4000a423:	00 00                	add    %al,(%rax)
    4000a425:	04 00                	add    $0x0,%al
    4000a427:	00 00                	add    %al,(%rax)
    4000a429:	00 00                	add    %al,(%rax)
    4000a42b:	00 07                	add    %al,(%rdi)
    4000a42d:	00 00                	add    %al,(%rax)
    4000a42f:	00 00                	add    %al,(%rax)
    4000a431:	00 00                	add    %al,(%rax)
    4000a433:	00 a1 00 00 00 20    	add    %ah,0x20000000(%rcx)
    4000a439:	00 00                	add    %al,(%rax)
    4000a43b:	00 75 6f             	add    %dh,0x6f(%rbp)
    4000a43e:	70 20                	jo     4000a460 <CounterDefinitions+0x2380>
    4000a440:	70 35                	jo     4000a477 <CounterDefinitions+0x2397>
    4000a442:	00 00                	add    %al,(%rax)
    4000a444:	00 00                	add    %al,(%rax)
    4000a446:	00 00                	add    %al,(%rax)
    4000a448:	9c                   	pushf  
    4000a449:	00 00                	add    %al,(%rax)
    4000a44b:	00 00                	add    %al,(%rax)
    4000a44d:	02 00                	add    (%rax),%al
    4000a44f:	00 00                	add    %al,(%rax)
    4000a451:	04 00                	add    $0x0,%al
    4000a453:	00 00                	add    %al,(%rax)
    4000a455:	00 00                	add    %al,(%rax)
    4000a457:	00 07                	add    %al,(%rdi)
    4000a459:	00 00                	add    %al,(%rax)
    4000a45b:	00 00                	add    %al,(%rax)
    4000a45d:	00 00                	add    %al,(%rax)
    4000a45f:	00 a1 00 00 00 40    	add    %ah,0x40000000(%rcx)
    4000a465:	00 00                	add    %al,(%rax)
    4000a467:	00 75 6f             	add    %dh,0x6f(%rbp)
    4000a46a:	70 20                	jo     4000a48c <CounterDefinitions+0x23ac>
    4000a46c:	70 36                	jo     4000a4a4 <CounterDefinitions+0x23c4>
    4000a46e:	00 00                	add    %al,(%rax)
    4000a470:	00 00                	add    %al,(%rax)
    4000a472:	00 00                	add    %al,(%rax)
    4000a474:	9d                   	popf   
    4000a475:	00 00                	add    %al,(%rax)
    4000a477:	00 00                	add    %al,(%rax)
    4000a479:	02 00                	add    (%rax),%al
    4000a47b:	00 00                	add    %al,(%rax)
    4000a47d:	04 00                	add    $0x0,%al
    4000a47f:	00 00                	add    %al,(%rax)
    4000a481:	00 00                	add    %al,(%rax)
    4000a483:	00 07                	add    %al,(%rdi)
    4000a485:	00 00                	add    %al,(%rax)
    4000a487:	00 00                	add    %al,(%rax)
    4000a489:	00 00                	add    %al,(%rax)
    4000a48b:	00 a1 00 00 00 80    	add    %ah,-0x80000000(%rcx)
    4000a491:	00 00                	add    %al,(%rax)
    4000a493:	00 75 6f             	add    %dh,0x6f(%rbp)
    4000a496:	70 20                	jo     4000a4b8 <CounterDefinitions+0x23d8>
    4000a498:	70 37                	jo     4000a4d1 <CounterDefinitions+0x23f1>
    4000a49a:	38 00                	cmp    %al,(%rax)
    4000a49c:	00 00                	add    %al,(%rax)
    4000a49e:	00 00                	add    %al,(%rax)
    4000a4a0:	c9                   	leave  
    4000a4a1:	00 00                	add    %al,(%rax)
    4000a4a3:	00 00                	add    %al,(%rax)
    4000a4a5:	02 00                	add    (%rax),%al
    4000a4a7:	00 00                	add    %al,(%rax)
    4000a4a9:	04 00                	add    $0x0,%al
    4000a4ab:	00 00                	add    %al,(%rax)
    4000a4ad:	00 00                	add    %al,(%rax)
    4000a4af:	00 07                	add    %al,(%rdi)
    4000a4b1:	00 00                	add    %al,(%rax)
    4000a4b3:	00 00                	add    %al,(%rax)
    4000a4b5:	00 00                	add    %al,(%rax)
    4000a4b7:	00 c4                	add    %al,%ah
    4000a4b9:	00 00                	add    %al,(%rax)
    4000a4bb:	00 20                	add    %ah,(%rax)
    4000a4bd:	00 00                	add    %al,(%rax)
    4000a4bf:	00 42 72             	add    %al,0x72(%rdx)
    4000a4c2:	54                   	push   %rsp
    4000a4c3:	61                   	(bad)  
    4000a4c4:	6b 65 6e 00          	imul   $0x0,0x6e(%rbp),%esp
    4000a4c8:	00 00                	add    %al,(%rax)
    4000a4ca:	00 00                	add    %al,(%rax)
    4000a4cc:	cf                   	iret   
    4000a4cd:	00 00                	add    %al,(%rax)
    4000a4cf:	00 00                	add    %al,(%rax)
    4000a4d1:	02 00                	add    (%rax),%al
    4000a4d3:	00 00                	add    %al,(%rax)
    4000a4d5:	04 00                	add    $0x0,%al
    4000a4d7:	00 00                	add    %al,(%rax)
    4000a4d9:	00 00                	add    %al,(%rax)
    4000a4db:	00 07                	add    %al,(%rdi)
    4000a4dd:	00 00                	add    %al,(%rax)
    4000a4df:	00 00                	add    %al,(%rax)
    4000a4e1:	00 00                	add    %al,(%rax)
    4000a4e3:	00 c5                	add    %al,%ch
    4000a4e5:	00 00                	add    %al,(%rax)
    4000a4e7:	00 00                	add    %al,(%rax)
    4000a4e9:	00 00                	add    %al,(%rax)
    4000a4eb:	00 42 72             	add    %al,0x72(%rdx)
    4000a4ee:	4d 69 73 70 72 65 64 	imul   $0x646572,0x70(%r11),%r14
    4000a4f5:	00 
    4000a4f6:	00 00                	add    %al,(%rax)
    4000a4f8:	36 01 00             	ss add %eax,(%rax)
    4000a4fb:	00 00                	add    %al,(%rax)
    4000a4fd:	02 00                	add    (%rax),%al
    4000a4ff:	00 00                	add    %al,(%rax)
    4000a501:	04 00                	add    $0x0,%al
    4000a503:	00 00                	add    %al,(%rax)
    4000a505:	00 00                	add    %al,(%rax)
    4000a507:	00 07                	add    %al,(%rdi)
    4000a509:	00 00                	add    %al,(%rax)
    4000a50b:	00 00                	add    %al,(%rax)
    4000a50d:	00 00                	add    %al,(%rax)
    4000a50f:	00 80 00 00 00 04    	add    %al,0x4000000(%rax)
    4000a515:	00 00                	add    %al,(%rax)
    4000a517:	00 43 6f             	add    %al,0x6f(%rbx)
    4000a51a:	64 65 4d 69 73 73 00 	fs imul $0x0,%gs:0x73(%r11),%r14
    4000a521:	00 00 00 
    4000a524:	37                   	(bad)  
    4000a525:	01 00                	add    %eax,(%rax)
    4000a527:	00 00                	add    %al,(%rax)
    4000a529:	02 00                	add    (%rax),%al
    4000a52b:	00 00                	add    %al,(%rax)
    4000a52d:	04 00                	add    $0x0,%al
    4000a52f:	00 00                	add    %al,(%rax)
    4000a531:	00 00                	add    %al,(%rax)
    4000a533:	00 07                	add    %al,(%rdi)
    4000a535:	00 00                	add    %al,(%rax)
    4000a537:	00 00                	add    %al,(%rax)
    4000a539:	00 00                	add    %al,(%rax)
    4000a53b:	00 24 00             	add    %ah,(%rax,%rax,1)
    4000a53e:	00 00                	add    %al,(%rax)
    4000a540:	e1 00                	loope  4000a542 <CounterDefinitions+0x2462>
    4000a542:	00 00                	add    %al,(%rax)
    4000a544:	4c 31 44 20 4d       	xor    %r8,0x4d(%rax,%riz,1)
    4000a549:	69 73 73 00 00 00 00 	imul   $0x0,0x73(%rbx),%esi
    4000a550:	40 01 00             	rex add %eax,(%rax)
    4000a553:	00 00                	add    %al,(%rax)
    4000a555:	02 00                	add    (%rax),%al
    4000a557:	00 00                	add    %al,(%rax)
    4000a559:	04 00                	add    $0x0,%al
    4000a55b:	00 00                	add    %al,(%rax)
    4000a55d:	00 00                	add    %al,(%rax)
    4000a55f:	00 07                	add    %al,(%rdi)
    4000a561:	00 00                	add    %al,(%rax)
    4000a563:	00 00                	add    %al,(%rax)
    4000a565:	00 00                	add    %al,(%rax)
    4000a567:	00 24 00             	add    %ah,(%rax,%rax,1)
    4000a56a:	00 00                	add    %al,(%rax)
    4000a56c:	21 00                	and    %eax,(%rax)
    4000a56e:	00 00                	add    %al,(%rax)
    4000a570:	4c 32 20             	rex.WR xor (%rax),%r12b
    4000a573:	4d 69 73 73 00 00 00 	imul   $0x0,0x73(%r11),%r14
    4000a57a:	00 
    4000a57b:	00 01                	add    %al,(%rcx)
    4000a57d:	00 00                	add    %al,(%rax)
    4000a57f:	00 00                	add    %al,(%rax)
    4000a581:	02 00                	add    (%rax),%al
    4000a583:	00 00                	add    %al,(%rax)
    4000a585:	08 00                	or     %al,(%rax)
    4000a587:	00 01                	add    %al,(%rcx)
    4000a589:	00 00                	add    %al,(%rax)
    4000a58b:	40 00 00             	rex add %al,(%rax)
	...
    4000a59a:	00 00                	add    %al,(%rax)
    4000a59c:	43 6f                	rex.XB outsl %ds:(%rsi),(%dx)
    4000a59e:	72 65                	jb     4000a605 <CounterDefinitions+0x2525>
    4000a5a0:	20 63 79             	and    %ah,0x79(%rbx)
    4000a5a3:	63 00                	movsxd (%rax),%eax
    4000a5a5:	00 00                	add    %al,(%rax)
    4000a5a7:	00 02                	add    %al,(%rdx)
    4000a5a9:	00 00                	add    %al,(%rax)
    4000a5ab:	00 00                	add    %al,(%rax)
    4000a5ad:	02 00                	add    (%rax),%al
    4000a5af:	00 00                	add    %al,(%rax)
    4000a5b1:	08 00                	or     %al,(%rax)
    4000a5b3:	00 02                	add    %al,(%rdx)
    4000a5b5:	00 00                	add    %al,(%rax)
    4000a5b7:	40 00 00             	rex add %al,(%rax)
	...
    4000a5c6:	00 00                	add    %al,(%rax)
    4000a5c8:	52                   	push   %rdx
    4000a5c9:	65 66 20 63 79       	data16 and %ah,%gs:0x79(%rbx)
    4000a5ce:	63 00                	movsxd (%rax),%eax
    4000a5d0:	00 00                	add    %al,(%rax)
    4000a5d2:	00 00                	add    %al,(%rax)
    4000a5d4:	09 00                	or     %eax,(%rax)
    4000a5d6:	00 00                	add    %al,(%rax)
    4000a5d8:	00 02                	add    %al,(%rdx)
    4000a5da:	00 00                	add    %al,(%rax)
    4000a5dc:	00 08                	add    %cl,(%rax)
    4000a5de:	00 00                	add    %al,(%rax)
    4000a5e0:	00 00                	add    %al,(%rax)
    4000a5e2:	00 40 00             	add    %al,0x0(%rax)
	...
    4000a5f1:	00 00                	add    %al,(%rax)
    4000a5f3:	00 49 6e             	add    %cl,0x6e(%rcx)
    4000a5f6:	73 74                	jae    4000a66c <CounterDefinitions+0x258c>
    4000a5f8:	72 75                	jb     4000a66f <CounterDefinitions+0x258f>
    4000a5fa:	63 74 00 00          	movsxd 0x0(%rax,%rax,1),%esi
    4000a5fe:	00 00                	add    %al,(%rax)
    4000a600:	0a 00                	or     (%rax),%al
    4000a602:	00 00                	add    %al,(%rax)
    4000a604:	00 02                	add    %al,(%rdx)
    4000a606:	00 00                	add    %al,(%rax)
    4000a608:	00 08                	add    %cl,(%rax)
    4000a60a:	00 00                	add    %al,(%rax)
    4000a60c:	00 00                	add    %al,(%rax)
    4000a60e:	00 00                	add    %al,(%rax)
    4000a610:	07                   	(bad)  
    4000a611:	00 00                	add    %al,(%rax)
    4000a613:	00 00                	add    %al,(%rax)
    4000a615:	00 00                	add    %al,(%rax)
    4000a617:	00 c0                	add    %al,%al
    4000a619:	00 00                	add    %al,(%rax)
    4000a61b:	00 00                	add    %al,(%rax)
    4000a61d:	00 00                	add    %al,(%rax)
    4000a61f:	00 49 6e             	add    %cl,0x6e(%rcx)
    4000a622:	73 74                	jae    4000a698 <CounterDefinitions+0x25b8>
    4000a624:	72 75                	jb     4000a69b <CounterDefinitions+0x25bb>
    4000a626:	63 74 00 00          	movsxd 0x0(%rax,%rax,1),%esi
    4000a62a:	00 00                	add    %al,(%rax)
    4000a62c:	16                   	(bad)  
    4000a62d:	00 00                	add    %al,(%rax)
    4000a62f:	00 00                	add    %al,(%rax)
    4000a631:	02 00                	add    (%rax),%al
    4000a633:	00 00                	add    %al,(%rax)
    4000a635:	08 00                	or     %al,(%rax)
    4000a637:	00 00                	add    %al,(%rax)
    4000a639:	00 00                	add    %al,(%rax)
    4000a63b:	00 07                	add    %al,(%rdi)
    4000a63d:	00 00                	add    %al,(%rax)
    4000a63f:	00 00                	add    %al,(%rax)
    4000a641:	00 00                	add    %al,(%rax)
    4000a643:	00 87 00 00 00 01    	add    %al,0x1000000(%rdi)
    4000a649:	00 00                	add    %al,(%rax)
    4000a64b:	00 49 4c             	add    %cl,0x4c(%rcx)
    4000a64e:	65 6e                	outsb  %gs:(%rsi),(%dx)
    4000a650:	53                   	push   %rbx
    4000a651:	74 61                	je     4000a6b4 <CounterDefinitions+0x25d4>
    4000a653:	6c                   	insb   (%dx),%es:(%rdi)
    4000a654:	00 00                	add    %al,(%rax)
    4000a656:	00 00                	add    %al,(%rax)
    4000a658:	18 00                	sbb    %al,(%rax)
    4000a65a:	00 00                	add    %al,(%rax)
    4000a65c:	00 02                	add    %al,(%rdx)
    4000a65e:	00 00                	add    %al,(%rax)
    4000a660:	00 08                	add    %cl,(%rax)
    4000a662:	00 00                	add    %al,(%rax)
    4000a664:	00 00                	add    %al,(%rax)
    4000a666:	00 00                	add    %al,(%rax)
    4000a668:	07                   	(bad)  
    4000a669:	00 00                	add    %al,(%rax)
    4000a66b:	00 00                	add    %al,(%rax)
    4000a66d:	00 00                	add    %al,(%rax)
    4000a66f:	00 a8 00 00 00 01    	add    %ch,0x1000000(%rax)
    4000a675:	00 00                	add    %al,(%rax)
    4000a677:	00 4c 6f 6f          	add    %cl,0x6f(%rdi,%rbp,2)
    4000a67b:	70 20                	jo     4000a69d <CounterDefinitions+0x25bd>
    4000a67d:	75 6f                	jne    4000a6ee <CounterDefinitions+0x260e>
    4000a67f:	70 73                	jo     4000a6f4 <CounterDefinitions+0x2614>
    4000a681:	00 00                	add    %al,(%rax)
    4000a683:	00 19                	add    %bl,(%rcx)
    4000a685:	00 00                	add    %al,(%rax)
    4000a687:	00 00                	add    %al,(%rax)
    4000a689:	02 00                	add    (%rax),%al
    4000a68b:	00 00                	add    %al,(%rax)
    4000a68d:	08 00                	or     %al,(%rax)
    4000a68f:	00 00                	add    %al,(%rax)
    4000a691:	00 00                	add    %al,(%rax)
    4000a693:	00 07                	add    %al,(%rdi)
    4000a695:	00 00                	add    %al,(%rax)
    4000a697:	00 00                	add    %al,(%rax)
    4000a699:	00 00                	add    %al,(%rax)
    4000a69b:	00 79 00             	add    %bh,0x0(%rcx)
    4000a69e:	00 00                	add    %al,(%rax)
    4000a6a0:	04 00                	add    $0x0,%al
    4000a6a2:	00 00                	add    %al,(%rax)
    4000a6a4:	44                   	rex.R
    4000a6a5:	65 63 20             	movsxd %gs:(%rax),%esp
    4000a6a8:	75 6f                	jne    4000a719 <CounterDefinitions+0x2639>
    4000a6aa:	70 73                	jo     4000a71f <CounterDefinitions+0x263f>
    4000a6ac:	00 00                	add    %al,(%rax)
    4000a6ae:	00 00                	add    %al,(%rax)
    4000a6b0:	1b 00                	sbb    (%rax),%eax
    4000a6b2:	00 00                	add    %al,(%rax)
    4000a6b4:	00 02                	add    %al,(%rdx)
    4000a6b6:	00 00                	add    %al,(%rax)
    4000a6b8:	00 08                	add    %cl,(%rax)
    4000a6ba:	00 00                	add    %al,(%rax)
    4000a6bc:	00 00                	add    %al,(%rax)
    4000a6be:	00 00                	add    %al,(%rax)
    4000a6c0:	07                   	(bad)  
    4000a6c1:	00 00                	add    %al,(%rax)
    4000a6c3:	00 00                	add    %al,(%rax)
    4000a6c5:	00 00                	add    %al,(%rax)
    4000a6c7:	00 9c 00 00 00 01 00 	add    %bl,0x10000(%rax,%rax,1)
    4000a6ce:	00 00                	add    %al,(%rax)
    4000a6d0:	49                   	rex.WB
    4000a6d1:	44 51                	rex.R push %rcx
    4000a6d3:	20 6e 6f             	and    %ch,0x6f(%rsi)
    4000a6d6:	74 00                	je     4000a6d8 <CounterDefinitions+0x25f8>
    4000a6d8:	00 00                	add    %al,(%rax)
    4000a6da:	00 00                	add    %al,(%rax)
    4000a6dc:	1a 00                	sbb    (%rax),%al
    4000a6de:	00 00                	add    %al,(%rax)
    4000a6e0:	00 02                	add    %al,(%rdx)
    4000a6e2:	00 00                	add    %al,(%rax)
    4000a6e4:	00 08                	add    %cl,(%rax)
    4000a6e6:	00 00                	add    %al,(%rax)
    4000a6e8:	00 00                	add    %al,(%rax)
    4000a6ea:	00 00                	add    %al,(%rax)
    4000a6ec:	07                   	(bad)  
    4000a6ed:	00 00                	add    %al,(%rax)
    4000a6ef:	00 00                	add    %al,(%rax)
    4000a6f1:	00 00                	add    %al,(%rax)
    4000a6f3:	00 79 00             	add    %bh,0x0(%rcx)
    4000a6f6:	00 00                	add    %al,(%rax)
    4000a6f8:	08 00                	or     %al,(%rax)
    4000a6fa:	00 00                	add    %al,(%rax)
    4000a6fc:	43 61                	rex.XB (bad) 
    4000a6fe:	63 68 20             	movsxd 0x20(%rax),%ebp
    4000a701:	75 6f                	jne    4000a772 <CounterDefinitions+0x2692>
    4000a703:	70 73                	jo     4000a778 <CounterDefinitions+0x2698>
    4000a705:	00 00                	add    %al,(%rax)
    4000a707:	00 1c 00             	add    %bl,(%rax,%rax,1)
    4000a70a:	00 00                	add    %al,(%rax)
    4000a70c:	00 02                	add    %al,(%rdx)
    4000a70e:	00 00                	add    %al,(%rax)
    4000a710:	00 08                	add    %cl,(%rax)
    4000a712:	00 00                	add    %al,(%rax)
    4000a714:	00 00                	add    %al,(%rax)
    4000a716:	00 00                	add    %al,(%rax)
    4000a718:	07                   	(bad)  
    4000a719:	00 00                	add    %al,(%rax)
    4000a71b:	00 00                	add    %al,(%rax)
    4000a71d:	00 00                	add    %al,(%rax)
    4000a71f:	00 61 00             	add    %ah,0x0(%rcx)
    4000a722:	00 00                	add    %al,(%rax)
    4000a724:	02 00                	add    (%rax),%al
    4000a726:	00 00                	add    %al,(%rax)
    4000a728:	44 53                	rex.R push %rbx
    4000a72a:	42 32 4d 49          	rex.X xor 0x49(%rbp),%cl
    4000a72e:	54                   	push   %rsp
    4000a72f:	45 00 00             	add    %r8b,(%r8)
    4000a732:	00 00                	add    %al,(%rax)
    4000a734:	64 00 00             	add    %al,%fs:(%rax)
    4000a737:	00 00                	add    %al,(%rax)
    4000a739:	02 00                	add    (%rax),%al
    4000a73b:	00 00                	add    %al,(%rax)
    4000a73d:	08 00                	or     %al,(%rax)
    4000a73f:	00 00                	add    %al,(%rax)
    4000a741:	00 00                	add    %al,(%rax)
    4000a743:	00 07                	add    %al,(%rdi)
    4000a745:	00 00                	add    %al,(%rax)
    4000a747:	00 00                	add    %al,(%rax)
    4000a749:	00 00                	add    %al,(%rax)
    4000a74b:	00 c2                	add    %al,%dl
    4000a74d:	00 00                	add    %al,(%rax)
    4000a74f:	00 01                	add    %al,(%rcx)
    4000a751:	00 00                	add    %al,(%rax)
    4000a753:	00 55 6f             	add    %dl,0x6f(%rbp)
    4000a756:	70 73                	jo     4000a7cb <CounterDefinitions+0x26eb>
	...
    4000a760:	65 00 00             	add    %al,%gs:(%rax)
    4000a763:	00 00                	add    %al,(%rax)
    4000a765:	02 00                	add    (%rax),%al
    4000a767:	00 00                	add    %al,(%rax)
    4000a769:	08 00                	or     %al,(%rax)
    4000a76b:	00 00                	add    %al,(%rax)
    4000a76d:	00 00                	add    %al,(%rax)
    4000a76f:	00 07                	add    %al,(%rdi)
    4000a771:	00 00                	add    %al,(%rax)
    4000a773:	00 00                	add    %al,(%rax)
    4000a775:	00 00                	add    %al,(%rax)
    4000a777:	00 c2                	add    %al,%dl
    4000a779:	00 00                	add    %al,(%rax)
    4000a77b:	00 00                	add    %al,(%rax)
    4000a77d:	00 00                	add    %al,(%rax)
    4000a77f:	00 55 6f             	add    %dl,0x6f(%rbp)
    4000a782:	70 73                	jo     4000a7f7 <CounterDefinitions+0x2717>
	...
    4000a78c:	6f                   	outsl  %ds:(%rsi),(%dx)
    4000a78d:	00 00                	add    %al,(%rax)
    4000a78f:	00 00                	add    %al,(%rax)
    4000a791:	02 00                	add    (%rax),%al
    4000a793:	00 00                	add    %al,(%rax)
    4000a795:	08 00                	or     %al,(%rax)
    4000a797:	00 00                	add    %al,(%rax)
    4000a799:	00 00                	add    %al,(%rax)
    4000a79b:	00 07                	add    %al,(%rdi)
    4000a79d:	00 00                	add    %al,(%rax)
    4000a79f:	00 00                	add    %al,(%rax)
    4000a7a1:	00 00                	add    %al,(%rax)
    4000a7a3:	00 a2 00 00 00 02    	add    %ah,0x2000000(%rdx)
    4000a7a9:	00 00                	add    %al,(%rax)
    4000a7ab:	00 72 65             	add    %dh,0x65(%rdx)
    4000a7ae:	73 2e                	jae    4000a7de <CounterDefinitions+0x26fe>
    4000a7b0:	73 74                	jae    4000a826 <CounterDefinitions+0x2746>
    4000a7b2:	6c                   	insb   (%dx),%es:(%rdi)
    4000a7b3:	2e 00 00             	cs add %al,(%rax)
    4000a7b6:	00 00                	add    %al,(%rax)
    4000a7b8:	70 00                	jo     4000a7ba <CounterDefinitions+0x26da>
    4000a7ba:	00 00                	add    %al,(%rax)
    4000a7bc:	00 02                	add    %al,(%rdx)
    4000a7be:	00 00                	add    %al,(%rax)
    4000a7c0:	00 08                	add    %cl,(%rax)
    4000a7c2:	00 00                	add    %al,(%rax)
    4000a7c4:	00 00                	add    %al,(%rax)
    4000a7c6:	00 00                	add    %al,(%rax)
    4000a7c8:	07                   	(bad)  
    4000a7c9:	00 00                	add    %al,(%rax)
    4000a7cb:	00 00                	add    %al,(%rax)
    4000a7cd:	00 00                	add    %al,(%rax)
    4000a7cf:	00 ad 00 00 00 80    	add    %ch,-0x80000000(%rbp)
    4000a7d5:	00 00                	add    %al,(%rax)
    4000a7d7:	00 53 70             	add    %dl,0x70(%rbx)
    4000a7da:	65 63 2e             	movsxd %gs:(%rsi),%ebp
    4000a7dd:	43 6c                	rex.XB insb (%dx),%es:(%rdi)
    4000a7df:	00 00                	add    %al,(%rax)
    4000a7e1:	00 00                	add    %al,(%rax)
    4000a7e3:	00 71 00             	add    %dh,0x0(%rcx)
    4000a7e6:	00 00                	add    %al,(%rax)
    4000a7e8:	00 02                	add    %al,(%rdx)
    4000a7ea:	00 00                	add    %al,(%rax)
    4000a7ec:	00 08                	add    %cl,(%rax)
    4000a7ee:	00 00                	add    %al,(%rax)
    4000a7f0:	00 00                	add    %al,(%rax)
    4000a7f2:	00 00                	add    %al,(%rax)
    4000a7f4:	07                   	(bad)  
    4000a7f5:	00 00                	add    %al,(%rax)
    4000a7f7:	00 00                	add    %al,(%rax)
    4000a7f9:	00 00                	add    %al,(%rax)
    4000a7fb:	00 a3 00 00 00 04    	add    %ah,0x4000000(%rbx)
    4000a801:	00 00                	add    %al,(%rax)
    4000a803:	00 65 78             	add    %ah,0x78(%rbp)
    4000a806:	65 63 2e             	movsxd %gs:(%rsi),%ebp
    4000a809:	73 74                	jae    4000a87f <CounterDefinitions+0x279f>
    4000a80b:	6c                   	insb   (%dx),%es:(%rdi)
    4000a80c:	2e 00 00             	cs add %al,(%rax)
    4000a80f:	00 83 00 00 00 00    	add    %al,0x0(%rbx)
    4000a815:	02 00                	add    (%rax),%al
    4000a817:	00 00                	add    %al,(%rax)
    4000a819:	08 00                	or     %al,(%rax)
    4000a81b:	00 00                	add    %al,(%rax)
    4000a81d:	00 00                	add    %al,(%rax)
    4000a81f:	00 07                	add    %al,(%rdi)
    4000a821:	00 00                	add    %al,(%rax)
    4000a823:	00 00                	add    %al,(%rax)
    4000a825:	00 00                	add    %al,(%rax)
    4000a827:	00 c1                	add    %al,%cl
    4000a829:	00 00                	add    %al,(%rax)
    4000a82b:	00 02                	add    %al,(%rdx)
    4000a82d:	00 00                	add    %al,(%rax)
    4000a82f:	00 75 63             	add    %dh,0x63(%rbp)
    4000a832:	20 61 73             	and    %ah,0x73(%rcx)
    4000a835:	69 73 74 00 00 00 00 	imul   $0x0,0x74(%rbx),%esi
    4000a83c:	96                   	xchg   %eax,%esi
    4000a83d:	00 00                	add    %al,(%rax)
    4000a83f:	00 00                	add    %al,(%rax)
    4000a841:	02 00                	add    (%rax),%al
    4000a843:	00 00                	add    %al,(%rax)
    4000a845:	08 00                	or     %al,(%rax)
    4000a847:	00 00                	add    %al,(%rax)
    4000a849:	00 00                	add    %al,(%rax)
    4000a84b:	00 07                	add    %al,(%rdi)
    4000a84d:	00 00                	add    %al,(%rax)
    4000a84f:	00 00                	add    %al,(%rax)
    4000a851:	00 00                	add    %al,(%rax)
    4000a853:	00 b2 00 00 00 01    	add    %dh,0x1000000(%rdx)
    4000a859:	00 00                	add    %al,(%rax)
    4000a85b:	00 75 6f             	add    %dh,0x6f(%rbp)
    4000a85e:	70 20                	jo     4000a880 <CounterDefinitions+0x27a0>
    4000a860:	70 30                	jo     4000a892 <CounterDefinitions+0x27b2>
    4000a862:	00 00                	add    %al,(%rax)
    4000a864:	00 00                	add    %al,(%rax)
    4000a866:	00 00                	add    %al,(%rax)
    4000a868:	97                   	xchg   %eax,%edi
    4000a869:	00 00                	add    %al,(%rax)
    4000a86b:	00 00                	add    %al,(%rax)
    4000a86d:	02 00                	add    (%rax),%al
    4000a86f:	00 00                	add    %al,(%rax)
    4000a871:	08 00                	or     %al,(%rax)
    4000a873:	00 00                	add    %al,(%rax)
    4000a875:	00 00                	add    %al,(%rax)
    4000a877:	00 07                	add    %al,(%rdi)
    4000a879:	00 00                	add    %al,(%rax)
    4000a87b:	00 00                	add    %al,(%rax)
    4000a87d:	00 00                	add    %al,(%rax)
    4000a87f:	00 b2 00 00 00 02    	add    %dh,0x2000000(%rdx)
    4000a885:	00 00                	add    %al,(%rax)
    4000a887:	00 75 6f             	add    %dh,0x6f(%rbp)
    4000a88a:	70 20                	jo     4000a8ac <CounterDefinitions+0x27cc>
    4000a88c:	70 31                	jo     4000a8bf <CounterDefinitions+0x27df>
    4000a88e:	00 00                	add    %al,(%rax)
    4000a890:	00 00                	add    %al,(%rax)
    4000a892:	00 00                	add    %al,(%rax)
    4000a894:	98                   	cwtl   
    4000a895:	00 00                	add    %al,(%rax)
    4000a897:	00 00                	add    %al,(%rax)
    4000a899:	02 00                	add    (%rax),%al
    4000a89b:	00 00                	add    %al,(%rax)
    4000a89d:	08 00                	or     %al,(%rax)
    4000a89f:	00 00                	add    %al,(%rax)
    4000a8a1:	00 00                	add    %al,(%rax)
    4000a8a3:	00 07                	add    %al,(%rdi)
    4000a8a5:	00 00                	add    %al,(%rax)
    4000a8a7:	00 00                	add    %al,(%rax)
    4000a8a9:	00 00                	add    %al,(%rax)
    4000a8ab:	00 b2 00 00 00 04    	add    %dh,0x4000000(%rdx)
    4000a8b1:	00 00                	add    %al,(%rax)
    4000a8b3:	00 75 6f             	add    %dh,0x6f(%rbp)
    4000a8b6:	70 20                	jo     4000a8d8 <CounterDefinitions+0x27f8>
    4000a8b8:	70 32                	jo     4000a8ec <CounterDefinitions+0x280c>
    4000a8ba:	33 41 00             	xor    0x0(%rcx),%eax
    4000a8bd:	00 00                	add    %al,(%rax)
    4000a8bf:	00 9a 00 00 00 00    	add    %bl,0x0(%rdx)
    4000a8c5:	02 00                	add    (%rax),%al
    4000a8c7:	00 00                	add    %al,(%rax)
    4000a8c9:	08 00                	or     %al,(%rax)
    4000a8cb:	00 00                	add    %al,(%rax)
    4000a8cd:	00 00                	add    %al,(%rax)
    4000a8cf:	00 07                	add    %al,(%rdi)
    4000a8d1:	00 00                	add    %al,(%rax)
    4000a8d3:	00 00                	add    %al,(%rax)
    4000a8d5:	00 00                	add    %al,(%rax)
    4000a8d7:	00 b2 00 00 00 10    	add    %dh,0x10000000(%rdx)
    4000a8dd:	00 00                	add    %al,(%rax)
    4000a8df:	00 75 6f             	add    %dh,0x6f(%rbp)
    4000a8e2:	70 20                	jo     4000a904 <CounterDefinitions+0x2824>
    4000a8e4:	70 34                	jo     4000a91a <CounterDefinitions+0x283a>
    4000a8e6:	39 00                	cmp    %eax,(%rax)
    4000a8e8:	00 00                	add    %al,(%rax)
    4000a8ea:	00 00                	add    %al,(%rax)
    4000a8ec:	9b                   	fwait
    4000a8ed:	00 00                	add    %al,(%rax)
    4000a8ef:	00 00                	add    %al,(%rax)
    4000a8f1:	02 00                	add    (%rax),%al
    4000a8f3:	00 00                	add    %al,(%rax)
    4000a8f5:	08 00                	or     %al,(%rax)
    4000a8f7:	00 00                	add    %al,(%rax)
    4000a8f9:	00 00                	add    %al,(%rax)
    4000a8fb:	00 07                	add    %al,(%rdi)
    4000a8fd:	00 00                	add    %al,(%rax)
    4000a8ff:	00 00                	add    %al,(%rax)
    4000a901:	00 00                	add    %al,(%rax)
    4000a903:	00 b2 00 00 00 20    	add    %dh,0x20000000(%rdx)
    4000a909:	00 00                	add    %al,(%rax)
    4000a90b:	00 75 6f             	add    %dh,0x6f(%rbp)
    4000a90e:	70 20                	jo     4000a930 <CounterDefinitions+0x2850>
    4000a910:	70 35                	jo     4000a947 <CounterDefinitions+0x2867>
    4000a912:	42 00 00             	rex.X add %al,(%rax)
    4000a915:	00 00                	add    %al,(%rax)
    4000a917:	00 9c 00 00 00 00 02 	add    %bl,0x2000000(%rax,%rax,1)
    4000a91e:	00 00                	add    %al,(%rax)
    4000a920:	00 08                	add    %cl,(%rax)
    4000a922:	00 00                	add    %al,(%rax)
    4000a924:	00 00                	add    %al,(%rax)
    4000a926:	00 00                	add    %al,(%rax)
    4000a928:	07                   	(bad)  
    4000a929:	00 00                	add    %al,(%rax)
    4000a92b:	00 00                	add    %al,(%rax)
    4000a92d:	00 00                	add    %al,(%rax)
    4000a92f:	00 b2 00 00 00 40    	add    %dh,0x40000000(%rdx)
    4000a935:	00 00                	add    %al,(%rax)
    4000a937:	00 75 6f             	add    %dh,0x6f(%rbp)
    4000a93a:	70 20                	jo     4000a95c <CounterDefinitions+0x287c>
    4000a93c:	70 36                	jo     4000a974 <CounterDefinitions+0x2894>
    4000a93e:	00 00                	add    %al,(%rax)
    4000a940:	00 00                	add    %al,(%rax)
    4000a942:	00 00                	add    %al,(%rax)
    4000a944:	9d                   	popf   
    4000a945:	00 00                	add    %al,(%rax)
    4000a947:	00 00                	add    %al,(%rax)
    4000a949:	02 00                	add    (%rax),%al
    4000a94b:	00 00                	add    %al,(%rax)
    4000a94d:	08 00                	or     %al,(%rax)
    4000a94f:	00 00                	add    %al,(%rax)
    4000a951:	00 00                	add    %al,(%rax)
    4000a953:	00 07                	add    %al,(%rdi)
    4000a955:	00 00                	add    %al,(%rax)
    4000a957:	00 00                	add    %al,(%rax)
    4000a959:	00 00                	add    %al,(%rax)
    4000a95b:	00 b2 00 00 00 80    	add    %dh,-0x80000000(%rdx)
    4000a961:	00 00                	add    %al,(%rax)
    4000a963:	00 75 6f             	add    %dh,0x6f(%rbp)
    4000a966:	70 20                	jo     4000a988 <CounterDefinitions+0x28a8>
    4000a968:	70 37                	jo     4000a9a1 <CounterDefinitions+0x28c1>
    4000a96a:	38 00                	cmp    %al,(%rax)
    4000a96c:	00 00                	add    %al,(%rax)
    4000a96e:	00 00                	add    %al,(%rax)
    4000a970:	c9                   	leave  
    4000a971:	00 00                	add    %al,(%rax)
    4000a973:	00 00                	add    %al,(%rax)
    4000a975:	02 00                	add    (%rax),%al
    4000a977:	00 00                	add    %al,(%rax)
    4000a979:	08 00                	or     %al,(%rax)
    4000a97b:	00 00                	add    %al,(%rax)
    4000a97d:	00 00                	add    %al,(%rax)
    4000a97f:	00 07                	add    %al,(%rdi)
    4000a981:	00 00                	add    %al,(%rax)
    4000a983:	00 00                	add    %al,(%rax)
    4000a985:	00 00                	add    %al,(%rax)
    4000a987:	00 c4                	add    %al,%ah
    4000a989:	00 00                	add    %al,(%rax)
    4000a98b:	00 01                	add    %al,(%rcx)
    4000a98d:	00 00                	add    %al,(%rax)
    4000a98f:	00 42 72             	add    %al,0x72(%rdx)
    4000a992:	54                   	push   %rsp
    4000a993:	61                   	(bad)  
    4000a994:	6b 65 6e 5f          	imul   $0x5f,0x6e(%rbp),%esp
    4000a998:	50                   	push   %rax
    4000a999:	00 00                	add    %al,(%rax)
    4000a99b:	00 ca                	add    %cl,%dl
    4000a99d:	00 00                	add    %al,(%rax)
    4000a99f:	00 00                	add    %al,(%rax)
    4000a9a1:	02 00                	add    (%rax),%al
    4000a9a3:	00 00                	add    %al,(%rax)
    4000a9a5:	08 00                	or     %al,(%rax)
    4000a9a7:	00 00                	add    %al,(%rax)
    4000a9a9:	00 00                	add    %al,(%rax)
    4000a9ab:	00 07                	add    %al,(%rdi)
    4000a9ad:	00 00                	add    %al,(%rax)
    4000a9af:	00 00                	add    %al,(%rax)
    4000a9b1:	00 00                	add    %al,(%rax)
    4000a9b3:	00 c4                	add    %al,%ah
    4000a9b5:	00 00                	add    %al,(%rax)
    4000a9b7:	00 10                	add    %dl,(%rax)
    4000a9b9:	00 00                	add    %al,(%rax)
    4000a9bb:	00 42 72             	add    %al,0x72(%rdx)
    4000a9be:	4e 54                	rex.WRX push %rsp
    4000a9c0:	61                   	(bad)  
    4000a9c1:	6b 65 6e 00          	imul   $0x0,0x6e(%rbp),%esp
    4000a9c5:	00 00                	add    %al,(%rax)
    4000a9c7:	00 cb                	add    %cl,%bl
    4000a9c9:	00 00                	add    %al,(%rax)
    4000a9cb:	00 00                	add    %al,(%rax)
    4000a9cd:	02 00                	add    (%rax),%al
    4000a9cf:	00 00                	add    %al,(%rax)
    4000a9d1:	08 00                	or     %al,(%rax)
    4000a9d3:	00 00                	add    %al,(%rax)
    4000a9d5:	00 00                	add    %al,(%rax)
    4000a9d7:	00 07                	add    %al,(%rdi)
    4000a9d9:	00 00                	add    %al,(%rax)
    4000a9db:	00 00                	add    %al,(%rax)
    4000a9dd:	00 00                	add    %al,(%rax)
    4000a9df:	00 c4                	add    %al,%ah
    4000a9e1:	00 00                	add    %al,(%rax)
    4000a9e3:	00 11                	add    %dl,(%rcx)
    4000a9e5:	00 00                	add    %al,(%rax)
    4000a9e7:	00 42 72             	add    %al,0x72(%rdx)
    4000a9ea:	43 6f                	rex.XB outsl %ds:(%rsi),(%dx)
    4000a9ec:	6e                   	outsb  %ds:(%rsi),(%dx)
    4000a9ed:	64 00 00             	add    %al,%fs:(%rax)
    4000a9f0:	00 00                	add    %al,(%rax)
    4000a9f2:	00 00                	add    %al,(%rax)
    4000a9f4:	cc                   	int3   
    4000a9f5:	00 00                	add    %al,(%rax)
    4000a9f7:	00 00                	add    %al,(%rax)
    4000a9f9:	02 00                	add    (%rax),%al
    4000a9fb:	00 00                	add    %al,(%rax)
    4000a9fd:	08 00                	or     %al,(%rax)
    4000a9ff:	00 00                	add    %al,(%rax)
    4000aa01:	00 00                	add    %al,(%rax)
    4000aa03:	00 07                	add    %al,(%rdi)
    4000aa05:	00 00                	add    %al,(%rax)
    4000aa07:	00 00                	add    %al,(%rax)
    4000aa09:	00 00                	add    %al,(%rax)
    4000aa0b:	00 c4                	add    %al,%ah
    4000aa0d:	00 00                	add    %al,(%rax)
    4000aa0f:	00 00                	add    %al,(%rax)
    4000aa11:	00 00                	add    %al,(%rax)
    4000aa13:	00 42 72             	add    %al,0x72(%rdx)
    4000aa16:	52                   	push   %rdx
    4000aa17:	65 74 69             	gs je  4000aa83 <CounterDefinitions+0x29a3>
    4000aa1a:	72 65                	jb     4000aa81 <CounterDefinitions+0x29a1>
    4000aa1c:	64 00 00             	add    %al,%fs:(%rax)
    4000aa1f:	00 cd                	add    %cl,%ch
    4000aa21:	00 00                	add    %al,(%rax)
    4000aa23:	00 00                	add    %al,(%rax)
    4000aa25:	02 00                	add    (%rax),%al
    4000aa27:	00 00                	add    %al,(%rax)
    4000aa29:	08 00                	or     %al,(%rax)
    4000aa2b:	00 00                	add    %al,(%rax)
    4000aa2d:	00 00                	add    %al,(%rax)
    4000aa2f:	00 07                	add    %al,(%rdi)
    4000aa31:	00 00                	add    %al,(%rax)
    4000aa33:	00 00                	add    %al,(%rax)
    4000aa35:	00 00                	add    %al,(%rax)
    4000aa37:	00 c4                	add    %al,%ah
    4000aa39:	00 00                	add    %al,(%rax)
    4000aa3b:	00 80 00 00 00 42    	add    %al,0x42000000(%rax)
    4000aa41:	72 49                	jb     4000aa8c <CounterDefinitions+0x29ac>
    4000aa43:	6e                   	outsb  %ds:(%rsi),(%dx)
    4000aa44:	64 69 72 00 00 00 00 	imul   $0x0,%fs:0x0(%rdx),%esi
    4000aa4b:	00 
    4000aa4c:	ce                   	(bad)  
    4000aa4d:	00 00                	add    %al,(%rax)
    4000aa4f:	00 00                	add    %al,(%rax)
    4000aa51:	02 00                	add    (%rax),%al
    4000aa53:	00 00                	add    %al,(%rax)
    4000aa55:	08 00                	or     %al,(%rax)
    4000aa57:	00 00                	add    %al,(%rax)
    4000aa59:	00 00                	add    %al,(%rax)
    4000aa5b:	00 07                	add    %al,(%rdi)
    4000aa5d:	00 00                	add    %al,(%rax)
    4000aa5f:	00 00                	add    %al,(%rax)
    4000aa61:	00 00                	add    %al,(%rax)
    4000aa63:	00 c5                	add    %al,%ch
    4000aa65:	00 00                	add    %al,(%rax)
    4000aa67:	00 80 00 00 00 42    	add    %al,0x42000000(%rax)
    4000aa6d:	72 4d                	jb     4000aabc <CounterDefinitions+0x29dc>
    4000aa6f:	69 73 70 49 6e 64 00 	imul   $0x646e49,0x70(%rbx),%esi
    4000aa76:	00 00                	add    %al,(%rax)
    4000aa78:	cf                   	iret   
    4000aa79:	00 00                	add    %al,(%rax)
    4000aa7b:	00 00                	add    %al,(%rax)
    4000aa7d:	02 00                	add    (%rax),%al
    4000aa7f:	00 00                	add    %al,(%rax)
    4000aa81:	08 00                	or     %al,(%rax)
    4000aa83:	00 00                	add    %al,(%rax)
    4000aa85:	00 00                	add    %al,(%rax)
    4000aa87:	00 07                	add    %al,(%rdi)
    4000aa89:	00 00                	add    %al,(%rax)
    4000aa8b:	00 00                	add    %al,(%rax)
    4000aa8d:	00 00                	add    %al,(%rax)
    4000aa8f:	00 c5                	add    %al,%ch
    4000aa91:	00 00                	add    %al,(%rax)
    4000aa93:	00 11                	add    %dl,(%rcx)
    4000aa95:	00 00                	add    %al,(%rax)
    4000aa97:	00 42 72             	add    %al,0x72(%rdx)
    4000aa9a:	4d 69 73 70 43 6f 6e 	imul   $0x6e6f43,0x70(%r11),%r14
    4000aaa1:	00 
    4000aaa2:	00 00                	add    %al,(%rax)
    4000aaa4:	d0 00                	rolb   (%rax)
    4000aaa6:	00 00                	add    %al,(%rax)
    4000aaa8:	00 02                	add    %al,(%rdx)
    4000aaaa:	00 00                	add    %al,(%rax)
    4000aaac:	00 08                	add    %cl,(%rax)
    4000aaae:	00 00                	add    %al,(%rax)
    4000aab0:	00 00                	add    %al,(%rax)
    4000aab2:	00 00                	add    %al,(%rax)
    4000aab4:	07                   	(bad)  
    4000aab5:	00 00                	add    %al,(%rax)
    4000aab7:	00 00                	add    %al,(%rax)
    4000aab9:	00 00                	add    %al,(%rax)
    4000aabb:	00 c5                	add    %al,%ch
    4000aabd:	00 00                	add    %al,(%rax)
    4000aabf:	00 01                	add    %al,(%rcx)
    4000aac1:	00 00                	add    %al,(%rax)
    4000aac3:	00 42 72             	add    %al,0x72(%rdx)
    4000aac6:	4d 69 73 54 61 6b 00 	imul   $0x6b61,0x54(%r11),%r14
    4000aacd:	00 
    4000aace:	00 00                	add    %al,(%rax)
    4000aad0:	d1 00                	roll   (%rax)
    4000aad2:	00 00                	add    %al,(%rax)
    4000aad4:	00 02                	add    %al,(%rdx)
    4000aad6:	00 00                	add    %al,(%rax)
    4000aad8:	00 08                	add    %cl,(%rax)
    4000aada:	00 00                	add    %al,(%rax)
    4000aadc:	00 00                	add    %al,(%rax)
    4000aade:	00 00                	add    %al,(%rax)
    4000aae0:	07                   	(bad)  
    4000aae1:	00 00                	add    %al,(%rax)
    4000aae3:	00 00                	add    %al,(%rax)
    4000aae5:	00 00                	add    %al,(%rax)
    4000aae7:	00 c5                	add    %al,%ch
    4000aae9:	00 00                	add    %al,(%rax)
    4000aaeb:	00 10                	add    %dl,(%rax)
    4000aaed:	00 00                	add    %al,(%rax)
    4000aaef:	00 42 72             	add    %al,0x72(%rdx)
    4000aaf2:	4d 69 73 4e 54 61 6b 	imul   $0x6b6154,0x4e(%r11),%r14
    4000aaf9:	00 
    4000aafa:	00 00                	add    %al,(%rax)
    4000aafc:	d2 00                	rolb   %cl,(%rax)
    4000aafe:	00 00                	add    %al,(%rax)
    4000ab00:	00 02                	add    %al,(%rdx)
    4000ab02:	00 00                	add    %al,(%rax)
    4000ab04:	00 08                	add    %cl,(%rax)
    4000ab06:	00 00                	add    %al,(%rax)
    4000ab08:	00 00                	add    %al,(%rax)
    4000ab0a:	00 00                	add    %al,(%rax)
    4000ab0c:	07                   	(bad)  
    4000ab0d:	00 00                	add    %al,(%rax)
    4000ab0f:	00 00                	add    %al,(%rax)
    4000ab11:	00 00                	add    %al,(%rax)
    4000ab13:	00 c5                	add    %al,%ch
    4000ab15:	00 00                	add    %al,(%rax)
    4000ab17:	00 00                	add    %al,(%rax)
    4000ab19:	00 00                	add    %al,(%rax)
    4000ab1b:	00 42 72             	add    %al,0x72(%rdx)
    4000ab1e:	4d 69 73 41 6c 6c 00 	imul   $0x6c6c,0x41(%r11),%r14
    4000ab25:	00 
    4000ab26:	00 00                	add    %al,(%rax)
    4000ab28:	d3 00                	roll   %cl,(%rax)
    4000ab2a:	00 00                	add    %al,(%rax)
    4000ab2c:	00 02                	add    %al,(%rdx)
    4000ab2e:	00 00                	add    %al,(%rax)
    4000ab30:	00 08                	add    %cl,(%rax)
    4000ab32:	00 00                	add    %al,(%rax)
    4000ab34:	00 00                	add    %al,(%rax)
    4000ab36:	00 00                	add    %al,(%rax)
    4000ab38:	07                   	(bad)  
    4000ab39:	00 00                	add    %al,(%rax)
    4000ab3b:	00 00                	add    %al,(%rax)
    4000ab3d:	00 00                	add    %al,(%rax)
    4000ab3f:	00 60 00             	add    %ah,0x0(%rax)
    4000ab42:	00 00                	add    %al,(%rax)
    4000ab44:	01 00                	add    %eax,(%rax)
    4000ab46:	00 00                	add    %al,(%rax)
    4000ab48:	42 72 43             	rex.X jb 4000ab8e <CounterDefinitions+0x2aae>
    4000ab4b:	6c                   	insb   (%dx),%es:(%rdi)
    4000ab4c:	65 61                	gs (bad) 
    4000ab4e:	72 5f                	jb     4000abaf <CounterDefinitions+0x2acf>
    4000ab50:	50                   	push   %rax
    4000ab51:	00 00                	add    %al,(%rax)
    4000ab53:	00 d4                	add    %dl,%ah
    4000ab55:	00 00                	add    %al,(%rax)
    4000ab57:	00 00                	add    %al,(%rax)
    4000ab59:	02 00                	add    (%rax),%al
    4000ab5b:	00 00                	add    %al,(%rax)
    4000ab5d:	08 00                	or     %al,(%rax)
    4000ab5f:	00 00                	add    %al,(%rax)
    4000ab61:	00 00                	add    %al,(%rax)
    4000ab63:	00 07                	add    %al,(%rdi)
    4000ab65:	00 00                	add    %al,(%rax)
    4000ab67:	00 00                	add    %al,(%rax)
    4000ab69:	00 00                	add    %al,(%rax)
    4000ab6b:	00 e6                	add    %ah,%dh
    4000ab6d:	00 00                	add    %al,(%rax)
    4000ab6f:	00 01                	add    %al,(%rcx)
    4000ab71:	00 00                	add    %al,(%rax)
    4000ab73:	00 42 72             	add    %al,0x72(%rdx)
    4000ab76:	43 6c                	rex.XB insb (%dx),%es:(%rdi)
    4000ab78:	65 61                	gs (bad) 
    4000ab7a:	72 5f                	jb     4000abdb <CounterDefinitions+0x2afb>
    4000ab7c:	45 00 00             	add    %r8b,(%r8)
    4000ab7f:	00 d5                	add    %dl,%ch
    4000ab81:	00 00                	add    %al,(%rax)
    4000ab83:	00 00                	add    %al,(%rax)
    4000ab85:	02 00                	add    (%rax),%al
    4000ab87:	00 00                	add    %al,(%rax)
    4000ab89:	08 00                	or     %al,(%rax)
    4000ab8b:	00 00                	add    %al,(%rax)
    4000ab8d:	00 00                	add    %al,(%rax)
    4000ab8f:	00 07                	add    %al,(%rdi)
    4000ab91:	00 00                	add    %al,(%rax)
    4000ab93:	00 00                	add    %al,(%rax)
    4000ab95:	00 00                	add    %al,(%rax)
    4000ab97:	00 c5                	add    %al,%ch
    4000ab99:	00 00                	add    %al,(%rax)
    4000ab9b:	00 02                	add    %al,(%rdx)
    4000ab9d:	00 00                	add    %al,(%rax)
    4000ab9f:	00 43 61             	add    %al,0x61(%rbx)
    4000aba2:	6c                   	insb   (%dx),%es:(%rdi)
    4000aba3:	6c                   	insb   (%dx),%es:(%rdi)
    4000aba4:	4d 69 73 00 00 00 00 	imul   $0x0,0x0(%r11),%r14
    4000abab:	00 
    4000abac:	d6                   	(bad)  
    4000abad:	00 00                	add    %al,(%rax)
    4000abaf:	00 00                	add    %al,(%rax)
    4000abb1:	02 00                	add    (%rax),%al
    4000abb3:	00 00                	add    %al,(%rax)
    4000abb5:	08 00                	or     %al,(%rax)
    4000abb7:	00 00                	add    %al,(%rax)
    4000abb9:	00 00                	add    %al,(%rax)
    4000abbb:	00 07                	add    %al,(%rdi)
    4000abbd:	00 00                	add    %al,(%rax)
    4000abbf:	00 00                	add    %al,(%rax)
    4000abc1:	00 00                	add    %al,(%rax)
    4000abc3:	00 c5                	add    %al,%ch
    4000abc5:	00 00                	add    %al,(%rax)
    4000abc7:	00 08                	add    %cl,(%rax)
    4000abc9:	00 00                	add    %al,(%rax)
    4000abcb:	00 52 65             	add    %dl,0x65(%rdx)
    4000abce:	74 4d                	je     4000ac1d <CounterDefinitions+0x2b3d>
    4000abd0:	69 73 00 00 00 00 00 	imul   $0x0,0x0(%rbx),%esi
    4000abd7:	00 d7                	add    %dl,%bh
    4000abd9:	00 00                	add    %al,(%rax)
    4000abdb:	00 00                	add    %al,(%rax)
    4000abdd:	02 00                	add    (%rax),%al
    4000abdf:	00 00                	add    %al,(%rax)
    4000abe1:	08 00                	or     %al,(%rax)
    4000abe3:	00 00                	add    %al,(%rax)
    4000abe5:	00 00                	add    %al,(%rax)
    4000abe7:	00 07                	add    %al,(%rdi)
    4000abe9:	00 00                	add    %al,(%rax)
    4000abeb:	00 00                	add    %al,(%rax)
    4000abed:	00 00                	add    %al,(%rax)
    4000abef:	00 c5                	add    %al,%ch
    4000abf1:	00 00                	add    %al,(%rax)
    4000abf3:	00 eb                	add    %ch,%bl
    4000abf5:	00 00                	add    %al,(%rax)
    4000abf7:	00 42 72             	add    %al,0x72(%rdx)
    4000abfa:	4d 69 73 70 49 6e 64 	imul   $0x646e49,0x70(%r11),%r14
    4000ac01:	00 
    4000ac02:	00 00                	add    %al,(%rax)
    4000ac04:	d8 00                	fadds  (%rax)
    4000ac06:	00 00                	add    %al,(%rax)
    4000ac08:	00 02                	add    %al,(%rdx)
    4000ac0a:	00 00                	add    %al,(%rax)
    4000ac0c:	00 08                	add    %cl,(%rax)
    4000ac0e:	00 00                	add    %al,(%rax)
    4000ac10:	00 00                	add    %al,(%rax)
    4000ac12:	00 00                	add    %al,(%rax)
    4000ac14:	07                   	(bad)  
    4000ac15:	00 00                	add    %al,(%rax)
    4000ac17:	00 00                	add    %al,(%rax)
    4000ac19:	00 00                	add    %al,(%rax)
    4000ac1b:	00 c4                	add    %al,%ah
    4000ac1d:	00 00                	add    %al,(%rax)
    4000ac1f:	00 eb                	add    %ch,%bl
    4000ac21:	00 00                	add    %al,(%rax)
    4000ac23:	00 42 72             	add    %al,0x72(%rdx)
    4000ac26:	49 6e                	rex.WB outsb %ds:(%rsi),(%dx)
    4000ac28:	64 69 72 00 00 00 00 	imul   $0x0,%fs:0x0(%rdx),%esi
    4000ac2f:	00 
    4000ac30:	d9 00                	flds   (%rax)
    4000ac32:	00 00                	add    %al,(%rax)
    4000ac34:	00 02                	add    %al,(%rdx)
    4000ac36:	00 00                	add    %al,(%rax)
    4000ac38:	00 08                	add    %cl,(%rax)
    4000ac3a:	00 00                	add    %al,(%rax)
    4000ac3c:	00 00                	add    %al,(%rax)
    4000ac3e:	00 00                	add    %al,(%rax)
    4000ac40:	07                   	(bad)  
    4000ac41:	00 00                	add    %al,(%rax)
    4000ac43:	00 00                	add    %al,(%rax)
    4000ac45:	00 00                	add    %al,(%rax)
    4000ac47:	00 c6                	add    %al,%dh
    4000ac49:	00 00                	add    %al,(%rax)
    4000ac4b:	00 01                	add    %al,(%rcx)
    4000ac4d:	00 00                	add    %al,(%rax)
    4000ac4f:	00 46 72             	add    %al,0x72(%rsi)
    4000ac52:	55                   	push   %rbp
    4000ac53:	6e                   	outsb  %ds:(%rsi),(%dx)
    4000ac54:	6b 6e 77 6e          	imul   $0x6e,0x77(%rsi),%ebp
    4000ac58:	00 00                	add    %al,(%rax)
    4000ac5a:	00 00                	add    %al,(%rax)
    4000ac5c:	da 00                	fiaddl (%rax)
    4000ac5e:	00 00                	add    %al,(%rax)
    4000ac60:	00 02                	add    %al,(%rdx)
    4000ac62:	00 00                	add    %al,(%rax)
    4000ac64:	00 08                	add    %cl,(%rax)
    4000ac66:	00 00                	add    %al,(%rax)
    4000ac68:	00 00                	add    %al,(%rax)
    4000ac6a:	00 00                	add    %al,(%rax)
    4000ac6c:	07                   	(bad)  
    4000ac6d:	00 00                	add    %al,(%rax)
    4000ac6f:	00 00                	add    %al,(%rax)
    4000ac71:	00 00                	add    %al,(%rax)
    4000ac73:	00 c5                	add    %al,%ch
    4000ac75:	00 00                	add    %al,(%rax)
    4000ac77:	00 fe                	add    %bh,%dh
    4000ac79:	00 00                	add    %al,(%rax)
    4000ac7b:	00 42 72             	add    %al,0x72(%rdx)
    4000ac7e:	4d 69 73 70 54 61 6b 	imul   $0x6b6154,0x70(%r11),%r14
    4000ac85:	00 
    4000ac86:	00 00                	add    %al,(%rax)
    4000ac88:	db 00                	fildl  (%rax)
    4000ac8a:	00 00                	add    %al,(%rax)
    4000ac8c:	00 02                	add    %al,(%rdx)
    4000ac8e:	00 00                	add    %al,(%rax)
    4000ac90:	00 08                	add    %cl,(%rax)
    4000ac92:	00 00                	add    %al,(%rax)
    4000ac94:	00 00                	add    %al,(%rax)
    4000ac96:	00 00                	add    %al,(%rax)
    4000ac98:	07                   	(bad)  
    4000ac99:	00 00                	add    %al,(%rax)
    4000ac9b:	00 00                	add    %al,(%rax)
    4000ac9d:	00 00                	add    %al,(%rax)
    4000ac9f:	00 c5                	add    %al,%ch
    4000aca1:	00 00                	add    %al,(%rax)
    4000aca3:	00 7e 00             	add    %bh,0x0(%rsi)
    4000aca6:	00 00                	add    %al,(%rax)
    4000aca8:	42 72 4d             	rex.X jb 4000acf8 <CounterDefinitions+0x2c18>
    4000acab:	69 73 70 43 6f 6e 00 	imul   $0x6e6f43,0x70(%rbx),%esi
    4000acb2:	00 00                	add    %al,(%rax)
    4000acb4:	dc 00                	faddl  (%rax)
    4000acb6:	00 00                	add    %al,(%rax)
    4000acb8:	00 02                	add    %al,(%rdx)
    4000acba:	00 00                	add    %al,(%rax)
    4000acbc:	00 08                	add    %cl,(%rax)
    4000acbe:	00 00                	add    %al,(%rax)
    4000acc0:	00 00                	add    %al,(%rax)
    4000acc2:	00 00                	add    %al,(%rax)
    4000acc4:	07                   	(bad)  
    4000acc5:	00 00                	add    %al,(%rax)
    4000acc7:	00 00                	add    %al,(%rax)
    4000acc9:	00 00                	add    %al,(%rax)
    4000accb:	00 c5                	add    %al,%ch
    4000accd:	00 00                	add    %al,(%rax)
    4000accf:	00 00                	add    %al,(%rax)
    4000acd1:	00 00                	add    %al,(%rax)
    4000acd3:	00 42 72             	add    %al,0x72(%rdx)
    4000acd6:	4d 69 73 41 6c 6c 00 	imul   $0x6c6c,0x41(%r11),%r14
    4000acdd:	00 
    4000acde:	00 00                	add    %al,(%rax)
    4000ace0:	dd 00                	fldl   (%rax)
    4000ace2:	00 00                	add    %al,(%rax)
    4000ace4:	00 02                	add    %al,(%rdx)
    4000ace6:	00 00                	add    %al,(%rax)
    4000ace8:	00 08                	add    %cl,(%rax)
    4000acea:	00 00                	add    %al,(%rax)
    4000acec:	00 00                	add    %al,(%rax)
    4000acee:	00 00                	add    %al,(%rax)
    4000acf0:	07                   	(bad)  
    4000acf1:	00 00                	add    %al,(%rax)
    4000acf3:	00 00                	add    %al,(%rax)
    4000acf5:	00 00                	add    %al,(%rax)
    4000acf7:	00 c4                	add    %al,%ah
    4000acf9:	00 00                	add    %al,(%rax)
    4000acfb:	00 00                	add    %al,(%rax)
    4000acfd:	00 00                	add    %al,(%rax)
    4000acff:	00 42 72             	add    %al,0x72(%rdx)
    4000ad02:	52                   	push   %rdx
    4000ad03:	65 74 69             	gs je  4000ad6f <CounterDefinitions+0x2c8f>
    4000ad06:	72 65                	jb     4000ad6d <CounterDefinitions+0x2c8d>
    4000ad08:	64 00 00             	add    %al,%fs:(%rax)
    4000ad0b:	00 de                	add    %bl,%dh
    4000ad0d:	00 00                	add    %al,(%rax)
    4000ad0f:	00 00                	add    %al,(%rax)
    4000ad11:	02 00                	add    (%rax),%al
    4000ad13:	00 00                	add    %al,(%rax)
    4000ad15:	08 00                	or     %al,(%rax)
    4000ad17:	00 00                	add    %al,(%rax)
    4000ad19:	00 00                	add    %al,(%rax)
    4000ad1b:	00 07                	add    %al,(%rdi)
    4000ad1d:	00 00                	add    %al,(%rax)
    4000ad1f:	00 00                	add    %al,(%rax)
    4000ad21:	00 00                	add    %al,(%rax)
    4000ad23:	00 c4                	add    %al,%ah
    4000ad25:	00 00                	add    %al,(%rax)
    4000ad27:	00 fe                	add    %bh,%dh
    4000ad29:	00 00                	add    %al,(%rax)
    4000ad2b:	00 42 72             	add    %al,0x72(%rdx)
    4000ad2e:	54                   	push   %rsp
    4000ad2f:	61                   	(bad)  
    4000ad30:	6b 65 6e 5f          	imul   $0x5f,0x6e(%rbp),%esp
    4000ad34:	45 00 00             	add    %r8b,(%r8)
    4000ad37:	00 df                	add    %bl,%bh
    4000ad39:	00 00                	add    %al,(%rax)
    4000ad3b:	00 00                	add    %al,(%rax)
    4000ad3d:	02 00                	add    (%rax),%al
    4000ad3f:	00 00                	add    %al,(%rax)
    4000ad41:	08 00                	or     %al,(%rax)
    4000ad43:	00 00                	add    %al,(%rax)
    4000ad45:	00 00                	add    %al,(%rax)
    4000ad47:	00 07                	add    %al,(%rdi)
    4000ad49:	00 00                	add    %al,(%rax)
    4000ad4b:	00 00                	add    %al,(%rax)
    4000ad4d:	00 00                	add    %al,(%rax)
    4000ad4f:	00 a4 00 00 00 08 00 	add    %ah,0x80000(%rax,%rax,1)
    4000ad56:	00 00                	add    %al,(%rax)
    4000ad58:	54                   	push   %rsp
    4000ad59:	4d                   	rex.WRB
    4000ad5a:	41                   	rex.B
    4000ad5b:	42 72 4d             	rex.X jb 4000adab <CounterDefinitions+0x2ccb>
    4000ad5e:	69 73 00 00 00 00 36 	imul   $0x36000000,0x0(%rbx),%esi
    4000ad65:	01 00                	add    %eax,(%rax)
    4000ad67:	00 00                	add    %al,(%rax)
    4000ad69:	02 00                	add    (%rax),%al
    4000ad6b:	00 00                	add    %al,(%rax)
    4000ad6d:	08 00                	or     %al,(%rax)
    4000ad6f:	00 00                	add    %al,(%rax)
    4000ad71:	00 00                	add    %al,(%rax)
    4000ad73:	00 07                	add    %al,(%rdi)
    4000ad75:	00 00                	add    %al,(%rax)
    4000ad77:	00 00                	add    %al,(%rax)
    4000ad79:	00 00                	add    %al,(%rax)
    4000ad7b:	00 80 00 00 00 04    	add    %al,0x4000000(%rax)
    4000ad81:	00 00                	add    %al,(%rax)
    4000ad83:	00 43 6f             	add    %al,0x6f(%rbx)
    4000ad86:	64 65 4d 69 73 73 00 	fs imul $0x0,%gs:0x73(%r11),%r14
    4000ad8d:	00 00 00 
    4000ad90:	38 01                	cmp    %al,(%rcx)
    4000ad92:	00 00                	add    %al,(%rax)
    4000ad94:	00 02                	add    %al,(%rdx)
    4000ad96:	00 00                	add    %al,(%rax)
    4000ad98:	00 08                	add    %cl,(%rax)
    4000ad9a:	00 00                	add    %al,(%rax)
    4000ad9c:	00 00                	add    %al,(%rax)
    4000ad9e:	00 00                	add    %al,(%rax)
    4000ada0:	07                   	(bad)  
    4000ada1:	00 00                	add    %al,(%rax)
    4000ada3:	00 00                	add    %al,(%rax)
    4000ada5:	00 00                	add    %al,(%rax)
    4000ada7:	00 80 00 00 00 02    	add    %al,0x2000000(%rax)
    4000adad:	00 00                	add    %al,(%rax)
    4000adaf:	00 49 43             	add    %cl,0x43(%rcx)
    4000adb2:	61                   	(bad)  
    4000adb3:	63 68 65             	movsxd 0x65(%rax),%ebp
    4000adb6:	4d 69 73 00 00 00 35 	imul   $0x1350000,0x0(%r11),%r14
    4000adbd:	01 
    4000adbe:	00 00                	add    %al,(%rax)
    4000adc0:	00 02                	add    %al,(%rdx)
    4000adc2:	00 00                	add    %al,(%rax)
    4000adc4:	00 08                	add    %cl,(%rax)
    4000adc6:	00 00                	add    %al,(%rax)
    4000adc8:	00 00                	add    %al,(%rax)
    4000adca:	00 00                	add    %al,(%rax)
    4000adcc:	07                   	(bad)  
    4000adcd:	00 00                	add    %al,(%rax)
    4000adcf:	00 00                	add    %al,(%rax)
    4000add1:	00 00                	add    %al,(%rax)
    4000add3:	00 83 00 00 00 04    	add    %al,0x4000000(%rbx)
    4000add9:	00 00                	add    %al,(%rax)
    4000addb:	00 49 43             	add    %cl,0x43(%rcx)
    4000adde:	61                   	(bad)  
    4000addf:	63 68 65             	movsxd 0x65(%rax),%ebp
    4000ade2:	54                   	push   %rsp
    4000ade3:	61                   	(bad)  
    4000ade4:	67 00 00             	add    %al,(%eax)
    4000ade7:	00 39                	add    %bh,(%rcx)
    4000ade9:	01 00                	add    %eax,(%rax)
    4000adeb:	00 00                	add    %al,(%rax)
    4000aded:	02 00                	add    (%rax),%al
    4000adef:	00 00                	add    %al,(%rax)
    4000adf1:	08 00                	or     %al,(%rax)
    4000adf3:	00 00                	add    %al,(%rax)
    4000adf5:	00 00                	add    %al,(%rax)
    4000adf7:	00 07                	add    %al,(%rdi)
    4000adf9:	00 00                	add    %al,(%rax)
    4000adfb:	00 00                	add    %al,(%rax)
    4000adfd:	00 00                	add    %al,(%rax)
    4000adff:	00 c2                	add    %al,%dl
    4000ae01:	00 00                	add    %al,(%rax)
    4000ae03:	00 00                	add    %al,(%rax)
    4000ae05:	00 00                	add    %al,(%rax)
    4000ae07:	00 75 6f             	add    %dh,0x6f(%rbp)
    4000ae0a:	70 52                	jo     4000ae5e <CounterDefinitions+0x2d7e>
    4000ae0c:	65 74 69             	gs je  4000ae78 <CounterDefinitions+0x2d98>
    4000ae0f:	72 65                	jb     4000ae76 <CounterDefinitions+0x2d96>
    4000ae11:	00 00                	add    %al,(%rax)
    4000ae13:	00 3a                	add    %bh,(%rdx)
    4000ae15:	01 00                	add    %eax,(%rax)
    4000ae17:	00 00                	add    %al,(%rax)
    4000ae19:	02 00                	add    (%rax),%al
    4000ae1b:	00 00                	add    %al,(%rax)
    4000ae1d:	08 00                	or     %al,(%rax)
    4000ae1f:	00 00                	add    %al,(%rax)
    4000ae21:	00 00                	add    %al,(%rax)
    4000ae23:	00 07                	add    %al,(%rdi)
    4000ae25:	00 00                	add    %al,(%rax)
    4000ae27:	00 00                	add    %al,(%rax)
    4000ae29:	00 00                	add    %al,(%rax)
    4000ae2b:	00 71 00             	add    %dh,0x0(%rcx)
    4000ae2e:	00 00                	add    %al,(%rax)
    4000ae30:	40 00 00             	rex add %al,(%rax)
    4000ae33:	00 42 54             	add    %al,0x54(%rdx)
    4000ae36:	43                   	rex.XB
    4000ae37:	4c                   	rex.WR
    4000ae38:	45                   	rex.RB
    4000ae39:	41 52                	push   %r10
    4000ae3b:	53                   	push   %rbx
    4000ae3c:	00 00                	add    %al,(%rax)
    4000ae3e:	00 00                	add    %al,(%rax)
    4000ae40:	3b 01                	cmp    (%rcx),%eax
    4000ae42:	00 00                	add    %al,(%rax)
    4000ae44:	00 02                	add    %al,(%rdx)
    4000ae46:	00 00                	add    %al,(%rax)
    4000ae48:	00 08                	add    %cl,(%rax)
    4000ae4a:	00 00                	add    %al,(%rax)
    4000ae4c:	00 00                	add    %al,(%rax)
    4000ae4e:	00 00                	add    %al,(%rax)
    4000ae50:	07                   	(bad)  
    4000ae51:	00 00                	add    %al,(%rax)
    4000ae53:	00 00                	add    %al,(%rax)
    4000ae55:	00 00                	add    %al,(%rax)
    4000ae57:	00 71 00             	add    %dh,0x0(%rcx)
    4000ae5a:	00 00                	add    %al,(%rax)
    4000ae5c:	02 00                	add    (%rax),%al
    4000ae5e:	00 00                	add    %al,(%rax)
    4000ae60:	42                   	rex.X
    4000ae61:	41                   	rex.B
    4000ae62:	43                   	rex.XB
    4000ae63:	4c                   	rex.WR
    4000ae64:	45                   	rex.RB
    4000ae65:	41 52                	push   %r10
    4000ae67:	53                   	push   %rbx
    4000ae68:	00 00                	add    %al,(%rax)
    4000ae6a:	00 00                	add    %al,(%rax)
    4000ae6c:	3c 01                	cmp    $0x1,%al
    4000ae6e:	00 00                	add    %al,(%rax)
    4000ae70:	00 02                	add    %al,(%rdx)
    4000ae72:	00 00                	add    %al,(%rax)
    4000ae74:	00 08                	add    %cl,(%rax)
    4000ae76:	00 00                	add    %al,(%rax)
    4000ae78:	00 00                	add    %al,(%rax)
    4000ae7a:	00 00                	add    %al,(%rax)
    4000ae7c:	07                   	(bad)  
    4000ae7d:	00 00                	add    %al,(%rax)
    4000ae7f:	00 00                	add    %al,(%rax)
    4000ae81:	00 00                	add    %al,(%rax)
    4000ae83:	00 71 00             	add    %dh,0x0(%rcx)
    4000ae86:	00 00                	add    %al,(%rax)
    4000ae88:	00 00                	add    %al,(%rax)
    4000ae8a:	00 00                	add    %al,(%rax)
    4000ae8c:	54                   	push   %rsp
    4000ae8d:	4d                   	rex.WRB
    4000ae8e:	41 2d 61 6c 6c 00    	rex.B sub $0x6c6c61,%eax
    4000ae94:	00 00                	add    %al,(%rax)
    4000ae96:	00 00                	add    %al,(%rax)
    4000ae98:	37                   	(bad)  
    4000ae99:	01 00                	add    %eax,(%rax)
    4000ae9b:	00 00                	add    %al,(%rax)
    4000ae9d:	02 00                	add    (%rax),%al
    4000ae9f:	00 00                	add    %al,(%rax)
    4000aea1:	08 00                	or     %al,(%rax)
    4000aea3:	00 00                	add    %al,(%rax)
    4000aea5:	00 00                	add    %al,(%rax)
    4000aea7:	00 07                	add    %al,(%rdi)
    4000aea9:	00 00                	add    %al,(%rax)
    4000aeab:	00 00                	add    %al,(%rax)
    4000aead:	00 00                	add    %al,(%rax)
    4000aeaf:	00 24 00             	add    %ah,(%rax,%rax,1)
    4000aeb2:	00 00                	add    %al,(%rax)
    4000aeb4:	e1 00                	loope  4000aeb6 <CounterDefinitions+0x2dd6>
    4000aeb6:	00 00                	add    %al,(%rax)
    4000aeb8:	4c 31 44 20 4d       	xor    %r8,0x4d(%rax,%riz,1)
    4000aebd:	69 73 73 00 00 00 00 	imul   $0x0,0x73(%rbx),%esi
    4000aec4:	40 01 00             	rex add %eax,(%rax)
    4000aec7:	00 00                	add    %al,(%rax)
    4000aec9:	02 00                	add    (%rax),%al
    4000aecb:	00 00                	add    %al,(%rax)
    4000aecd:	08 00                	or     %al,(%rax)
    4000aecf:	00 00                	add    %al,(%rax)
    4000aed1:	00 00                	add    %al,(%rax)
    4000aed3:	00 07                	add    %al,(%rdi)
    4000aed5:	00 00                	add    %al,(%rax)
    4000aed7:	00 00                	add    %al,(%rax)
    4000aed9:	00 00                	add    %al,(%rax)
    4000aedb:	00 24 00             	add    %ah,(%rax,%rax,1)
    4000aede:	00 00                	add    %al,(%rax)
    4000aee0:	21 00                	and    %eax,(%rax)
    4000aee2:	00 00                	add    %al,(%rax)
    4000aee4:	4c 32 20             	rex.WR xor (%rax),%r12b
    4000aee7:	4d 69 73 73 00 00 00 	imul   $0x0,0x73(%r11),%r14
    4000aeee:	00 
    4000aeef:	00 41 01             	add    %al,0x1(%rcx)
    4000aef2:	00 00                	add    %al,(%rax)
    4000aef4:	00 02                	add    %al,(%rdx)
    4000aef6:	00 00                	add    %al,(%rax)
    4000aef8:	00 08                	add    %cl,(%rax)
    4000aefa:	00 00                	add    %al,(%rax)
    4000aefc:	00 00                	add    %al,(%rax)
    4000aefe:	00 00                	add    %al,(%rax)
    4000af00:	07                   	(bad)  
    4000af01:	00 00                	add    %al,(%rax)
    4000af03:	00 00                	add    %al,(%rax)
    4000af05:	00 00                	add    %al,(%rax)
    4000af07:	00 21                	add    %ah,(%rcx)
    4000af09:	00 00                	add    %al,(%rax)
    4000af0b:	00 10                	add    %dl,(%rax)
    4000af0d:	00 00                	add    %al,(%rax)
    4000af0f:	00 4c 33 20          	add    %cl,0x20(%rbx,%rsi,1)
    4000af13:	4d 69 73 73 00 00 00 	imul   $0x0,0x73(%r11),%r14
    4000af1a:	00 
    4000af1b:	00 09                	add    %cl,(%rcx)
    4000af1d:	00 00                	add    %al,(%rax)
    4000af1f:	00 80 00 00 00 00    	add    %al,0x0(%rax)
    4000af25:	10 00                	adc    %al,(%rax)
    4000af27:	00 00                	add    %al,(%rax)
    4000af29:	00 00                	add    %al,(%rax)
    4000af2b:	40 00 00             	rex add %al,(%rax)
	...
    4000af3a:	00 00                	add    %al,(%rax)
    4000af3c:	49 6e                	rex.WB outsb %ds:(%rsi),(%dx)
    4000af3e:	73 74                	jae    4000afb4 <CounterDefinitions+0x2ed4>
    4000af40:	72 75                	jb     4000afb7 <CounterDefinitions+0x2ed7>
    4000af42:	63 74 00 00          	movsxd 0x0(%rax,%rax,1),%esi
    4000af46:	00 00                	add    %al,(%rax)
    4000af48:	0a 00                	or     (%rax),%al
    4000af4a:	00 00                	add    %al,(%rax)
    4000af4c:	80 00 00             	addb   $0x0,(%rax)
    4000af4f:	00 00                	add    %al,(%rax)
    4000af51:	10 00                	adc    %al,(%rax)
    4000af53:	00 00                	add    %al,(%rax)
    4000af55:	00 00                	add    %al,(%rax)
    4000af57:	00 01                	add    %al,(%rcx)
    4000af59:	00 00                	add    %al,(%rax)
    4000af5b:	00 00                	add    %al,(%rax)
    4000af5d:	00 00                	add    %al,(%rax)
    4000af5f:	00 c0                	add    %al,%al
    4000af61:	00 00                	add    %al,(%rax)
    4000af63:	00 00                	add    %al,(%rax)
    4000af65:	00 00                	add    %al,(%rax)
    4000af67:	00 49 6e             	add    %cl,0x6e(%rcx)
    4000af6a:	73 74                	jae    4000afe0 <CounterDefinitions+0x2f00>
    4000af6c:	72 00                	jb     4000af6e <CounterDefinitions+0x2e8e>
    4000af6e:	00 00                	add    %al,(%rax)
    4000af70:	00 00                	add    %al,(%rax)
    4000af72:	00 00                	add    %al,(%rax)
    4000af74:	14 00                	adc    $0x0,%al
    4000af76:	00 00                	add    %al,(%rax)
    4000af78:	80 00 00             	addb   $0x0,(%rax)
    4000af7b:	00 00                	add    %al,(%rax)
    4000af7d:	10 00                	adc    %al,(%rax)
    4000af7f:	00 00                	add    %al,(%rax)
    4000af81:	00 00                	add    %al,(%rax)
    4000af83:	00 01                	add    %al,(%rcx)
    4000af85:	00 00                	add    %al,(%rax)
    4000af87:	00 00                	add    %al,(%rax)
    4000af89:	00 00                	add    %al,(%rax)
    4000af8b:	00 80 00 00 00 03    	add    %al,0x3000000(%rax)
    4000af91:	00 00                	add    %al,(%rax)
    4000af93:	00 49 6e             	add    %cl,0x6e(%rcx)
    4000af96:	73 66                	jae    4000affe <CounterDefinitions+0x2f1e>
    4000af98:	65 74 63             	gs je  4000affe <CounterDefinitions+0x2f1e>
    4000af9b:	68 00 00 00 00       	push   $0x0
    4000afa0:	15 00 00 00 80       	adc    $0x80000000,%eax
    4000afa5:	00 00                	add    %al,(%rax)
    4000afa7:	00 00                	add    %al,(%rax)
    4000afa9:	10 00                	adc    %al,(%rax)
    4000afab:	00 00                	add    %al,(%rax)
    4000afad:	00 00                	add    %al,(%rax)
    4000afaf:	00 01                	add    %al,(%rcx)
    4000afb1:	00 00                	add    %al,(%rax)
    4000afb3:	00 00                	add    %al,(%rax)
    4000afb5:	00 00                	add    %al,(%rax)
    4000afb7:	00 80 00 00 00 02    	add    %al,0x2000000(%rax)
    4000afbd:	00 00                	add    %al,(%rax)
    4000afbf:	00 49 20             	add    %cl,0x20(%rcx)
    4000afc2:	6d                   	insl   (%dx),%es:(%rdi)
    4000afc3:	69 73 73 00 00 00 00 	imul   $0x0,0x73(%rbx),%esi
    4000afca:	00 00                	add    %al,(%rax)
    4000afcc:	1e                   	(bad)  
    4000afcd:	00 00                	add    %al,(%rax)
    4000afcf:	00 80 00 00 00 00    	add    %al,0x0(%rax)
    4000afd5:	10 00                	adc    %al,(%rax)
    4000afd7:	00 00                	add    %al,(%rax)
    4000afd9:	00 00                	add    %al,(%rax)
    4000afdb:	00 01                	add    %al,(%rcx)
    4000afdd:	00 00                	add    %al,(%rax)
    4000afdf:	00 00                	add    %al,(%rax)
    4000afe1:	00 00                	add    %al,(%rax)
    4000afe3:	00 40 00             	add    %al,0x0(%rax)
    4000afe6:	00 00                	add    %al,(%rax)
    4000afe8:	21 00                	and    %eax,(%rax)
    4000afea:	00 00                	add    %al,(%rax)
    4000afec:	4c 31 20             	xor    %r12,(%rax)
    4000afef:	72 65                	jb     4000b056 <CounterDefinitions+0x2f76>
    4000aff1:	61                   	(bad)  
    4000aff2:	64 00 00             	add    %al,%fs:(%rax)
    4000aff5:	00 00                	add    %al,(%rax)
    4000aff7:	00 1f                	add    %bl,(%rdi)
    4000aff9:	00 00                	add    %al,(%rax)
    4000affb:	00 80 00 00 00 00    	add    %al,0x0(%rax)
    4000b001:	10 00                	adc    %al,(%rax)
    4000b003:	00 00                	add    %al,(%rax)
    4000b005:	00 00                	add    %al,(%rax)
    4000b007:	00 01                	add    %al,(%rcx)
    4000b009:	00 00                	add    %al,(%rax)
    4000b00b:	00 00                	add    %al,(%rax)
    4000b00d:	00 00                	add    %al,(%rax)
    4000b00f:	00 40 00             	add    %al,0x0(%rax)
    4000b012:	00 00                	add    %al,(%rax)
    4000b014:	22 00                	and    (%rax),%al
    4000b016:	00 00                	add    %al,(%rax)
    4000b018:	4c 31 20             	xor    %r12,(%rax)
    4000b01b:	77 72                	ja     4000b08f <CounterDefinitions+0x2faf>
    4000b01d:	69 74 65 00 00 00 00 	imul   $0x64000000,0x0(%rbp,%riz,2),%esi
    4000b024:	64 
    4000b025:	00 00                	add    %al,(%rax)
    4000b027:	00 80 00 00 00 00    	add    %al,0x0(%rax)
    4000b02d:	10 00                	adc    %al,(%rax)
    4000b02f:	00 00                	add    %al,(%rax)
    4000b031:	00 00                	add    %al,(%rax)
    4000b033:	00 01                	add    %al,(%rcx)
    4000b035:	00 00                	add    %al,(%rax)
    4000b037:	00 00                	add    %al,(%rax)
    4000b039:	00 00                	add    %al,(%rax)
    4000b03b:	00 c2                	add    %al,%dl
    4000b03d:	00 00                	add    %al,(%rax)
    4000b03f:	00 10                	add    %dl,(%rax)
    4000b041:	00 00                	add    %al,(%rax)
    4000b043:	00 55 6f             	add    %dl,0x6f(%rbp)
    4000b046:	70 73                	jo     4000b0bb <CounterDefinitions+0x2fdb>
	...
    4000b050:	c8 00 00 00          	enter  $0x0,$0x0
    4000b054:	80 00 00             	addb   $0x0,(%rax)
    4000b057:	00 00                	add    %al,(%rax)
    4000b059:	10 00                	adc    %al,(%rax)
    4000b05b:	00 00                	add    %al,(%rax)
    4000b05d:	00 00                	add    %al,(%rax)
    4000b05f:	00 01                	add    %al,(%rcx)
    4000b061:	00 00                	add    %al,(%rax)
    4000b063:	00 00                	add    %al,(%rax)
    4000b065:	00 00                	add    %al,(%rax)
    4000b067:	00 c4                	add    %al,%ah
    4000b069:	00 00                	add    %al,(%rax)
    4000b06b:	00 00                	add    %al,(%rax)
    4000b06d:	00 00                	add    %al,(%rax)
    4000b06f:	00 42 72             	add    %al,0x72(%rdx)
    4000b072:	61                   	(bad)  
    4000b073:	6e                   	outsb  %ds:(%rsi),(%dx)
    4000b074:	63 68 00             	movsxd 0x0(%rax),%ebp
    4000b077:	00 00                	add    %al,(%rax)
    4000b079:	00 00                	add    %al,(%rax)
    4000b07b:	00 c9                	add    %cl,%cl
    4000b07d:	00 00                	add    %al,(%rax)
    4000b07f:	00 80 00 00 00 00    	add    %al,0x0(%rax)
    4000b085:	10 00                	adc    %al,(%rax)
    4000b087:	00 00                	add    %al,(%rax)
    4000b089:	00 00                	add    %al,(%rax)
    4000b08b:	00 01                	add    %al,(%rcx)
    4000b08d:	00 00                	add    %al,(%rax)
    4000b08f:	00 00                	add    %al,(%rax)
    4000b091:	00 00                	add    %al,(%rax)
    4000b093:	00 c4                	add    %al,%ah
    4000b095:	00 00                	add    %al,(%rax)
    4000b097:	00 0c 00             	add    %cl,(%rax,%rax,1)
    4000b09a:	00 00                	add    %al,(%rax)
    4000b09c:	42 72 54             	rex.X jb 4000b0f3 <CounterDefinitions+0x3013>
    4000b09f:	61                   	(bad)  
    4000b0a0:	6b 65 6e 00          	imul   $0x0,0x6e(%rbp),%esp
    4000b0a4:	00 00                	add    %al,(%rax)
    4000b0a6:	00 00                	add    %al,(%rax)
    4000b0a8:	cc                   	int3   
    4000b0a9:	00 00                	add    %al,(%rax)
    4000b0ab:	00 80 00 00 00 00    	add    %al,0x0(%rax)
    4000b0b1:	10 00                	adc    %al,(%rax)
    4000b0b3:	00 00                	add    %al,(%rax)
    4000b0b5:	00 00                	add    %al,(%rax)
    4000b0b7:	00 01                	add    %al,(%rcx)
    4000b0b9:	00 00                	add    %al,(%rax)
    4000b0bb:	00 00                	add    %al,(%rax)
    4000b0bd:	00 00                	add    %al,(%rax)
    4000b0bf:	00 c4                	add    %al,%ah
    4000b0c1:	00 00                	add    %al,(%rax)
    4000b0c3:	00 0a                	add    %cl,(%rdx)
    4000b0c5:	00 00                	add    %al,(%rax)
    4000b0c7:	00 42 72             	add    %al,0x72(%rdx)
    4000b0ca:	4d 69 73 70 72 65 64 	imul   $0x646572,0x70(%r11),%r14
    4000b0d1:	00 
    4000b0d2:	00 00                	add    %al,(%rax)
    4000b0d4:	cd 00                	int    $0x0
    4000b0d6:	00 00                	add    %al,(%rax)
    4000b0d8:	80 00 00             	addb   $0x0,(%rax)
    4000b0db:	00 00                	add    %al,(%rax)
    4000b0dd:	10 00                	adc    %al,(%rax)
    4000b0df:	00 00                	add    %al,(%rax)
    4000b0e1:	00 00                	add    %al,(%rax)
    4000b0e3:	00 01                	add    %al,(%rcx)
    4000b0e5:	00 00                	add    %al,(%rax)
    4000b0e7:	00 00                	add    %al,(%rax)
    4000b0e9:	00 00                	add    %al,(%rax)
    4000b0eb:	00 e6                	add    %ah,%dh
    4000b0ed:	00 00                	add    %al,(%rax)
    4000b0ef:	00 01                	add    %al,(%rcx)
    4000b0f1:	00 00                	add    %al,(%rax)
    4000b0f3:	00 42 54             	add    %al,0x54(%rdx)
    4000b0f6:	42                   	rex.X
    4000b0f7:	4d 69 73 73 00 00 00 	imul   $0x0,0x73(%r11),%r14
    4000b0fe:	00 
    4000b0ff:	00 36                	add    %dh,(%rsi)
    4000b101:	01 00                	add    %eax,(%rax)
    4000b103:	00 80 00 00 00 00    	add    %al,0x0(%rax)
    4000b109:	10 00                	adc    %al,(%rax)
    4000b10b:	00 00                	add    %al,(%rax)
    4000b10d:	00 00                	add    %al,(%rax)
    4000b10f:	00 01                	add    %al,(%rcx)
    4000b111:	00 00                	add    %al,(%rax)
    4000b113:	00 00                	add    %al,(%rax)
    4000b115:	00 00                	add    %al,(%rax)
    4000b117:	00 28                	add    %ch,(%rax)
    4000b119:	00 00                	add    %al,(%rax)
    4000b11b:	00 4f 00             	add    %cl,0x0(%rdi)
    4000b11e:	00 00                	add    %al,(%rax)
    4000b120:	43 6f                	rex.XB outsl %ds:(%rsi),(%dx)
    4000b122:	64 65 4d 69 73 73 00 	fs imul $0x0,%gs:0x73(%r11),%r14
    4000b129:	00 00 00 
    4000b12c:	37                   	(bad)  
    4000b12d:	01 00                	add    %eax,(%rax)
    4000b12f:	00 80 00 00 00 00    	add    %al,0x0(%rax)
    4000b135:	10 00                	adc    %al,(%rax)
    4000b137:	00 00                	add    %al,(%rax)
    4000b139:	00 00                	add    %al,(%rax)
    4000b13b:	00 01                	add    %al,(%rcx)
    4000b13d:	00 00                	add    %al,(%rax)
    4000b13f:	00 00                	add    %al,(%rax)
    4000b141:	00 00                	add    %al,(%rax)
    4000b143:	00 29                	add    %ch,(%rcx)
    4000b145:	00 00                	add    %al,(%rax)
    4000b147:	00 4f 00             	add    %cl,0x0(%rdi)
    4000b14a:	00 00                	add    %al,(%rax)
    4000b14c:	4c 31 44 20 4d       	xor    %r8,0x4d(%rax,%riz,1)
    4000b151:	69 73 73 00 00 00 00 	imul   $0x0,0x73(%rbx),%esi
    4000b158:	40 01 00             	rex add %eax,(%rax)
    4000b15b:	00 80 00 00 00 00    	add    %al,0x0(%rax)
    4000b161:	10 00                	adc    %al,(%rax)
    4000b163:	00 00                	add    %al,(%rax)
    4000b165:	00 00                	add    %al,(%rax)
    4000b167:	00 01                	add    %al,(%rcx)
    4000b169:	00 00                	add    %al,(%rax)
    4000b16b:	00 00                	add    %al,(%rax)
    4000b16d:	00 00                	add    %al,(%rax)
    4000b16f:	00 24 00             	add    %ah,(%rax,%rax,1)
    4000b172:	00 00                	add    %al,(%rax)
    4000b174:	00 00                	add    %al,(%rax)
    4000b176:	00 00                	add    %al,(%rax)
    4000b178:	4c 32 20             	rex.WR xor (%rax),%r12b
    4000b17b:	4d 69 73 73 00 00 00 	imul   $0x0,0x73(%r11),%r14
    4000b182:	00 
    4000b183:	00 f5                	add    %dh,%ch
    4000b185:	01 00                	add    %eax,(%rax)
    4000b187:	00 80 00 00 00 00    	add    %al,0x0(%rax)
    4000b18d:	10 00                	adc    %al,(%rax)
    4000b18f:	00 00                	add    %al,(%rax)
    4000b191:	00 00                	add    %al,(%rax)
    4000b193:	00 01                	add    %al,(%rcx)
    4000b195:	00 00                	add    %al,(%rax)
    4000b197:	00 00                	add    %al,(%rax)
    4000b199:	00 00                	add    %al,(%rax)
    4000b19b:	00 c0                	add    %al,%al
    4000b19d:	00 00                	add    %al,(%rax)
    4000b19f:	00 00                	add    %al,(%rax)
    4000b1a1:	00 00                	add    %al,(%rax)
    4000b1a3:	00 69 6e             	add    %ch,0x6e(%rcx)
    4000b1a6:	73 74                	jae    4000b21c <CounterDefinitions+0x313c>
    4000b1a8:	20 72 65             	and    %dh,0x65(%rdx)
    4000b1ab:	00 00                	add    %al,(%rax)
    4000b1ad:	00 00                	add    %al,(%rax)
    4000b1af:	00 f9                	add    %bh,%cl
    4000b1b1:	01 00                	add    %eax,(%rax)
    4000b1b3:	00 80 00 00 00 00    	add    %al,0x0(%rax)
    4000b1b9:	10 00                	adc    %al,(%rax)
    4000b1bb:	00 00                	add    %al,(%rax)
    4000b1bd:	00 00                	add    %al,(%rax)
    4000b1bf:	00 01                	add    %al,(%rcx)
    4000b1c1:	00 00                	add    %al,(%rax)
    4000b1c3:	00 00                	add    %al,(%rax)
    4000b1c5:	00 00                	add    %al,(%rax)
    4000b1c7:	00 aa 00 00 00 02    	add    %ch,0x2000000(%rdx)
    4000b1cd:	00 00                	add    %al,(%rax)
    4000b1cf:	00 43 49             	add    %al,0x49(%rbx)
    4000b1d2:	53                   	push   %rbx
    4000b1d3:	43 00 00             	rex.XB add %al,(%r8)
    4000b1d6:	00 00                	add    %al,(%rax)
    4000b1d8:	00 00                	add    %al,(%rax)
    4000b1da:	00 00                	add    %al,(%rax)
    4000b1dc:	fa                   	cli    
    4000b1dd:	01 00                	add    %eax,(%rax)
    4000b1df:	00 80 00 00 00 00    	add    %al,0x0(%rax)
    4000b1e5:	10 00                	adc    %al,(%rax)
    4000b1e7:	00 00                	add    %al,(%rax)
    4000b1e9:	00 00                	add    %al,(%rax)
    4000b1eb:	00 01                	add    %al,(%rcx)
    4000b1ed:	00 00                	add    %al,(%rax)
    4000b1ef:	00 00                	add    %al,(%rax)
    4000b1f1:	00 00                	add    %al,(%rax)
    4000b1f3:	00 aa 00 00 00 03    	add    %ch,0x3000000(%rdx)
    4000b1f9:	00 00                	add    %al,(%rax)
    4000b1fb:	00 64 65 63          	add    %ah,0x63(%rbp,%riz,2)
    4000b1ff:	6f                   	outsl  %ds:(%rsi),(%dx)
    4000b200:	64 65 64 00 00       	fs gs add %al,%fs:(%rax)
    4000b205:	00 00                	add    %al,(%rax)
    4000b207:	00 59 02             	add    %bl,0x2(%rcx)
    4000b20a:	00 00                	add    %al,(%rax)
    4000b20c:	80 00 00             	addb   $0x0,(%rax)
    4000b20f:	00 00                	add    %al,(%rax)
    4000b211:	10 00                	adc    %al,(%rax)
    4000b213:	00 00                	add    %al,(%rax)
    4000b215:	00 00                	add    %al,(%rax)
    4000b217:	00 01                	add    %al,(%rcx)
    4000b219:	00 00                	add    %al,(%rax)
    4000b21b:	00 00                	add    %al,(%rax)
    4000b21d:	00 00                	add    %al,(%rax)
    4000b21f:	00 02                	add    %al,(%rdx)
    4000b221:	00 00                	add    %al,(%rax)
    4000b223:	00 81 00 00 00 73    	add    %al,0x73000000(%rcx)
    4000b229:	74 2e                	je     4000b259 <CounterDefinitions+0x3179>
    4000b22b:	66 6f                	outsw  %ds:(%rsi),(%dx)
    4000b22d:	72 77                	jb     4000b2a6 <CounterDefinitions+0x31c6>
    4000b22f:	00 00                	add    %al,(%rax)
    4000b231:	00 00                	add    %al,(%rax)
    4000b233:	00 80 02 00 00 80    	add    %al,-0x7ffffffe(%rax)
    4000b239:	00 00                	add    %al,(%rax)
    4000b23b:	00 00                	add    %al,(%rax)
    4000b23d:	10 00                	adc    %al,(%rax)
    4000b23f:	00 00                	add    %al,(%rax)
    4000b241:	00 00                	add    %al,(%rax)
    4000b243:	00 01                	add    %al,(%rcx)
    4000b245:	00 00                	add    %al,(%rax)
    4000b247:	00 00                	add    %al,(%rax)
    4000b249:	00 00                	add    %al,(%rax)
    4000b24b:	00 12                	add    %dl,(%rdx)
    4000b24d:	00 00                	add    %al,(%rax)
    4000b24f:	00 81 00 00 00 6d    	add    %al,0x6d000000(%rcx)
    4000b255:	75 6c                	jne    4000b2c3 <CounterDefinitions+0x31e3>
	...
    4000b25f:	00 81 02 00 00 80    	add    %al,-0x7ffffffe(%rcx)
    4000b265:	00 00                	add    %al,(%rax)
    4000b267:	00 00                	add    %al,(%rax)
    4000b269:	10 00                	adc    %al,(%rax)
    4000b26b:	00 00                	add    %al,(%rax)
    4000b26d:	00 00                	add    %al,(%rax)
    4000b26f:	00 01                	add    %al,(%rcx)
    4000b271:	00 00                	add    %al,(%rax)
    4000b273:	00 00                	add    %al,(%rax)
    4000b275:	00 00                	add    %al,(%rax)
    4000b277:	00 13                	add    %dl,(%rbx)
    4000b279:	00 00                	add    %al,(%rax)
    4000b27b:	00 81 00 00 00 64    	add    %al,0x64000000(%rcx)
    4000b281:	69 76 00 00 00 00 00 	imul   $0x0,0x0(%rsi),%esi
    4000b288:	00 00                	add    %al,(%rax)
    4000b28a:	00 00                	add    %al,(%rax)
    4000b28c:	8b 02                	mov    (%rdx),%eax
    4000b28e:	00 00                	add    %al,(%rax)
    4000b290:	80 00 00             	addb   $0x0,(%rax)
    4000b293:	00 00                	add    %al,(%rax)
    4000b295:	10 00                	adc    %al,(%rax)
    4000b297:	00 00                	add    %al,(%rax)
    4000b299:	00 00                	add    %al,(%rax)
    4000b29b:	00 01                	add    %al,(%rcx)
    4000b29d:	00 00                	add    %al,(%rax)
    4000b29f:	00 00                	add    %al,(%rax)
    4000b2a1:	00 00                	add    %al,(%rax)
    4000b2a3:	00 10                	add    %dl,(%rax)
    4000b2a5:	00 00                	add    %al,(%rax)
    4000b2a7:	00 81 00 00 00 66    	add    %al,0x66000000(%rcx)
    4000b2ad:	70 20                	jo     4000b2cf <CounterDefinitions+0x31ef>
    4000b2af:	75 6f                	jne    4000b320 <CounterDefinitions+0x3240>
    4000b2b1:	70 00                	jo     4000b2b3 <CounterDefinitions+0x31d3>
    4000b2b3:	00 00                	add    %al,(%rax)
    4000b2b5:	00 00                	add    %al,(%rax)
    4000b2b7:	00 01                	add    %al,(%rcx)
    4000b2b9:	00 00                	add    %al,(%rax)
    4000b2bb:	00 80 00 00 00 00    	add    %al,0x0(%rax)
    4000b2c1:	20 00                	and    %al,(%rax)
    4000b2c3:	00 01                	add    %al,(%rcx)
    4000b2c5:	00 00                	add    %al,(%rax)
    4000b2c7:	40 00 00             	rex add %al,(%rax)
	...
    4000b2d6:	00 00                	add    %al,(%rax)
    4000b2d8:	43 6f                	rex.XB outsl %ds:(%rsi),(%dx)
    4000b2da:	72 65                	jb     4000b341 <CounterDefinitions+0x3261>
    4000b2dc:	20 63 79             	and    %ah,0x79(%rbx)
    4000b2df:	63 00                	movsxd (%rax),%eax
    4000b2e1:	00 00                	add    %al,(%rax)
    4000b2e3:	00 02                	add    %al,(%rdx)
    4000b2e5:	00 00                	add    %al,(%rax)
    4000b2e7:	00 80 00 00 00 00    	add    %al,0x0(%rax)
    4000b2ed:	20 00                	and    %al,(%rax)
    4000b2ef:	00 02                	add    %al,(%rdx)
    4000b2f1:	00 00                	add    %al,(%rax)
    4000b2f3:	40 00 00             	rex add %al,(%rax)
	...
    4000b302:	00 00                	add    %al,(%rax)
    4000b304:	52                   	push   %rdx
    4000b305:	65 66 20 63 79       	data16 and %ah,%gs:0x79(%rbx)
    4000b30a:	63 00                	movsxd (%rax),%eax
    4000b30c:	00 00                	add    %al,(%rax)
    4000b30e:	00 00                	add    %al,(%rax)
    4000b310:	09 00                	or     %eax,(%rax)
    4000b312:	00 00                	add    %al,(%rax)
    4000b314:	80 00 00             	addb   $0x0,(%rax)
    4000b317:	00 00                	add    %al,(%rax)
    4000b319:	20 00                	and    %al,(%rax)
    4000b31b:	00 00                	add    %al,(%rax)
    4000b31d:	00 00                	add    %al,(%rax)
    4000b31f:	40 00 00             	rex add %al,(%rax)
	...
    4000b32e:	00 00                	add    %al,(%rax)
    4000b330:	49 6e                	rex.WB outsb %ds:(%rsi),(%dx)
    4000b332:	73 74                	jae    4000b3a8 <CounterDefinitions+0x32c8>
    4000b334:	72 75                	jb     4000b3ab <CounterDefinitions+0x32cb>
    4000b336:	63 74 00 00          	movsxd 0x0(%rax,%rax,1),%esi
    4000b33a:	00 00                	add    %al,(%rax)
    4000b33c:	64 00 00             	add    %al,%fs:(%rax)
    4000b33f:	00 80 00 00 00 00    	add    %al,0x0(%rax)
    4000b345:	20 00                	and    %al,(%rax)
    4000b347:	00 00                	add    %al,(%rax)
    4000b349:	00 00                	add    %al,(%rax)
    4000b34b:	00 01                	add    %al,(%rcx)
    4000b34d:	00 00                	add    %al,(%rax)
    4000b34f:	00 00                	add    %al,(%rax)
    4000b351:	00 00                	add    %al,(%rax)
    4000b353:	00 c2                	add    %al,%dl
    4000b355:	00 00                	add    %al,(%rax)
    4000b357:	00 10                	add    %dl,(%rax)
    4000b359:	00 00                	add    %al,(%rax)
    4000b35b:	00 55 6f             	add    %dl,0x6f(%rbp)
    4000b35e:	70 73                	jo     4000b3d3 <CounterDefinitions+0x32f3>
	...
    4000b368:	67 00 00             	add    %al,(%eax)
    4000b36b:	00 80 00 00 00 00    	add    %al,0x0(%rax)
    4000b371:	20 00                	and    %al,(%rax)
    4000b373:	00 00                	add    %al,(%rax)
    4000b375:	00 00                	add    %al,(%rax)
    4000b377:	00 01                	add    %al,(%rcx)
    4000b379:	00 00                	add    %al,(%rax)
    4000b37b:	00 00                	add    %al,(%rax)
    4000b37d:	00 00                	add    %al,(%rax)
    4000b37f:	00 c2                	add    %al,%dl
    4000b381:	00 00                	add    %al,(%rax)
    4000b383:	00 01                	add    %al,(%rcx)
    4000b385:	00 00                	add    %al,(%rax)
    4000b387:	00 55 6f             	add    %dl,0x6f(%rbp)
    4000b38a:	70 20                	jo     4000b3ac <CounterDefinitions+0x32cc>
    4000b38c:	6d                   	insl   (%dx),%es:(%rdi)
    4000b38d:	69 63 72 00 00 00 00 	imul   $0x0,0x72(%rbx),%esp
    4000b394:	6f                   	outsl  %ds:(%rsi),(%dx)
    4000b395:	00 00                	add    %al,(%rax)
    4000b397:	00 80 00 00 00 00    	add    %al,0x0(%rax)
    4000b39d:	20 00                	and    %al,(%rax)
    4000b39f:	00 00                	add    %al,(%rax)
    4000b3a1:	00 00                	add    %al,(%rax)
    4000b3a3:	00 01                	add    %al,(%rcx)
    4000b3a5:	00 00                	add    %al,(%rax)
    4000b3a7:	00 00                	add    %al,(%rax)
    4000b3a9:	00 00                	add    %al,(%rax)
    4000b3ab:	00 c3                	add    %al,%bl
    4000b3ad:	00 00                	add    %al,(%rax)
    4000b3af:	00 08                	add    %cl,(%rax)
    4000b3b1:	00 00                	add    %al,(%rax)
    4000b3b3:	00 73 74             	add    %dh,0x74(%rbx)
    4000b3b6:	61                   	(bad)  
    4000b3b7:	6c                   	insb   (%dx),%es:(%rdi)
    4000b3b8:	6c                   	insb   (%dx),%es:(%rdi)
    4000b3b9:	00 00                	add    %al,(%rax)
    4000b3bb:	00 00                	add    %al,(%rax)
    4000b3bd:	00 00                	add    %al,(%rax)
    4000b3bf:	00 96 00 00 00 80    	add    %dl,-0x80000000(%rsi)
    4000b3c5:	00 00                	add    %al,(%rax)
    4000b3c7:	00 00                	add    %al,(%rax)
    4000b3c9:	20 00                	and    %al,(%rax)
    4000b3cb:	00 00                	add    %al,(%rax)
    4000b3cd:	00 00                	add    %al,(%rax)
    4000b3cf:	00 01                	add    %al,(%rcx)
    4000b3d1:	00 00                	add    %al,(%rax)
    4000b3d3:	00 00                	add    %al,(%rax)
    4000b3d5:	00 00                	add    %al,(%rax)
    4000b3d7:	00 cb                	add    %cl,%bl
    4000b3d9:	00 00                	add    %al,(%rax)
    4000b3db:	00 02                	add    %al,(%rdx)
    4000b3dd:	00 00                	add    %al,(%rax)
    4000b3df:	00 70 30             	add    %dh,0x30(%rax)
    4000b3e2:	69 20 66 75 6c 6c    	imul   $0x6c6c7566,(%rax),%esp
    4000b3e8:	00 00                	add    %al,(%rax)
    4000b3ea:	00 00                	add    %al,(%rax)
    4000b3ec:	97                   	xchg   %eax,%edi
    4000b3ed:	00 00                	add    %al,(%rax)
    4000b3ef:	00 80 00 00 00 00    	add    %al,0x0(%rax)
    4000b3f5:	20 00                	and    %al,(%rax)
    4000b3f7:	00 00                	add    %al,(%rax)
    4000b3f9:	00 00                	add    %al,(%rax)
    4000b3fb:	00 01                	add    %al,(%rcx)
    4000b3fd:	00 00                	add    %al,(%rax)
    4000b3ff:	00 00                	add    %al,(%rax)
    4000b401:	00 00                	add    %al,(%rax)
    4000b403:	00 cb                	add    %cl,%bl
    4000b405:	00 00                	add    %al,(%rax)
    4000b407:	00 04 00             	add    %al,(%rax,%rax,1)
    4000b40a:	00 00                	add    %al,(%rax)
    4000b40c:	70 31                	jo     4000b43f <CounterDefinitions+0x335f>
    4000b40e:	69 20 66 75 6c 6c    	imul   $0x6c6c7566,(%rax),%esp
    4000b414:	00 00                	add    %al,(%rax)
    4000b416:	00 00                	add    %al,(%rax)
    4000b418:	98                   	cwtl   
    4000b419:	00 00                	add    %al,(%rax)
    4000b41b:	00 80 00 00 00 00    	add    %al,0x0(%rax)
    4000b421:	20 00                	and    %al,(%rax)
    4000b423:	00 00                	add    %al,(%rax)
    4000b425:	00 00                	add    %al,(%rax)
    4000b427:	00 01                	add    %al,(%rcx)
    4000b429:	00 00                	add    %al,(%rax)
    4000b42b:	00 00                	add    %al,(%rax)
    4000b42d:	00 00                	add    %al,(%rax)
    4000b42f:	00 cb                	add    %cl,%bl
    4000b431:	00 00                	add    %al,(%rax)
    4000b433:	00 08                	add    %cl,(%rax)
    4000b435:	00 00                	add    %al,(%rax)
    4000b437:	00 70 30             	add    %dh,0x30(%rax)
    4000b43a:	66 20 66 75          	data16 and %ah,0x75(%rsi)
    4000b43e:	6c                   	insb   (%dx),%es:(%rdi)
    4000b43f:	6c                   	insb   (%dx),%es:(%rdi)
    4000b440:	00 00                	add    %al,(%rax)
    4000b442:	00 00                	add    %al,(%rax)
    4000b444:	99                   	cltd   
    4000b445:	00 00                	add    %al,(%rax)
    4000b447:	00 80 00 00 00 00    	add    %al,0x0(%rax)
    4000b44d:	20 00                	and    %al,(%rax)
    4000b44f:	00 00                	add    %al,(%rax)
    4000b451:	00 00                	add    %al,(%rax)
    4000b453:	00 01                	add    %al,(%rcx)
    4000b455:	00 00                	add    %al,(%rax)
    4000b457:	00 00                	add    %al,(%rax)
    4000b459:	00 00                	add    %al,(%rax)
    4000b45b:	00 cb                	add    %cl,%bl
    4000b45d:	00 00                	add    %al,(%rax)
    4000b45f:	00 10                	add    %dl,(%rax)
    4000b461:	00 00                	add    %al,(%rax)
    4000b463:	00 70 31             	add    %dh,0x31(%rax)
    4000b466:	66 20 66 75          	data16 and %ah,0x75(%rsi)
    4000b46a:	6c                   	insb   (%dx),%es:(%rdi)
    4000b46b:	6c                   	insb   (%dx),%es:(%rdi)
    4000b46c:	00 00                	add    %al,(%rax)
    4000b46e:	00 00                	add    %al,(%rax)
    4000b470:	9e                   	sahf   
    4000b471:	00 00                	add    %al,(%rax)
    4000b473:	00 80 00 00 00 00    	add    %al,0x0(%rax)
    4000b479:	20 00                	and    %al,(%rax)
    4000b47b:	00 00                	add    %al,(%rax)
    4000b47d:	00 00                	add    %al,(%rax)
    4000b47f:	00 01                	add    %al,(%rcx)
    4000b481:	00 00                	add    %al,(%rax)
    4000b483:	00 00                	add    %al,(%rax)
    4000b485:	00 00                	add    %al,(%rax)
    4000b487:	00 cb                	add    %cl,%bl
    4000b489:	00 00                	add    %al,(%rax)
    4000b48b:	00 01                	add    %al,(%rcx)
    4000b48d:	00 00                	add    %al,(%rax)
    4000b48f:	00 6d 65             	add    %ch,0x65(%rbp)
    4000b492:	63 20                	movsxd (%rax),%esp
    4000b494:	66 75 6c             	data16 jne 4000b503 <CounterDefinitions+0x3423>
    4000b497:	6c                   	insb   (%dx),%es:(%rdi)
    4000b498:	00 00                	add    %al,(%rax)
    4000b49a:	00 00                	add    %al,(%rax)
    4000b49c:	c9                   	leave  
    4000b49d:	00 00                	add    %al,(%rax)
    4000b49f:	00 80 00 00 00 00    	add    %al,0x0(%rax)
    4000b4a5:	20 00                	and    %al,(%rax)
    4000b4a7:	00 00                	add    %al,(%rax)
    4000b4a9:	00 00                	add    %al,(%rax)
    4000b4ab:	00 01                	add    %al,(%rcx)
    4000b4ad:	00 00                	add    %al,(%rax)
    4000b4af:	00 00                	add    %al,(%rax)
    4000b4b1:	00 00                	add    %al,(%rax)
    4000b4b3:	00 c4                	add    %al,%ah
    4000b4b5:	00 00                	add    %al,(%rax)
    4000b4b7:	00 fe                	add    %bh,%dh
    4000b4b9:	00 00                	add    %al,(%rax)
    4000b4bb:	00 42 72             	add    %al,0x72(%rdx)
    4000b4be:	50                   	push   %rax
    4000b4bf:	72 54                	jb     4000b515 <CounterDefinitions+0x3435>
    4000b4c1:	61                   	(bad)  
    4000b4c2:	6b 00 00             	imul   $0x0,(%rax),%eax
    4000b4c5:	00 00                	add    %al,(%rax)
    4000b4c7:	00 ca                	add    %cl,%dl
    4000b4c9:	00 00                	add    %al,(%rax)
    4000b4cb:	00 80 00 00 00 00    	add    %al,0x0(%rax)
    4000b4d1:	20 00                	and    %al,(%rax)
    4000b4d3:	00 00                	add    %al,(%rax)
    4000b4d5:	00 00                	add    %al,(%rax)
    4000b4d7:	00 01                	add    %al,(%rcx)
    4000b4d9:	00 00                	add    %al,(%rax)
    4000b4db:	00 00                	add    %al,(%rax)
    4000b4dd:	00 00                	add    %al,(%rax)
    4000b4df:	00 c5                	add    %al,%ch
    4000b4e1:	00 00                	add    %al,(%rax)
    4000b4e3:	00 fe                	add    %bh,%dh
    4000b4e5:	00 00                	add    %al,(%rax)
    4000b4e7:	00 42 72             	add    %al,0x72(%rdx)
    4000b4ea:	4d 70 72             	rex.WRB jo 4000b55f <CounterDefinitions+0x347f>
    4000b4ed:	4e 54                	rex.WRX push %rsp
    4000b4ef:	00 00                	add    %al,(%rax)
    4000b4f1:	00 00                	add    %al,(%rax)
    4000b4f3:	00 cf                	add    %cl,%bh
    4000b4f5:	00 00                	add    %al,(%rax)
    4000b4f7:	00 80 00 00 00 00    	add    %al,0x0(%rax)
    4000b4fd:	20 00                	and    %al,(%rax)
    4000b4ff:	00 00                	add    %al,(%rax)
    4000b501:	00 00                	add    %al,(%rax)
    4000b503:	00 01                	add    %al,(%rcx)
    4000b505:	00 00                	add    %al,(%rax)
    4000b507:	00 00                	add    %al,(%rax)
    4000b509:	00 00                	add    %al,(%rax)
    4000b50b:	00 c5                	add    %al,%ch
    4000b50d:	00 00                	add    %al,(%rax)
    4000b50f:	00 00                	add    %al,(%rax)
    4000b511:	00 00                	add    %al,(%rax)
    4000b513:	00 42 72             	add    %al,0x72(%rdx)
    4000b516:	4d 69 73 70 72 65 64 	imul   $0x646572,0x70(%r11),%r14
    4000b51d:	00 
    4000b51e:	00 00                	add    %al,(%rax)
    4000b520:	d1 00                	roll   (%rax)
    4000b522:	00 00                	add    %al,(%rax)
    4000b524:	80 00 00             	addb   $0x0,(%rax)
    4000b527:	00 00                	add    %al,(%rax)
    4000b529:	20 00                	and    %al,(%rax)
    4000b52b:	00 00                	add    %al,(%rax)
    4000b52d:	00 00                	add    %al,(%rax)
    4000b52f:	00 01                	add    %al,(%rcx)
    4000b531:	00 00                	add    %al,(%rax)
    4000b533:	00 00                	add    %al,(%rax)
    4000b535:	00 00                	add    %al,(%rax)
    4000b537:	00 e6                	add    %ah,%dh
    4000b539:	00 00                	add    %al,(%rax)
    4000b53b:	00 01                	add    %al,(%rcx)
    4000b53d:	00 00                	add    %al,(%rax)
    4000b53f:	00 42 41             	add    %al,0x41(%rdx)
    4000b542:	43                   	rex.XB
    4000b543:	4c                   	rex.WR
    4000b544:	45                   	rex.RB
    4000b545:	41 52                	push   %r10
    4000b547:	00 00                	add    %al,(%rax)
    4000b549:	00 00                	add    %al,(%rax)
    4000b54b:	00 36                	add    %dh,(%rsi)
    4000b54d:	01 00                	add    %eax,(%rax)
    4000b54f:	00 40 00             	add    %al,0x0(%rax)
    4000b552:	00 00                	add    %al,(%rax)
    4000b554:	00 20                	add    %ah,(%rax)
    4000b556:	00 00                	add    %al,(%rax)
    4000b558:	00 00                	add    %al,(%rax)
    4000b55a:	00 00                	add    %al,(%rax)
    4000b55c:	01 00                	add    %eax,(%rax)
    4000b55e:	00 00                	add    %al,(%rax)
    4000b560:	00 00                	add    %al,(%rax)
    4000b562:	00 00                	add    %al,(%rax)
    4000b564:	80 00 00             	addb   $0x0,(%rax)
    4000b567:	00 02                	add    %al,(%rdx)
    4000b569:	00 00                	add    %al,(%rax)
    4000b56b:	00 43 6f             	add    %al,0x6f(%rbx)
    4000b56e:	64 65 4d 69 73 73 00 	fs imul $0x0,%gs:0x73(%r11),%r14
    4000b575:	00 00 00 
    4000b578:	37                   	(bad)  
    4000b579:	01 00                	add    %eax,(%rax)
    4000b57b:	00 80 00 00 00 00    	add    %al,0x0(%rax)
    4000b581:	20 00                	and    %al,(%rax)
    4000b583:	00 00                	add    %al,(%rax)
    4000b585:	00 00                	add    %al,(%rax)
    4000b587:	00 01                	add    %al,(%rcx)
    4000b589:	00 00                	add    %al,(%rax)
    4000b58b:	00 00                	add    %al,(%rax)
    4000b58d:	00 00                	add    %al,(%rax)
    4000b58f:	00 04 00             	add    %al,(%rax,%rax,1)
    4000b592:	00 00                	add    %al,(%rax)
    4000b594:	01 00                	add    %eax,(%rax)
    4000b596:	00 00                	add    %al,(%rax)
    4000b598:	4c 31 44 20 4c       	xor    %r8,0x4c(%rax,%riz,1)
    4000b59d:	4d 69 73 00 00 00 00 	imul   $0x40000000,0x0(%r11),%r14
    4000b5a4:	40 
    4000b5a5:	01 00                	add    %eax,(%rax)
    4000b5a7:	00 80 00 00 00 00    	add    %al,0x0(%rax)
    4000b5ad:	20 00                	and    %al,(%rax)
    4000b5af:	00 00                	add    %al,(%rax)
    4000b5b1:	00 00                	add    %al,(%rax)
    4000b5b3:	00 01                	add    %al,(%rcx)
    4000b5b5:	00 00                	add    %al,(%rax)
    4000b5b7:	00 00                	add    %al,(%rax)
    4000b5b9:	00 00                	add    %al,(%rax)
    4000b5bb:	00 2e                	add    %ch,(%rsi)
    4000b5bd:	00 00                	add    %al,(%rax)
    4000b5bf:	00 41 00             	add    %al,0x0(%rcx)
    4000b5c2:	00 00                	add    %al,(%rax)
    4000b5c4:	4c 32 20             	rex.WR xor (%rax),%r12b
    4000b5c7:	4d 69 73 73 00 00 00 	imul   $0x0,0x73(%r11),%r14
    4000b5ce:	00 
    4000b5cf:	00 01                	add    %al,(%rcx)
    4000b5d1:	00 00                	add    %al,(%rax)
    4000b5d3:	00 00                	add    %al,(%rax)
    4000b5d5:	01 00                	add    %eax,(%rax)
    4000b5d7:	00 00                	add    %al,(%rax)
    4000b5d9:	40 00 00             	rex add %al,(%rax)
    4000b5dc:	01 00                	add    %eax,(%rax)
    4000b5de:	00 40 00             	add    %al,0x0(%rax)
	...
    4000b5ed:	00 00                	add    %al,(%rax)
    4000b5ef:	00 43 6f             	add    %al,0x6f(%rbx)
    4000b5f2:	72 65                	jb     4000b659 <CounterDefinitions+0x3579>
    4000b5f4:	20 63 79             	and    %ah,0x79(%rbx)
    4000b5f7:	63 00                	movsxd (%rax),%eax
    4000b5f9:	00 00                	add    %al,(%rax)
    4000b5fb:	00 02                	add    %al,(%rdx)
    4000b5fd:	00 00                	add    %al,(%rax)
    4000b5ff:	00 00                	add    %al,(%rax)
    4000b601:	01 00                	add    %eax,(%rax)
    4000b603:	00 00                	add    %al,(%rax)
    4000b605:	40 00 00             	rex add %al,(%rax)
    4000b608:	02 00                	add    (%rax),%al
    4000b60a:	00 40 00             	add    %al,0x0(%rax)
	...
    4000b619:	00 00                	add    %al,(%rax)
    4000b61b:	00 52 65             	add    %dl,0x65(%rdx)
    4000b61e:	66 20 63 79          	data16 and %ah,0x79(%rbx)
    4000b622:	63 00                	movsxd (%rax),%eax
    4000b624:	00 00                	add    %al,(%rax)
    4000b626:	00 00                	add    %al,(%rax)
    4000b628:	09 00                	or     %eax,(%rax)
    4000b62a:	00 00                	add    %al,(%rax)
    4000b62c:	00 01                	add    %al,(%rcx)
    4000b62e:	00 00                	add    %al,(%rax)
    4000b630:	00 40 00             	add    %al,0x0(%rax)
    4000b633:	00 00                	add    %al,(%rax)
    4000b635:	00 00                	add    %al,(%rax)
    4000b637:	40 00 00             	rex add %al,(%rax)
	...
    4000b646:	00 00                	add    %al,(%rax)
    4000b648:	49 6e                	rex.WB outsb %ds:(%rsi),(%dx)
    4000b64a:	73 74                	jae    4000b6c0 <CounterDefinitions+0x35e0>
    4000b64c:	72 75                	jb     4000b6c3 <CounterDefinitions+0x35e3>
    4000b64e:	63 74 00 00          	movsxd 0x0(%rax,%rax,1),%esi
    4000b652:	00 00                	add    %al,(%rax)
    4000b654:	0a 00                	or     (%rax),%al
    4000b656:	00 00                	add    %al,(%rax)
    4000b658:	00 01                	add    %al,(%rcx)
    4000b65a:	00 00                	add    %al,(%rax)
    4000b65c:	00 40 00             	add    %al,0x0(%rax)
    4000b65f:	00 00                	add    %al,(%rax)
    4000b661:	00 00                	add    %al,(%rax)
    4000b663:	00 03                	add    %al,(%rbx)
    4000b665:	00 00                	add    %al,(%rax)
    4000b667:	00 00                	add    %al,(%rax)
    4000b669:	00 00                	add    %al,(%rax)
    4000b66b:	00 c0                	add    %al,%al
    4000b66d:	00 00                	add    %al,(%rax)
    4000b66f:	00 00                	add    %al,(%rax)
    4000b671:	00 00                	add    %al,(%rax)
    4000b673:	00 49 6e             	add    %cl,0x6e(%rcx)
    4000b676:	73 74                	jae    4000b6ec <CounterDefinitions+0x360c>
    4000b678:	72 75                	jb     4000b6ef <CounterDefinitions+0x360f>
    4000b67a:	63 74 00 00          	movsxd 0x0(%rax,%rax,1),%esi
    4000b67e:	00 00                	add    %al,(%rax)
    4000b680:	64 00 00             	add    %al,%fs:(%rax)
    4000b683:	00 00                	add    %al,(%rax)
    4000b685:	01 00                	add    %eax,(%rax)
    4000b687:	00 00                	add    %al,(%rax)
    4000b689:	40 00 00             	rex add %al,(%rax)
    4000b68c:	00 00                	add    %al,(%rax)
    4000b68e:	00 00                	add    %al,(%rax)
    4000b690:	03 00                	add    (%rax),%eax
    4000b692:	00 00                	add    %al,(%rax)
    4000b694:	00 00                	add    %al,(%rax)
    4000b696:	00 00                	add    %al,(%rax)
    4000b698:	c2 00 00             	ret    $0x0
    4000b69b:	00 00                	add    %al,(%rax)
    4000b69d:	00 00                	add    %al,(%rax)
    4000b69f:	00 55 6f             	add    %dl,0x6f(%rbp)
    4000b6a2:	70 73                	jo     4000b717 <CounterDefinitions+0x3637>
	...
    4000b6ac:	65 00 00             	add    %al,%gs:(%rax)
    4000b6af:	00 00                	add    %al,(%rax)
    4000b6b1:	01 00                	add    %eax,(%rax)
    4000b6b3:	00 00                	add    %al,(%rax)
    4000b6b5:	40 00 00             	rex add %al,(%rax)
    4000b6b8:	00 00                	add    %al,(%rax)
    4000b6ba:	00 00                	add    %al,(%rax)
    4000b6bc:	03 00                	add    (%rax),%eax
    4000b6be:	00 00                	add    %al,(%rax)
    4000b6c0:	00 00                	add    %al,(%rax)
    4000b6c2:	00 00                	add    %al,(%rax)
    4000b6c4:	0e                   	(bad)  
    4000b6c5:	00 00                	add    %al,(%rax)
    4000b6c7:	00 00                	add    %al,(%rax)
    4000b6c9:	00 00                	add    %al,(%rax)
    4000b6cb:	00 55 6f             	add    %dl,0x6f(%rbp)
    4000b6ce:	70 73                	jo     4000b743 <CounterDefinitions+0x3663>
    4000b6d0:	20 69 00             	and    %ch,0x0(%rcx)
    4000b6d3:	00 00                	add    %al,(%rax)
    4000b6d5:	00 00                	add    %al,(%rax)
    4000b6d7:	00 c9                	add    %cl,%cl
    4000b6d9:	00 00                	add    %al,(%rax)
    4000b6db:	00 00                	add    %al,(%rax)
    4000b6dd:	01 00                	add    %eax,(%rax)
    4000b6df:	00 00                	add    %al,(%rax)
    4000b6e1:	40 00 00             	rex add %al,(%rax)
    4000b6e4:	00 00                	add    %al,(%rax)
    4000b6e6:	00 00                	add    %al,(%rax)
    4000b6e8:	03 00                	add    (%rax),%eax
    4000b6ea:	00 00                	add    %al,(%rax)
    4000b6ec:	00 00                	add    %al,(%rax)
    4000b6ee:	00 00                	add    %al,(%rax)
    4000b6f0:	c4                   	(bad)  
    4000b6f1:	00 00                	add    %al,(%rax)
    4000b6f3:	00 80 00 00 00 42    	add    %al,0x42000000(%rax)
    4000b6f9:	72 54                	jb     4000b74f <CounterDefinitions+0x366f>
    4000b6fb:	61                   	(bad)  
    4000b6fc:	6b 65 6e 00          	imul   $0x0,0x6e(%rbp),%esp
    4000b700:	00 00                	add    %al,(%rax)
    4000b702:	00 00                	add    %al,(%rax)
    4000b704:	cf                   	iret   
    4000b705:	00 00                	add    %al,(%rax)
    4000b707:	00 00                	add    %al,(%rax)
    4000b709:	01 00                	add    %eax,(%rax)
    4000b70b:	00 00                	add    %al,(%rax)
    4000b70d:	40 00 00             	rex add %al,(%rax)
    4000b710:	00 00                	add    %al,(%rax)
    4000b712:	00 00                	add    %al,(%rax)
    4000b714:	03 00                	add    (%rax),%eax
    4000b716:	00 00                	add    %al,(%rax)
    4000b718:	00 00                	add    %al,(%rax)
    4000b71a:	00 00                	add    %al,(%rax)
    4000b71c:	c5 00 00             	(bad)
    4000b71f:	00 7e 00             	add    %bh,0x0(%rsi)
    4000b722:	00 00                	add    %al,(%rax)
    4000b724:	42 72 4d             	rex.X jb 4000b774 <CounterDefinitions+0x3694>
    4000b727:	69 73 70 72 65 64 00 	imul   $0x646572,0x70(%rbx),%esi
    4000b72e:	00 00                	add    %al,(%rax)
    4000b730:	d0 00                	rolb   (%rax)
    4000b732:	00 00                	add    %al,(%rax)
    4000b734:	00 01                	add    %al,(%rcx)
    4000b736:	00 00                	add    %al,(%rax)
    4000b738:	00 40 00             	add    %al,0x0(%rax)
    4000b73b:	00 00                	add    %al,(%rax)
    4000b73d:	00 00                	add    %al,(%rax)
    4000b73f:	00 03                	add    %al,(%rbx)
    4000b741:	00 00                	add    %al,(%rax)
    4000b743:	00 00                	add    %al,(%rax)
    4000b745:	00 00                	add    %al,(%rax)
    4000b747:	00 c5                	add    %al,%ch
    4000b749:	00 00                	add    %al,(%rax)
    4000b74b:	00 f7                	add    %dh,%bh
    4000b74d:	00 00                	add    %al,(%rax)
    4000b74f:	00 52 65             	add    %dl,0x65(%rdx)
    4000b752:	74 4d                	je     4000b7a1 <CounterDefinitions+0x36c1>
    4000b754:	69 73 70 72 00 00 00 	imul   $0x72,0x70(%rbx),%esi
    4000b75b:	00 37                	add    %dh,(%rdi)
    4000b75d:	01 00                	add    %eax,(%rax)
    4000b75f:	00 00                	add    %al,(%rax)
    4000b761:	01 00                	add    %eax,(%rax)
    4000b763:	00 00                	add    %al,(%rax)
    4000b765:	40 00 00             	rex add %al,(%rax)
    4000b768:	00 00                	add    %al,(%rax)
    4000b76a:	00 00                	add    %al,(%rax)
    4000b76c:	03 00                	add    (%rax),%eax
    4000b76e:	00 00                	add    %al,(%rax)
    4000b770:	00 00                	add    %al,(%rax)
    4000b772:	00 00                	add    %al,(%rax)
    4000b774:	d1 00                	roll   (%rax)
    4000b776:	00 00                	add    %al,(%rax)
    4000b778:	08 00                	or     %al,(%rax)
    4000b77a:	00 00                	add    %al,(%rax)
    4000b77c:	4c 31 44 20 4c       	xor    %r8,0x4c(%rax,%riz,1)
    4000b781:	4d 69 73 00 00 00 00 	imul   $0x40000000,0x0(%r11),%r14
    4000b788:	40 
    4000b789:	01 00                	add    %eax,(%rax)
    4000b78b:	00 00                	add    %al,(%rax)
    4000b78d:	01 00                	add    %eax,(%rax)
    4000b78f:	00 00                	add    %al,(%rax)
    4000b791:	40 00 00             	rex add %al,(%rax)
    4000b794:	00 00                	add    %al,(%rax)
    4000b796:	00 00                	add    %al,(%rax)
    4000b798:	03 00                	add    (%rax),%eax
    4000b79a:	00 00                	add    %al,(%rax)
    4000b79c:	00 00                	add    %al,(%rax)
    4000b79e:	00 00                	add    %al,(%rax)
    4000b7a0:	d1 00                	roll   (%rax)
    4000b7a2:	00 00                	add    %al,(%rax)
    4000b7a4:	10 00                	adc    %al,(%rax)
    4000b7a6:	00 00                	add    %al,(%rax)
    4000b7a8:	4c 32 20             	rex.WR xor (%rax),%r12b
    4000b7ab:	4d 69 73 73 00 00 00 	imul   $0x0,0x73(%r11),%r14
    4000b7b2:	00 
    4000b7b3:	00 01                	add    %al,(%rcx)
    4000b7b5:	00 00                	add    %al,(%rax)
    4000b7b7:	00 80 00 00 00 00    	add    %al,0x0(%rax)
    4000b7bd:	80 00 00             	addb   $0x0,(%rax)
    4000b7c0:	01 00                	add    %eax,(%rax)
    4000b7c2:	00 40 00             	add    %al,0x0(%rax)
	...
    4000b7d1:	00 00                	add    %al,(%rax)
    4000b7d3:	00 43 6f             	add    %al,0x6f(%rbx)
    4000b7d6:	72 65                	jb     4000b83d <CounterDefinitions+0x375d>
    4000b7d8:	20 63 79             	and    %ah,0x79(%rbx)
    4000b7db:	63 00                	movsxd (%rax),%eax
    4000b7dd:	00 00                	add    %al,(%rax)
    4000b7df:	00 02                	add    %al,(%rdx)
    4000b7e1:	00 00                	add    %al,(%rax)
    4000b7e3:	00 80 00 00 00 00    	add    %al,0x0(%rax)
    4000b7e9:	80 00 00             	addb   $0x0,(%rax)
    4000b7ec:	02 00                	add    (%rax),%al
    4000b7ee:	00 40 00             	add    %al,0x0(%rax)
	...
    4000b7fd:	00 00                	add    %al,(%rax)
    4000b7ff:	00 52 65             	add    %dl,0x65(%rdx)
    4000b802:	66 20 63 79          	data16 and %ah,0x79(%rbx)
    4000b806:	63 00                	movsxd (%rax),%eax
    4000b808:	00 00                	add    %al,(%rax)
    4000b80a:	00 00                	add    %al,(%rax)
    4000b80c:	09 00                	or     %eax,(%rax)
    4000b80e:	00 00                	add    %al,(%rax)
    4000b810:	80 00 00             	addb   $0x0,(%rax)
    4000b813:	00 00                	add    %al,(%rax)
    4000b815:	80 00 00             	addb   $0x0,(%rax)
    4000b818:	00 00                	add    %al,(%rax)
    4000b81a:	00 40 00             	add    %al,0x0(%rax)
	...
    4000b829:	00 00                	add    %al,(%rax)
    4000b82b:	00 49 6e             	add    %cl,0x6e(%rcx)
    4000b82e:	73 74                	jae    4000b8a4 <CounterDefinitions+0x37c4>
    4000b830:	72 75                	jb     4000b8a7 <CounterDefinitions+0x37c7>
    4000b832:	63 74 00 00          	movsxd 0x0(%rax,%rax,1),%esi
    4000b836:	00 00                	add    %al,(%rax)
    4000b838:	64 00 00             	add    %al,%fs:(%rax)
    4000b83b:	00 80 00 00 00 00    	add    %al,0x0(%rax)
    4000b841:	80 00 00             	addb   $0x0,(%rax)
    4000b844:	00 00                	add    %al,(%rax)
    4000b846:	00 00                	add    %al,(%rax)
    4000b848:	01 00                	add    %eax,(%rax)
    4000b84a:	00 00                	add    %al,(%rax)
    4000b84c:	00 00                	add    %al,(%rax)
    4000b84e:	00 00                	add    %al,(%rax)
    4000b850:	c2 00 00             	ret    $0x0
    4000b853:	00 10                	add    %dl,(%rax)
    4000b855:	00 00                	add    %al,(%rax)
    4000b857:	00 55 6f             	add    %dl,0x6f(%rbp)
    4000b85a:	70 73                	jo     4000b8cf <CounterDefinitions+0x37ef>
	...
    4000b864:	67 00 00             	add    %al,(%eax)
    4000b867:	00 80 00 00 00 00    	add    %al,0x0(%rax)
    4000b86d:	80 00 00             	addb   $0x0,(%rax)
    4000b870:	00 00                	add    %al,(%rax)
    4000b872:	00 00                	add    %al,(%rax)
    4000b874:	01 00                	add    %eax,(%rax)
    4000b876:	00 00                	add    %al,(%rax)
    4000b878:	00 00                	add    %al,(%rax)
    4000b87a:	00 00                	add    %al,(%rax)
    4000b87c:	c2 00 00             	ret    $0x0
    4000b87f:	00 01                	add    %al,(%rcx)
    4000b881:	00 00                	add    %al,(%rax)
    4000b883:	00 55 6f             	add    %dl,0x6f(%rbp)
    4000b886:	70 20                	jo     4000b8a8 <CounterDefinitions+0x37c8>
    4000b888:	6d                   	insl   (%dx),%es:(%rdi)
    4000b889:	69 63 72 00 00 00 00 	imul   $0x0,0x72(%rbx),%esp
    4000b890:	69 00 00 00 80 00    	imul   $0x800000,(%rax),%eax
    4000b896:	00 00                	add    %al,(%rax)
    4000b898:	00 80 00 00 00 00    	add    %al,0x0(%rax)
    4000b89e:	00 00                	add    %al,(%rax)
    4000b8a0:	01 00                	add    %eax,(%rax)
    4000b8a2:	00 00                	add    %al,(%rax)
    4000b8a4:	00 00                	add    %al,(%rax)
    4000b8a6:	00 00                	add    %al,(%rax)
    4000b8a8:	c2 00 00             	ret    $0x0
    4000b8ab:	00 20                	add    %ah,(%rax)
    4000b8ad:	00 00                	add    %al,(%rax)
    4000b8af:	00 55 6f             	add    %dl,0x6f(%rbp)
    4000b8b2:	70 53                	jo     4000b907 <CounterDefinitions+0x3827>
    4000b8b4:	63 61 6c             	movsxd 0x6c(%rcx),%esp
    4000b8b7:	61                   	(bad)  
    4000b8b8:	72 00                	jb     4000b8ba <CounterDefinitions+0x37da>
    4000b8ba:	00 00                	add    %al,(%rax)
    4000b8bc:	6a 00                	push   $0x0
    4000b8be:	00 00                	add    %al,(%rax)
    4000b8c0:	80 00 00             	addb   $0x0,(%rax)
    4000b8c3:	00 00                	add    %al,(%rax)
    4000b8c5:	80 00 00             	addb   $0x0,(%rax)
    4000b8c8:	00 00                	add    %al,(%rax)
    4000b8ca:	00 00                	add    %al,(%rax)
    4000b8cc:	01 00                	add    %eax,(%rax)
    4000b8ce:	00 00                	add    %al,(%rax)
    4000b8d0:	00 00                	add    %al,(%rax)
    4000b8d2:	00 00                	add    %al,(%rax)
    4000b8d4:	c2 00 00             	ret    $0x0
    4000b8d7:	00 20                	add    %ah,(%rax)
    4000b8d9:	00 00                	add    %al,(%rax)
    4000b8db:	00 55 6f             	add    %dl,0x6f(%rbp)
    4000b8de:	70 56                	jo     4000b936 <CounterDefinitions+0x3856>
    4000b8e0:	65 63 74 6f 72       	movsxd %gs:0x72(%rdi,%rbp,2),%esi
    4000b8e5:	00 00                	add    %al,(%rax)
    4000b8e7:	00 6f 00             	add    %ch,0x0(%rdi)
    4000b8ea:	00 00                	add    %al,(%rax)
    4000b8ec:	80 00 00             	addb   $0x0,(%rax)
    4000b8ef:	00 00                	add    %al,(%rax)
    4000b8f1:	80 00 00             	addb   $0x0,(%rax)
    4000b8f4:	00 00                	add    %al,(%rax)
    4000b8f6:	00 00                	add    %al,(%rax)
    4000b8f8:	01 00                	add    %eax,(%rax)
    4000b8fa:	00 00                	add    %al,(%rax)
    4000b8fc:	00 00                	add    %al,(%rax)
    4000b8fe:	00 00                	add    %al,(%rax)
    4000b900:	c3                   	ret    
    4000b901:	00 00                	add    %al,(%rax)
    4000b903:	00 08                	add    %cl,(%rax)
    4000b905:	00 00                	add    %al,(%rax)
    4000b907:	00 73 74             	add    %dh,0x74(%rbx)
    4000b90a:	61                   	(bad)  
    4000b90b:	6c                   	insb   (%dx),%es:(%rdi)
    4000b90c:	6c                   	insb   (%dx),%es:(%rdi)
    4000b90d:	00 00                	add    %al,(%rax)
    4000b90f:	00 00                	add    %al,(%rax)
    4000b911:	00 00                	add    %al,(%rax)
    4000b913:	00 96 00 00 00 80    	add    %dl,-0x80000000(%rsi)
    4000b919:	00 00                	add    %al,(%rax)
    4000b91b:	00 00                	add    %al,(%rax)
    4000b91d:	80 00 00             	addb   $0x0,(%rax)
    4000b920:	00 00                	add    %al,(%rax)
    4000b922:	00 00                	add    %al,(%rax)
    4000b924:	01 00                	add    %eax,(%rax)
    4000b926:	00 00                	add    %al,(%rax)
    4000b928:	00 00                	add    %al,(%rax)
    4000b92a:	00 00                	add    %al,(%rax)
    4000b92c:	cb                   	lret   
    4000b92d:	00 00                	add    %al,(%rax)
    4000b92f:	00 02                	add    %al,(%rdx)
    4000b931:	00 00                	add    %al,(%rax)
    4000b933:	00 70 30             	add    %dh,0x30(%rax)
    4000b936:	69 20 66 75 6c 6c    	imul   $0x6c6c7566,(%rax),%esp
    4000b93c:	00 00                	add    %al,(%rax)
    4000b93e:	00 00                	add    %al,(%rax)
    4000b940:	97                   	xchg   %eax,%edi
    4000b941:	00 00                	add    %al,(%rax)
    4000b943:	00 80 00 00 00 00    	add    %al,0x0(%rax)
    4000b949:	80 00 00             	addb   $0x0,(%rax)
    4000b94c:	00 00                	add    %al,(%rax)
    4000b94e:	00 00                	add    %al,(%rax)
    4000b950:	01 00                	add    %eax,(%rax)
    4000b952:	00 00                	add    %al,(%rax)
    4000b954:	00 00                	add    %al,(%rax)
    4000b956:	00 00                	add    %al,(%rax)
    4000b958:	cb                   	lret   
    4000b959:	00 00                	add    %al,(%rax)
    4000b95b:	00 04 00             	add    %al,(%rax,%rax,1)
    4000b95e:	00 00                	add    %al,(%rax)
    4000b960:	70 31                	jo     4000b993 <CounterDefinitions+0x38b3>
    4000b962:	69 20 66 75 6c 6c    	imul   $0x6c6c7566,(%rax),%esp
    4000b968:	00 00                	add    %al,(%rax)
    4000b96a:	00 00                	add    %al,(%rax)
    4000b96c:	98                   	cwtl   
    4000b96d:	00 00                	add    %al,(%rax)
    4000b96f:	00 80 00 00 00 00    	add    %al,0x0(%rax)
    4000b975:	80 00 00             	addb   $0x0,(%rax)
    4000b978:	00 00                	add    %al,(%rax)
    4000b97a:	00 00                	add    %al,(%rax)
    4000b97c:	01 00                	add    %eax,(%rax)
    4000b97e:	00 00                	add    %al,(%rax)
    4000b980:	00 00                	add    %al,(%rax)
    4000b982:	00 00                	add    %al,(%rax)
    4000b984:	cb                   	lret   
    4000b985:	00 00                	add    %al,(%rax)
    4000b987:	00 08                	add    %cl,(%rax)
    4000b989:	00 00                	add    %al,(%rax)
    4000b98b:	00 70 30             	add    %dh,0x30(%rax)
    4000b98e:	66 20 66 75          	data16 and %ah,0x75(%rsi)
    4000b992:	6c                   	insb   (%dx),%es:(%rdi)
    4000b993:	6c                   	insb   (%dx),%es:(%rdi)
    4000b994:	00 00                	add    %al,(%rax)
    4000b996:	00 00                	add    %al,(%rax)
    4000b998:	99                   	cltd   
    4000b999:	00 00                	add    %al,(%rax)
    4000b99b:	00 80 00 00 00 00    	add    %al,0x0(%rax)
    4000b9a1:	80 00 00             	addb   $0x0,(%rax)
    4000b9a4:	00 00                	add    %al,(%rax)
    4000b9a6:	00 00                	add    %al,(%rax)
    4000b9a8:	01 00                	add    %eax,(%rax)
    4000b9aa:	00 00                	add    %al,(%rax)
    4000b9ac:	00 00                	add    %al,(%rax)
    4000b9ae:	00 00                	add    %al,(%rax)
    4000b9b0:	cb                   	lret   
    4000b9b1:	00 00                	add    %al,(%rax)
    4000b9b3:	00 10                	add    %dl,(%rax)
    4000b9b5:	00 00                	add    %al,(%rax)
    4000b9b7:	00 70 31             	add    %dh,0x31(%rax)
    4000b9ba:	66 20 66 75          	data16 and %ah,0x75(%rsi)
    4000b9be:	6c                   	insb   (%dx),%es:(%rdi)
    4000b9bf:	6c                   	insb   (%dx),%es:(%rdi)
    4000b9c0:	00 00                	add    %al,(%rax)
    4000b9c2:	00 00                	add    %al,(%rax)
    4000b9c4:	9e                   	sahf   
    4000b9c5:	00 00                	add    %al,(%rax)
    4000b9c7:	00 80 00 00 00 00    	add    %al,0x0(%rax)
    4000b9cd:	80 00 00             	addb   $0x0,(%rax)
    4000b9d0:	00 00                	add    %al,(%rax)
    4000b9d2:	00 00                	add    %al,(%rax)
    4000b9d4:	01 00                	add    %eax,(%rax)
    4000b9d6:	00 00                	add    %al,(%rax)
    4000b9d8:	00 00                	add    %al,(%rax)
    4000b9da:	00 00                	add    %al,(%rax)
    4000b9dc:	cb                   	lret   
    4000b9dd:	00 00                	add    %al,(%rax)
    4000b9df:	00 01                	add    %al,(%rcx)
    4000b9e1:	00 00                	add    %al,(%rax)
    4000b9e3:	00 6d 65             	add    %ch,0x65(%rbp)
    4000b9e6:	63 20                	movsxd (%rax),%esp
    4000b9e8:	66 75 6c             	data16 jne 4000ba57 <CounterDefinitions+0x3977>
    4000b9eb:	6c                   	insb   (%dx),%es:(%rdi)
    4000b9ec:	00 00                	add    %al,(%rax)
    4000b9ee:	00 00                	add    %al,(%rax)
    4000b9f0:	c9                   	leave  
    4000b9f1:	00 00                	add    %al,(%rax)
    4000b9f3:	00 80 00 00 00 00    	add    %al,0x0(%rax)
    4000b9f9:	80 00 00             	addb   $0x0,(%rax)
    4000b9fc:	00 00                	add    %al,(%rax)
    4000b9fe:	00 00                	add    %al,(%rax)
    4000ba00:	01 00                	add    %eax,(%rax)
    4000ba02:	00 00                	add    %al,(%rax)
    4000ba04:	00 00                	add    %al,(%rax)
    4000ba06:	00 00                	add    %al,(%rax)
    4000ba08:	c4                   	(bad)  
    4000ba09:	00 00                	add    %al,(%rax)
    4000ba0b:	00 fe                	add    %bh,%dh
    4000ba0d:	00 00                	add    %al,(%rax)
    4000ba0f:	00 42 72             	add    %al,0x72(%rdx)
    4000ba12:	50                   	push   %rax
    4000ba13:	72 54                	jb     4000ba69 <CounterDefinitions+0x3989>
    4000ba15:	61                   	(bad)  
    4000ba16:	6b 00 00             	imul   $0x0,(%rax),%eax
    4000ba19:	00 00                	add    %al,(%rax)
    4000ba1b:	00 ca                	add    %cl,%dl
    4000ba1d:	00 00                	add    %al,(%rax)
    4000ba1f:	00 80 00 00 00 00    	add    %al,0x0(%rax)
    4000ba25:	80 00 00             	addb   $0x0,(%rax)
    4000ba28:	00 00                	add    %al,(%rax)
    4000ba2a:	00 00                	add    %al,(%rax)
    4000ba2c:	01 00                	add    %eax,(%rax)
    4000ba2e:	00 00                	add    %al,(%rax)
    4000ba30:	00 00                	add    %al,(%rax)
    4000ba32:	00 00                	add    %al,(%rax)
    4000ba34:	c5 00 00             	(bad)
    4000ba37:	00 fe                	add    %bh,%dh
    4000ba39:	00 00                	add    %al,(%rax)
    4000ba3b:	00 42 72             	add    %al,0x72(%rdx)
    4000ba3e:	4d 70 72             	rex.WRB jo 4000bab3 <CounterDefinitions+0x39d3>
    4000ba41:	4e 54                	rex.WRX push %rsp
    4000ba43:	00 00                	add    %al,(%rax)
    4000ba45:	00 00                	add    %al,(%rax)
    4000ba47:	00 cf                	add    %cl,%bh
    4000ba49:	00 00                	add    %al,(%rax)
    4000ba4b:	00 80 00 00 00 00    	add    %al,0x0(%rax)
    4000ba51:	80 00 00             	addb   $0x0,(%rax)
    4000ba54:	00 00                	add    %al,(%rax)
    4000ba56:	00 00                	add    %al,(%rax)
    4000ba58:	01 00                	add    %eax,(%rax)
    4000ba5a:	00 00                	add    %al,(%rax)
    4000ba5c:	00 00                	add    %al,(%rax)
    4000ba5e:	00 00                	add    %al,(%rax)
    4000ba60:	c5 00 00             	(bad)
    4000ba63:	00 00                	add    %al,(%rax)
    4000ba65:	00 00                	add    %al,(%rax)
    4000ba67:	00 42 72             	add    %al,0x72(%rdx)
    4000ba6a:	4d 69 73 70 72 65 64 	imul   $0x646572,0x70(%r11),%r14
    4000ba71:	00 
    4000ba72:	00 00                	add    %al,(%rax)
    4000ba74:	d1 00                	roll   (%rax)
    4000ba76:	00 00                	add    %al,(%rax)
    4000ba78:	80 00 00             	addb   $0x0,(%rax)
    4000ba7b:	00 00                	add    %al,(%rax)
    4000ba7d:	80 00 00             	addb   $0x0,(%rax)
    4000ba80:	00 00                	add    %al,(%rax)
    4000ba82:	00 00                	add    %al,(%rax)
    4000ba84:	01 00                	add    %eax,(%rax)
    4000ba86:	00 00                	add    %al,(%rax)
    4000ba88:	00 00                	add    %al,(%rax)
    4000ba8a:	00 00                	add    %al,(%rax)
    4000ba8c:	e6 00                	out    %al,$0x0
    4000ba8e:	00 00                	add    %al,(%rax)
    4000ba90:	01 00                	add    %eax,(%rax)
    4000ba92:	00 00                	add    %al,(%rax)
    4000ba94:	42                   	rex.X
    4000ba95:	41                   	rex.B
    4000ba96:	43                   	rex.XB
    4000ba97:	4c                   	rex.WR
    4000ba98:	45                   	rex.RB
    4000ba99:	41 52                	push   %r10
    4000ba9b:	00 00                	add    %al,(%rax)
    4000ba9d:	00 00                	add    %al,(%rax)
    4000ba9f:	00 36                	add    %dh,(%rsi)
    4000baa1:	01 00                	add    %eax,(%rax)
    4000baa3:	00 40 00             	add    %al,0x0(%rax)
    4000baa6:	00 00                	add    %al,(%rax)
    4000baa8:	00 80 00 00 00 00    	add    %al,0x0(%rax)
    4000baae:	00 00                	add    %al,(%rax)
    4000bab0:	01 00                	add    %eax,(%rax)
    4000bab2:	00 00                	add    %al,(%rax)
    4000bab4:	00 00                	add    %al,(%rax)
    4000bab6:	00 00                	add    %al,(%rax)
    4000bab8:	80 00 00             	addb   $0x0,(%rax)
    4000babb:	00 02                	add    %al,(%rdx)
    4000babd:	00 00                	add    %al,(%rax)
    4000babf:	00 43 6f             	add    %al,0x6f(%rbx)
    4000bac2:	64 65 4d 69 73 73 00 	fs imul $0x0,%gs:0x73(%r11),%r14
    4000bac9:	00 00 00 
    4000bacc:	37                   	(bad)  
    4000bacd:	01 00                	add    %eax,(%rax)
    4000bacf:	00 80 00 00 00 00    	add    %al,0x0(%rax)
    4000bad5:	80 00 00             	addb   $0x0,(%rax)
    4000bad8:	00 00                	add    %al,(%rax)
    4000bada:	00 00                	add    %al,(%rax)
    4000badc:	01 00                	add    %eax,(%rax)
    4000bade:	00 00                	add    %al,(%rax)
    4000bae0:	00 00                	add    %al,(%rax)
    4000bae2:	00 00                	add    %al,(%rax)
    4000bae4:	04 00                	add    $0x0,%al
    4000bae6:	00 00                	add    %al,(%rax)
    4000bae8:	01 00                	add    %eax,(%rax)
    4000baea:	00 00                	add    %al,(%rax)
    4000baec:	4c 31 44 20 4c       	xor    %r8,0x4c(%rax,%riz,1)
    4000baf1:	4d 69 73 00 00 00 00 	imul   $0x40000000,0x0(%r11),%r14
    4000baf8:	40 
    4000baf9:	01 00                	add    %eax,(%rax)
    4000bafb:	00 80 00 00 00 00    	add    %al,0x0(%rax)
    4000bb01:	80 00 00             	addb   $0x0,(%rax)
    4000bb04:	00 00                	add    %al,(%rax)
    4000bb06:	00 00                	add    %al,(%rax)
    4000bb08:	01 00                	add    %eax,(%rax)
    4000bb0a:	00 00                	add    %al,(%rax)
    4000bb0c:	00 00                	add    %al,(%rax)
    4000bb0e:	00 00                	add    %al,(%rax)
    4000bb10:	2e 00 00             	cs add %al,(%rax)
    4000bb13:	00 41 00             	add    %al,0x0(%rcx)
    4000bb16:	00 00                	add    %al,(%rax)
    4000bb18:	4c 32 20             	rex.WR xor (%rax),%r12b
    4000bb1b:	4d 69 73 73 00 00 00 	imul   $0x0,0x73(%r11),%r14
    4000bb22:	00 
    4000bb23:	00 09                	add    %cl,(%rcx)
    4000bb25:	00 00                	add    %al,(%rax)
    4000bb27:	00 00                	add    %al,(%rax)
    4000bb29:	10 00                	adc    %al,(%rax)
    4000bb2b:	00 00                	add    %al,(%rax)
    4000bb2d:	00 0f                	add    %cl,(%rdi)
    4000bb2f:	00 00                	add    %al,(%rax)
    4000bb31:	00 00                	add    %al,(%rax)
    4000bb33:	00 03                	add    %al,(%rbx)
    4000bb35:	00 00                	add    %al,(%rax)
    4000bb37:	00 00                	add    %al,(%rax)
    4000bb39:	00 00                	add    %al,(%rax)
    4000bb3b:	00 c0                	add    %al,%al
    4000bb3d:	00 00                	add    %al,(%rax)
    4000bb3f:	00 00                	add    %al,(%rax)
    4000bb41:	00 00                	add    %al,(%rax)
    4000bb43:	00 49 6e             	add    %cl,0x6e(%rcx)
    4000bb46:	73 74                	jae    4000bbbc <CounterDefinitions+0x3adc>
    4000bb48:	72 75                	jb     4000bbbf <CounterDefinitions+0x3adf>
    4000bb4a:	63 74 00 00          	movsxd 0x0(%rax,%rax,1),%esi
    4000bb4e:	00 00                	add    %al,(%rax)
    4000bb50:	64 00 00             	add    %al,%fs:(%rax)
    4000bb53:	00 00                	add    %al,(%rax)
    4000bb55:	10 00                	adc    %al,(%rax)
    4000bb57:	00 00                	add    %al,(%rax)
    4000bb59:	00 0f                	add    %cl,(%rdi)
    4000bb5b:	00 00                	add    %al,(%rax)
    4000bb5d:	00 00                	add    %al,(%rax)
    4000bb5f:	00 03                	add    %al,(%rbx)
    4000bb61:	00 00                	add    %al,(%rax)
    4000bb63:	00 00                	add    %al,(%rax)
    4000bb65:	00 00                	add    %al,(%rax)
    4000bb67:	00 c1                	add    %al,%cl
    4000bb69:	00 00                	add    %al,(%rax)
    4000bb6b:	00 00                	add    %al,(%rax)
    4000bb6d:	00 00                	add    %al,(%rax)
    4000bb6f:	00 55 6f             	add    %dl,0x6f(%rbp)
    4000bb72:	70 73                	jo     4000bbe7 <CounterDefinitions+0x3b07>
	...
    4000bb7c:	cc                   	int3   
    4000bb7d:	00 00                	add    %al,(%rax)
    4000bb7f:	00 00                	add    %al,(%rax)
    4000bb81:	10 00                	adc    %al,(%rax)
    4000bb83:	00 00                	add    %al,(%rax)
    4000bb85:	00 0f                	add    %cl,(%rdi)
    4000bb87:	00 00                	add    %al,(%rax)
    4000bb89:	00 00                	add    %al,(%rax)
    4000bb8b:	00 03                	add    %al,(%rbx)
    4000bb8d:	00 00                	add    %al,(%rax)
    4000bb8f:	00 00                	add    %al,(%rax)
    4000bb91:	00 00                	add    %al,(%rax)
    4000bb93:	00 c3                	add    %al,%bl
    4000bb95:	00 00                	add    %al,(%rax)
    4000bb97:	00 00                	add    %al,(%rax)
    4000bb99:	00 00                	add    %al,(%rax)
    4000bb9b:	00 42 72             	add    %al,0x72(%rdx)
    4000bb9e:	4d 69 73 70 72 65 64 	imul   $0x646572,0x70(%r11),%r14
    4000bba5:	00 
    4000bba6:	00 00                	add    %al,(%rax)
    4000bba8:	c9                   	leave  
    4000bba9:	00 00                	add    %al,(%rax)
    4000bbab:	00 00                	add    %al,(%rax)
    4000bbad:	10 00                	adc    %al,(%rax)
    4000bbaf:	00 00                	add    %al,(%rax)
    4000bbb1:	00 04 00             	add    %al,(%rax,%rax,1)
    4000bbb4:	00 00                	add    %al,(%rax)
    4000bbb6:	00 00                	add    %al,(%rax)
    4000bbb8:	03 00                	add    (%rax),%eax
    4000bbba:	00 00                	add    %al,(%rax)
    4000bbbc:	00 00                	add    %al,(%rax)
    4000bbbe:	00 00                	add    %al,(%rax)
    4000bbc0:	c4                   	(bad)  
    4000bbc1:	00 00                	add    %al,(%rax)
    4000bbc3:	00 00                	add    %al,(%rax)
    4000bbc5:	00 00                	add    %al,(%rax)
    4000bbc7:	00 42 72             	add    %al,0x72(%rdx)
    4000bbca:	54                   	push   %rsp
    4000bbcb:	61                   	(bad)  
    4000bbcc:	6b 65 6e 00          	imul   $0x0,0x6e(%rbp),%esp
    4000bbd0:	00 00                	add    %al,(%rax)
    4000bbd2:	00 00                	add    %al,(%rax)
    4000bbd4:	d1 00                	roll   (%rax)
    4000bbd6:	00 00                	add    %al,(%rax)
    4000bbd8:	00 10                	add    %dl,(%rax)
    4000bbda:	00 00                	add    %al,(%rax)
    4000bbdc:	00 00                	add    %al,(%rax)
    4000bbde:	04 00                	add    $0x0,%al
    4000bbe0:	00 00                	add    %al,(%rax)
    4000bbe2:	00 00                	add    %al,(%rax)
    4000bbe4:	03 00                	add    (%rax),%eax
    4000bbe6:	00 00                	add    %al,(%rax)
    4000bbe8:	00 00                	add    %al,(%rax)
    4000bbea:	00 00                	add    %al,(%rax)
    4000bbec:	c2 00 00             	ret    $0x0
    4000bbef:	00 00                	add    %al,(%rax)
    4000bbf1:	00 00                	add    %al,(%rax)
    4000bbf3:	00 52 53             	add    %dl,0x53(%rdx)
    4000bbf6:	42 6f                	rex.X outsl %ds:(%rsi),(%dx)
    4000bbf8:	76 66                	jbe    4000bc60 <CounterDefinitions+0x3b80>
    4000bbfa:	6c                   	insb   (%dx),%es:(%rdi)
    4000bbfb:	00 00                	add    %al,(%rax)
    4000bbfd:	00 00                	add    %al,(%rax)
    4000bbff:	00 36                	add    %dh,(%rsi)
    4000bc01:	01 00                	add    %eax,(%rax)
    4000bc03:	00 00                	add    %al,(%rax)
    4000bc05:	10 00                	adc    %al,(%rax)
    4000bc07:	00 00                	add    %al,(%rax)
    4000bc09:	00 0f                	add    %cl,(%rdi)
    4000bc0b:	00 00                	add    %al,(%rax)
    4000bc0d:	00 00                	add    %al,(%rax)
    4000bc0f:	00 03                	add    %al,(%rbx)
    4000bc11:	00 00                	add    %al,(%rax)
    4000bc13:	00 00                	add    %al,(%rax)
    4000bc15:	00 00                	add    %al,(%rax)
    4000bc17:	00 81 00 00 00 00    	add    %al,0x0(%rcx)
    4000bc1d:	00 00                	add    %al,(%rax)
    4000bc1f:	00 43 6f             	add    %al,0x6f(%rbx)
    4000bc22:	64 65 4d 69 73 73 00 	fs imul $0x0,%gs:0x73(%r11),%r14
    4000bc29:	00 00 00 
    4000bc2c:	37                   	(bad)  
    4000bc2d:	01 00                	add    %eax,(%rax)
    4000bc2f:	00 00                	add    %al,(%rax)
    4000bc31:	10 00                	adc    %al,(%rax)
    4000bc33:	00 00                	add    %al,(%rax)
    4000bc35:	00 0f                	add    %cl,(%rdi)
    4000bc37:	00 00                	add    %al,(%rax)
    4000bc39:	00 00                	add    %al,(%rax)
    4000bc3b:	00 03                	add    %al,(%rbx)
    4000bc3d:	00 00                	add    %al,(%rax)
    4000bc3f:	00 00                	add    %al,(%rax)
    4000bc41:	00 00                	add    %al,(%rax)
    4000bc43:	00 41 00             	add    %al,0x0(%rcx)
    4000bc46:	00 00                	add    %al,(%rax)
    4000bc48:	00 00                	add    %al,(%rax)
    4000bc4a:	00 00                	add    %al,(%rax)
    4000bc4c:	4c 31 44 20 4d       	xor    %r8,0x4d(%rax,%riz,1)
    4000bc51:	69 73 73 00 00 00 00 	imul   $0x0,0x73(%rbx),%esi
    4000bc58:	40 01 00             	rex add %eax,(%rax)
    4000bc5b:	00 00                	add    %al,(%rax)
    4000bc5d:	10 00                	adc    %al,(%rax)
    4000bc5f:	00 00                	add    %al,(%rax)
    4000bc61:	00 0f                	add    %cl,(%rdi)
    4000bc63:	00 00                	add    %al,(%rax)
    4000bc65:	00 00                	add    %al,(%rax)
    4000bc67:	00 03                	add    %al,(%rbx)
    4000bc69:	00 00                	add    %al,(%rax)
    4000bc6b:	00 00                	add    %al,(%rax)
    4000bc6d:	00 00                	add    %al,(%rax)
    4000bc6f:	00 43 00             	add    %al,0x0(%rbx)
    4000bc72:	00 00                	add    %al,(%rax)
    4000bc74:	1f                   	(bad)  
    4000bc75:	00 00                	add    %al,(%rax)
    4000bc77:	00 4c 32 20          	add    %cl,0x20(%rdx,%rsi,1)
    4000bc7b:	4d 69 73 73 00 00 00 	imul   $0x0,0x73(%r11),%r14
    4000bc82:	00 
    4000bc83:	00 96 00 00 00 00    	add    %dl,0x0(%rsi)
    4000bc89:	10 00                	adc    %al,(%rax)
    4000bc8b:	00 00                	add    %al,(%rax)
    4000bc8d:	00 02                	add    %al,(%rdx)
    4000bc8f:	00 00                	add    %al,(%rax)
    4000bc91:	00 00                	add    %al,(%rax)
    4000bc93:	00 03                	add    %al,(%rbx)
	...
    4000bc9d:	00 00                	add    %al,(%rax)
    4000bc9f:	00 3f                	add    %bh,(%rdi)
    4000bca1:	00 00                	add    %al,(%rax)
    4000bca3:	00 55 6f             	add    %dl,0x6f(%rbp)
    4000bca6:	70 73                	jo     4000bd1b <CounterDefinitions+0x3c3b>
    4000bca8:	46 50                	rex.RX push %rax
    4000bcaa:	00 00                	add    %al,(%rax)
    4000bcac:	00 00                	add    %al,(%rax)
    4000bcae:	00 00                	add    %al,(%rax)
    4000bcb0:	97                   	xchg   %eax,%edi
    4000bcb1:	00 00                	add    %al,(%rax)
    4000bcb3:	00 00                	add    %al,(%rax)
    4000bcb5:	10 00                	adc    %al,(%rax)
    4000bcb7:	00 00                	add    %al,(%rax)
    4000bcb9:	00 02                	add    %al,(%rdx)
    4000bcbb:	00 00                	add    %al,(%rax)
    4000bcbd:	00 00                	add    %al,(%rax)
    4000bcbf:	00 03                	add    %al,(%rbx)
	...
    4000bcc9:	00 00                	add    %al,(%rax)
    4000bccb:	00 09                	add    %cl,(%rcx)
    4000bccd:	00 00                	add    %al,(%rax)
    4000bccf:	00 46 50             	add    %al,0x50(%rsi)
    4000bcd2:	41                   	rex.B
    4000bcd3:	44                   	rex.R
    4000bcd4:	44 00 00             	add    %r8b,(%rax)
    4000bcd7:	00 00                	add    %al,(%rax)
    4000bcd9:	00 00                	add    %al,(%rax)
    4000bcdb:	00 98 00 00 00 00    	add    %bl,0x0(%rax)
    4000bce1:	10 00                	adc    %al,(%rax)
    4000bce3:	00 00                	add    %al,(%rax)
    4000bce5:	00 02                	add    %al,(%rdx)
    4000bce7:	00 00                	add    %al,(%rax)
    4000bce9:	00 00                	add    %al,(%rax)
    4000bceb:	00 03                	add    %al,(%rbx)
	...
    4000bcf5:	00 00                	add    %al,(%rax)
    4000bcf7:	00 12                	add    %dl,(%rdx)
    4000bcf9:	00 00                	add    %al,(%rax)
    4000bcfb:	00 46 50             	add    %al,0x50(%rsi)
    4000bcfe:	4d 55                	rex.WRB push %r13
    4000bd00:	4c 00 00             	rex.WR add %r8b,(%rax)
    4000bd03:	00 00                	add    %al,(%rax)
    4000bd05:	00 00                	add    %al,(%rax)
    4000bd07:	00 99 00 00 00 00    	add    %bl,0x0(%rcx)
    4000bd0d:	10 00                	adc    %al,(%rax)
    4000bd0f:	00 00                	add    %al,(%rax)
    4000bd11:	00 02                	add    %al,(%rdx)
    4000bd13:	00 00                	add    %al,(%rax)
    4000bd15:	00 00                	add    %al,(%rax)
    4000bd17:	00 03                	add    %al,(%rbx)
	...
    4000bd21:	00 00                	add    %al,(%rax)
    4000bd23:	00 24 00             	add    %ah,(%rax,%rax,1)
    4000bd26:	00 00                	add    %al,(%rax)
    4000bd28:	46 50                	rex.RX push %rax
    4000bd2a:	4d                   	rex.WRB
    4000bd2b:	49 53                	rex.WB push %r11
    4000bd2d:	43 00 00             	rex.XB add %al,(%r8)
    4000bd30:	00 00                	add    %al,(%rax)
    4000bd32:	00 00                	add    %al,(%rax)
    4000bd34:	96                   	xchg   %eax,%esi
    4000bd35:	00 00                	add    %al,(%rax)
    4000bd37:	00 00                	add    %al,(%rax)
    4000bd39:	10 00                	adc    %al,(%rax)
    4000bd3b:	00 00                	add    %al,(%rax)
    4000bd3d:	00 04 00             	add    %al,(%rax,%rax,1)
    4000bd40:	03 00                	add    (%rax),%eax
    4000bd42:	00 00                	add    %al,(%rax)
    4000bd44:	03 00                	add    (%rax),%eax
	...
    4000bd4e:	00 00                	add    %al,(%rax)
    4000bd50:	01 00                	add    %eax,(%rax)
    4000bd52:	00 00                	add    %al,(%rax)
    4000bd54:	55                   	push   %rbp
    4000bd55:	6f                   	outsl  %ds:(%rsi),(%dx)
    4000bd56:	70 73                	jo     4000bdcb <CounterDefinitions+0x3ceb>
    4000bd58:	46 50                	rex.RX push %rax
    4000bd5a:	30 00                	xor    %al,(%rax)
    4000bd5c:	00 00                	add    %al,(%rax)
    4000bd5e:	00 00                	add    %al,(%rax)
    4000bd60:	97                   	xchg   %eax,%edi
    4000bd61:	00 00                	add    %al,(%rax)
    4000bd63:	00 00                	add    %al,(%rax)
    4000bd65:	10 00                	adc    %al,(%rax)
    4000bd67:	00 00                	add    %al,(%rax)
    4000bd69:	00 04 00             	add    %al,(%rax,%rax,1)
    4000bd6c:	03 00                	add    (%rax),%eax
    4000bd6e:	00 00                	add    %al,(%rax)
    4000bd70:	03 00                	add    (%rax),%eax
	...
    4000bd7a:	00 00                	add    %al,(%rax)
    4000bd7c:	02 00                	add    (%rax),%al
    4000bd7e:	00 00                	add    %al,(%rax)
    4000bd80:	55                   	push   %rbp
    4000bd81:	6f                   	outsl  %ds:(%rsi),(%dx)
    4000bd82:	70 73                	jo     4000bdf7 <CounterDefinitions+0x3d17>
    4000bd84:	46 50                	rex.RX push %rax
    4000bd86:	31 00                	xor    %eax,(%rax)
    4000bd88:	00 00                	add    %al,(%rax)
    4000bd8a:	00 00                	add    %al,(%rax)
    4000bd8c:	98                   	cwtl   
    4000bd8d:	00 00                	add    %al,(%rax)
    4000bd8f:	00 00                	add    %al,(%rax)
    4000bd91:	10 00                	adc    %al,(%rax)
    4000bd93:	00 00                	add    %al,(%rax)
    4000bd95:	00 04 00             	add    %al,(%rax,%rax,1)
    4000bd98:	03 00                	add    (%rax),%eax
    4000bd9a:	00 00                	add    %al,(%rax)
    4000bd9c:	03 00                	add    (%rax),%eax
	...
    4000bda6:	00 00                	add    %al,(%rax)
    4000bda8:	04 00                	add    $0x0,%al
    4000bdaa:	00 00                	add    %al,(%rax)
    4000bdac:	55                   	push   %rbp
    4000bdad:	6f                   	outsl  %ds:(%rsi),(%dx)
    4000bdae:	70 73                	jo     4000be23 <CounterDefinitions+0x3d43>
    4000bdb0:	46 50                	rex.RX push %rax
    4000bdb2:	32 00                	xor    (%rax),%al
    4000bdb4:	00 00                	add    %al,(%rax)
    4000bdb6:	00 00                	add    %al,(%rax)
    4000bdb8:	99                   	cltd   
    4000bdb9:	00 00                	add    %al,(%rax)
    4000bdbb:	00 00                	add    %al,(%rax)
    4000bdbd:	10 00                	adc    %al,(%rax)
    4000bdbf:	00 00                	add    %al,(%rax)
    4000bdc1:	00 04 00             	add    %al,(%rax,%rax,1)
    4000bdc4:	03 00                	add    (%rax),%eax
    4000bdc6:	00 00                	add    %al,(%rax)
    4000bdc8:	03 00                	add    (%rax),%eax
	...
    4000bdd2:	00 00                	add    %al,(%rax)
    4000bdd4:	08 00                	or     %al,(%rax)
    4000bdd6:	00 00                	add    %al,(%rax)
    4000bdd8:	55                   	push   %rbp
    4000bdd9:	6f                   	outsl  %ds:(%rsi),(%dx)
    4000bdda:	70 73                	jo     4000be4f <CounterDefinitions+0x3d6f>
    4000bddc:	46 50                	rex.RX push %rax
    4000bdde:	33 00                	xor    (%rax),%eax
    4000bde0:	00 00                	add    %al,(%rax)
    4000bde2:	00 00                	add    %al,(%rax)
    4000bde4:	6e                   	outsb  %ds:(%rsi),(%dx)
    4000bde5:	00 00                	add    %al,(%rax)
    4000bde7:	00 00                	add    %al,(%rax)
    4000bde9:	10 00                	adc    %al,(%rax)
    4000bdeb:	00 00                	add    %al,(%rax)
    4000bded:	00 04 00             	add    %al,(%rax,%rax,1)
    4000bdf0:	00 00                	add    %al,(%rax)
    4000bdf2:	00 00                	add    %al,(%rax)
    4000bdf4:	03 00                	add    (%rax),%eax
    4000bdf6:	00 00                	add    %al,(%rax)
    4000bdf8:	00 00                	add    %al,(%rax)
    4000bdfa:	00 00                	add    %al,(%rax)
    4000bdfc:	04 00                	add    $0x0,%al
    4000bdfe:	00 00                	add    %al,(%rax)
    4000be00:	0a 00                	or     (%rax),%al
    4000be02:	00 00                	add    %al,(%rax)
    4000be04:	55                   	push   %rbp
    4000be05:	6f                   	outsl  %ds:(%rsi),(%dx)
    4000be06:	70 73                	jo     4000be7b <CounterDefinitions+0x3d9b>
    4000be08:	45 6c                	rex.RB insb (%dx),%es:(%rdi)
    4000be0a:	69 6d 00 00 00 00 78 	imul   $0x78000000,0x0(%rbp),%ebp
    4000be11:	00 00                	add    %al,(%rax)
    4000be13:	00 00                	add    %al,(%rax)
    4000be15:	10 00                	adc    %al,(%rax)
    4000be17:	00 00                	add    %al,(%rax)
    4000be19:	00 04 00             	add    %al,(%rax,%rax,1)
    4000be1c:	00 00                	add    %al,(%rax)
    4000be1e:	00 00                	add    %al,(%rax)
    4000be20:	03 00                	add    (%rax),%eax
    4000be22:	00 00                	add    %al,(%rax)
    4000be24:	00 00                	add    %al,(%rax)
    4000be26:	00 00                	add    %al,(%rax)
    4000be28:	2a 00                	sub    (%rax),%al
    4000be2a:	00 00                	add    %al,(%rax)
    4000be2c:	01 00                	add    %eax,(%rax)
    4000be2e:	00 00                	add    %al,(%rax)
    4000be30:	46 6f                	rex.RX outsl %ds:(%rsi),(%dx)
    4000be32:	72 77                	jb     4000beab <CounterDefinitions+0x3dcb>
    4000be34:	66 61                	data16 (bad) 
    4000be36:	69 6c 00 00 00 00 a0 	imul   $0xa00000,0x0(%rax,%rax,1),%ebp
    4000be3d:	00 
    4000be3e:	00 00                	add    %al,(%rax)
    4000be40:	00 10                	add    %dl,(%rax)
    4000be42:	00 00                	add    %al,(%rax)
    4000be44:	00 00                	add    %al,(%rax)
    4000be46:	04 00                	add    $0x0,%al
    4000be48:	00 00                	add    %al,(%rax)
    4000be4a:	00 00                	add    %al,(%rax)
    4000be4c:	03 00                	add    (%rax),%eax
    4000be4e:	00 00                	add    %al,(%rax)
    4000be50:	00 00                	add    %al,(%rax)
    4000be52:	00 00                	add    %al,(%rax)
    4000be54:	cb                   	lret   
    4000be55:	00 00                	add    %al,(%rax)
    4000be57:	00 01                	add    %al,(%rcx)
    4000be59:	00 00                	add    %al,(%rax)
    4000be5b:	00 78 38             	add    %bh,0x38(%rax)
    4000be5e:	37                   	(bad)  
	...
    4000be67:	00 a1 00 00 00 00    	add    %ah,0x0(%rcx)
    4000be6d:	10 00                	adc    %al,(%rax)
    4000be6f:	00 00                	add    %al,(%rax)
    4000be71:	00 04 00             	add    %al,(%rax,%rax,1)
    4000be74:	00 00                	add    %al,(%rax)
    4000be76:	00 00                	add    %al,(%rax)
    4000be78:	03 00                	add    (%rax),%eax
    4000be7a:	00 00                	add    %al,(%rax)
    4000be7c:	00 00                	add    %al,(%rax)
    4000be7e:	00 00                	add    %al,(%rax)
    4000be80:	cb                   	lret   
    4000be81:	00 00                	add    %al,(%rax)
    4000be83:	00 02                	add    %al,(%rdx)
    4000be85:	00 00                	add    %al,(%rax)
    4000be87:	00 4d 4d             	add    %cl,0x4d(%rbp)
    4000be8a:	58                   	pop    %rax
	...
    4000be93:	00 a2 00 00 00 00    	add    %ah,0x0(%rdx)
    4000be99:	10 00                	adc    %al,(%rax)
    4000be9b:	00 00                	add    %al,(%rax)
    4000be9d:	00 04 00             	add    %al,(%rax,%rax,1)
    4000bea0:	00 00                	add    %al,(%rax)
    4000bea2:	00 00                	add    %al,(%rax)
    4000bea4:	03 00                	add    (%rax),%eax
    4000bea6:	00 00                	add    %al,(%rax)
    4000bea8:	00 00                	add    %al,(%rax)
    4000beaa:	00 00                	add    %al,(%rax)
    4000beac:	cb                   	lret   
    4000bead:	00 00                	add    %al,(%rax)
    4000beaf:	00 04 00             	add    %al,(%rax,%rax,1)
    4000beb2:	00 00                	add    %al,(%rax)
    4000beb4:	58                   	pop    %rax
    4000beb5:	4d                   	rex.WRB
    4000beb6:	4d 00 00             	rex.WRB add %r8b,(%r8)
    4000beb9:	00 00                	add    %al,(%rax)
    4000bebb:	00 00                	add    %al,(%rax)
    4000bebd:	00 00                	add    %al,(%rax)
    4000bebf:	00 09                	add    %cl,(%rcx)
    4000bec1:	00 00                	add    %al,(%rax)
    4000bec3:	00 00                	add    %al,(%rax)
    4000bec5:	20 00                	and    %al,(%rax)
    4000bec7:	00 00                	add    %al,(%rax)
    4000bec9:	00 08                	add    %cl,(%rax)
    4000becb:	00 00                	add    %al,(%rax)
    4000becd:	00 00                	add    %al,(%rax)
    4000becf:	00 05 00 00 00 00    	add    %al,0x0(%rip)        # 4000bed5 <CounterDefinitions+0x3df5>
    4000bed5:	00 00                	add    %al,(%rax)
    4000bed7:	00 c0                	add    %al,%al
    4000bed9:	00 00                	add    %al,(%rax)
    4000bedb:	00 01                	add    %al,(%rcx)
    4000bedd:	00 00                	add    %al,(%rax)
    4000bedf:	00 49 6e             	add    %cl,0x6e(%rcx)
    4000bee2:	73 74                	jae    4000bf58 <CounterDefinitions+0x3e78>
    4000bee4:	72 75                	jb     4000bf5b <CounterDefinitions+0x3e7b>
    4000bee6:	63 74 00 00          	movsxd 0x0(%rax,%rax,1),%esi
    4000beea:	00 00                	add    %al,(%rax)
    4000beec:	64 00 00             	add    %al,%fs:(%rax)
    4000beef:	00 00                	add    %al,(%rax)
    4000bef1:	20 00                	and    %al,(%rax)
    4000bef3:	00 00                	add    %al,(%rax)
    4000bef5:	00 08                	add    %cl,(%rax)
    4000bef7:	00 00                	add    %al,(%rax)
    4000bef9:	00 00                	add    %al,(%rax)
    4000befb:	00 05 00 00 00 00    	add    %al,0x0(%rip)        # 4000bf01 <CounterDefinitions+0x3e21>
    4000bf01:	00 00                	add    %al,(%rax)
    4000bf03:	00 c1                	add    %al,%cl
    4000bf05:	00 00                	add    %al,(%rax)
    4000bf07:	00 00                	add    %al,(%rax)
    4000bf09:	00 00                	add    %al,(%rax)
    4000bf0b:	00 55 6f             	add    %dl,0x6f(%rbp)
    4000bf0e:	70 73                	jo     4000bf83 <CounterDefinitions+0x3ea3>
	...
    4000bf18:	6e                   	outsb  %ds:(%rsi),(%dx)
    4000bf19:	00 00                	add    %al,(%rax)
    4000bf1b:	00 00                	add    %al,(%rax)
    4000bf1d:	20 00                	and    %al,(%rax)
    4000bf1f:	00 00                	add    %al,(%rax)
    4000bf21:	00 08                	add    %cl,(%rax)
    4000bf23:	00 00                	add    %al,(%rax)
    4000bf25:	00 00                	add    %al,(%rax)
    4000bf27:	00 05 00 00 00 00    	add    %al,0x0(%rip)        # 4000bf2d <CounterDefinitions+0x3e4d>
    4000bf2d:	00 00                	add    %al,(%rax)
    4000bf2f:	00 04 00             	add    %al,(%rax,%rax,1)
    4000bf32:	00 00                	add    %al,(%rax)
    4000bf34:	0a 00                	or     (%rax),%al
    4000bf36:	00 00                	add    %al,(%rax)
    4000bf38:	55                   	push   %rbp
    4000bf39:	6f                   	outsl  %ds:(%rsi),(%dx)
    4000bf3a:	70 73                	jo     4000bfaf <CounterDefinitions+0x3ecf>
    4000bf3c:	45 6c                	rex.RB insb (%dx),%es:(%rdi)
    4000bf3e:	69 6d 00 00 00 00 96 	imul   $0x96000000,0x0(%rbp),%ebp
    4000bf45:	00 00                	add    %al,(%rax)
    4000bf47:	00 00                	add    %al,(%rax)
    4000bf49:	20 00                	and    %al,(%rax)
    4000bf4b:	00 00                	add    %al,(%rax)
    4000bf4d:	00 08                	add    %cl,(%rax)
    4000bf4f:	00 00                	add    %al,(%rax)
    4000bf51:	00 00                	add    %al,(%rax)
    4000bf53:	00 05 00 00 00 00    	add    %al,0x0(%rip)        # 4000bf59 <CounterDefinitions+0x3e79>
    4000bf59:	00 00                	add    %al,(%rax)
    4000bf5b:	00 00                	add    %al,(%rax)
    4000bf5d:	00 00                	add    %al,(%rax)
    4000bf5f:	00 01                	add    %al,(%rcx)
    4000bf61:	00 00                	add    %al,(%rax)
    4000bf63:	00 55 6f             	add    %dl,0x6f(%rbp)
    4000bf66:	70 73                	jo     4000bfdb <CounterDefinitions+0x3efb>
    4000bf68:	46 50                	rex.RX push %rax
    4000bf6a:	30 00                	xor    %al,(%rax)
    4000bf6c:	00 00                	add    %al,(%rax)
    4000bf6e:	00 00                	add    %al,(%rax)
    4000bf70:	97                   	xchg   %eax,%edi
    4000bf71:	00 00                	add    %al,(%rax)
    4000bf73:	00 00                	add    %al,(%rax)
    4000bf75:	20 00                	and    %al,(%rax)
    4000bf77:	00 00                	add    %al,(%rax)
    4000bf79:	00 08                	add    %cl,(%rax)
    4000bf7b:	00 00                	add    %al,(%rax)
    4000bf7d:	00 00                	add    %al,(%rax)
    4000bf7f:	00 05 00 00 00 00    	add    %al,0x0(%rip)        # 4000bf85 <CounterDefinitions+0x3ea5>
    4000bf85:	00 00                	add    %al,(%rax)
    4000bf87:	00 00                	add    %al,(%rax)
    4000bf89:	00 00                	add    %al,(%rax)
    4000bf8b:	00 02                	add    %al,(%rdx)
    4000bf8d:	00 00                	add    %al,(%rax)
    4000bf8f:	00 55 6f             	add    %dl,0x6f(%rbp)
    4000bf92:	70 73                	jo     4000c007 <CounterDefinitions+0x3f27>
    4000bf94:	46 50                	rex.RX push %rax
    4000bf96:	31 00                	xor    %eax,(%rax)
    4000bf98:	00 00                	add    %al,(%rax)
    4000bf9a:	00 00                	add    %al,(%rax)
    4000bf9c:	98                   	cwtl   
    4000bf9d:	00 00                	add    %al,(%rax)
    4000bf9f:	00 00                	add    %al,(%rax)
    4000bfa1:	20 00                	and    %al,(%rax)
    4000bfa3:	00 00                	add    %al,(%rax)
    4000bfa5:	00 08                	add    %cl,(%rax)
    4000bfa7:	00 00                	add    %al,(%rax)
    4000bfa9:	00 00                	add    %al,(%rax)
    4000bfab:	00 05 00 00 00 00    	add    %al,0x0(%rip)        # 4000bfb1 <CounterDefinitions+0x3ed1>
    4000bfb1:	00 00                	add    %al,(%rax)
    4000bfb3:	00 00                	add    %al,(%rax)
    4000bfb5:	00 00                	add    %al,(%rax)
    4000bfb7:	00 04 00             	add    %al,(%rax,%rax,1)
    4000bfba:	00 00                	add    %al,(%rax)
    4000bfbc:	55                   	push   %rbp
    4000bfbd:	6f                   	outsl  %ds:(%rsi),(%dx)
    4000bfbe:	70 73                	jo     4000c033 <CounterDefinitions+0x3f53>
    4000bfc0:	46 50                	rex.RX push %rax
    4000bfc2:	32 00                	xor    (%rax),%al
    4000bfc4:	00 00                	add    %al,(%rax)
    4000bfc6:	00 00                	add    %al,(%rax)
    4000bfc8:	99                   	cltd   
    4000bfc9:	00 00                	add    %al,(%rax)
    4000bfcb:	00 00                	add    %al,(%rax)
    4000bfcd:	20 00                	and    %al,(%rax)
    4000bfcf:	00 00                	add    %al,(%rax)
    4000bfd1:	00 08                	add    %cl,(%rax)
    4000bfd3:	00 00                	add    %al,(%rax)
    4000bfd5:	00 00                	add    %al,(%rax)
    4000bfd7:	00 05 00 00 00 00    	add    %al,0x0(%rip)        # 4000bfdd <CounterDefinitions+0x3efd>
    4000bfdd:	00 00                	add    %al,(%rax)
    4000bfdf:	00 00                	add    %al,(%rax)
    4000bfe1:	00 00                	add    %al,(%rax)
    4000bfe3:	00 08                	add    %cl,(%rax)
    4000bfe5:	00 00                	add    %al,(%rax)
    4000bfe7:	00 55 6f             	add    %dl,0x6f(%rbp)
    4000bfea:	70 73                	jo     4000c05f <CounterDefinitions+0x3f7f>
    4000bfec:	46 50                	rex.RX push %rax
    4000bfee:	33 00                	xor    (%rax),%eax
    4000bff0:	00 00                	add    %al,(%rax)
    4000bff2:	00 00                	add    %al,(%rax)
    4000bff4:	9e                   	sahf   
    4000bff5:	00 00                	add    %al,(%rax)
    4000bff7:	00 00                	add    %al,(%rax)
    4000bff9:	20 00                	and    %al,(%rax)
    4000bffb:	00 00                	add    %al,(%rax)
    4000bffd:	00 08                	add    %cl,(%rax)
    4000bfff:	00 00                	add    %al,(%rax)
    4000c001:	00 00                	add    %al,(%rax)
    4000c003:	00 05 00 00 00 00    	add    %al,0x0(%rip)        # 4000c009 <CounterDefinitions+0x3f29>
    4000c009:	00 00                	add    %al,(%rax)
    4000c00b:	00 00                	add    %al,(%rax)
    4000c00d:	00 00                	add    %al,(%rax)
    4000c00f:	00 f0                	add    %dh,%al
    4000c011:	00 00                	add    %al,(%rax)
    4000c013:	00 55 4d             	add    %dl,0x4d(%rbp)
    4000c016:	75 6c                	jne    4000c084 <CounterDefinitions+0x3fa4>
    4000c018:	74 69                	je     4000c083 <CounterDefinitions+0x3fa3>
    4000c01a:	50                   	push   %rax
    4000c01b:	00 00                	add    %al,(%rax)
    4000c01d:	00 00                	add    %al,(%rax)
    4000c01f:	00 9f 00 00 00 00    	add    %bl,0x0(%rdi)
    4000c025:	20 00                	and    %al,(%rax)
    4000c027:	00 00                	add    %al,(%rax)
    4000c029:	00 08                	add    %cl,(%rax)
    4000c02b:	00 00                	add    %al,(%rax)
    4000c02d:	00 00                	add    %al,(%rax)
    4000c02f:	00 05 00 00 00 00    	add    %al,0x0(%rip)        # 4000c035 <CounterDefinitions+0x3f55>
    4000c035:	00 00                	add    %al,(%rax)
    4000c037:	00 00                	add    %al,(%rax)
    4000c039:	00 00                	add    %al,(%rax)
    4000c03b:	00 0f                	add    %cl,(%rdi)
    4000c03d:	00 00                	add    %al,(%rax)
    4000c03f:	00 55 6f             	add    %dl,0x6f(%rbp)
    4000c042:	70 73                	jo     4000c0b7 <CounterDefinitions+0x3fd7>
    4000c044:	46 50                	rex.RX push %rax
    4000c046:	00 00                	add    %al,(%rax)
    4000c048:	00 00                	add    %al,(%rax)
    4000c04a:	00 00                	add    %al,(%rax)
    4000c04c:	78 00                	js     4000c04e <CounterDefinitions+0x3f6e>
    4000c04e:	00 00                	add    %al,(%rax)
    4000c050:	00 20                	add    %ah,(%rax)
    4000c052:	00 00                	add    %al,(%rax)
    4000c054:	00 00                	add    %al,(%rax)
    4000c056:	08 00                	or     %al,(%rax)
    4000c058:	00 00                	add    %al,(%rax)
    4000c05a:	00 00                	add    %al,(%rax)
    4000c05c:	05 00 00 00 00       	add    $0x0,%eax
    4000c061:	00 00                	add    %al,(%rax)
    4000c063:	00 35 00 00 00 01    	add    %dh,0x1000000(%rip)        # 4100c069 <_end+0x7edf11>
    4000c069:	00 00                	add    %al,(%rax)
    4000c06b:	00 46 6f             	add    %al,0x6f(%rsi)
    4000c06e:	72 77                	jb     4000c0e7 <CounterDefinitions+0x4007>
	...
    4000c078:	a0 00 00 00 00 20 00 	movabs 0x2000000000,%al
    4000c07f:	00 00 
    4000c081:	00 08                	add    %cl,(%rax)
    4000c083:	00 00                	add    %al,(%rax)
    4000c085:	00 00                	add    %al,(%rax)
    4000c087:	00 05 00 00 00 00    	add    %al,0x0(%rip)        # 4000c08d <CounterDefinitions+0x3fad>
    4000c08d:	00 00                	add    %al,(%rax)
    4000c08f:	00 02                	add    %al,(%rdx)
    4000c091:	00 00                	add    %al,(%rax)
    4000c093:	00 07                	add    %al,(%rdi)
    4000c095:	00 00                	add    %al,(%rax)
    4000c097:	00 78 38             	add    %bh,0x38(%rax)
    4000c09a:	37                   	(bad)  
	...
    4000c0a3:	00 a2 00 00 00 00    	add    %ah,0x0(%rdx)
    4000c0a9:	20 00                	and    %al,(%rax)
    4000c0ab:	00 00                	add    %al,(%rax)
    4000c0ad:	00 08                	add    %cl,(%rax)
    4000c0af:	00 00                	add    %al,(%rax)
    4000c0b1:	00 00                	add    %al,(%rax)
    4000c0b3:	00 05 00 00 00 00    	add    %al,0x0(%rip)        # 4000c0b9 <CounterDefinitions+0x3fd9>
    4000c0b9:	00 00                	add    %al,(%rax)
    4000c0bb:	00 03                	add    %al,(%rbx)
    4000c0bd:	00 00                	add    %al,(%rax)
    4000c0bf:	00 ff                	add    %bh,%bh
    4000c0c1:	00 00                	add    %al,(%rax)
    4000c0c3:	00 56 65             	add    %dl,0x65(%rsi)
    4000c0c6:	63 74 00 00          	movsxd 0x0(%rax,%rax,1),%esi
    4000c0ca:	00 00                	add    %al,(%rax)
    4000c0cc:	00 00                	add    %al,(%rax)
    4000c0ce:	00 00                	add    %al,(%rax)
    4000c0d0:	c8 00 00 00          	enter  $0x0,$0x0
    4000c0d4:	00 20                	add    %ah,(%rax)
    4000c0d6:	00 00                	add    %al,(%rax)
    4000c0d8:	00 00                	add    %al,(%rax)
    4000c0da:	08 00                	or     %al,(%rax)
    4000c0dc:	00 00                	add    %al,(%rax)
    4000c0de:	00 00                	add    %al,(%rax)
    4000c0e0:	05 00 00 00 00       	add    $0x0,%eax
    4000c0e5:	00 00                	add    %al,(%rax)
    4000c0e7:	00 c2                	add    %al,%dl
    4000c0e9:	00 00                	add    %al,(%rax)
    4000c0eb:	00 00                	add    %al,(%rax)
    4000c0ed:	00 00                	add    %al,(%rax)
    4000c0ef:	00 42 72             	add    %al,0x72(%rdx)
    4000c0f2:	52                   	push   %rdx
    4000c0f3:	65 74 69             	gs je  4000c15f <CounterDefinitions+0x407f>
    4000c0f6:	72 65                	jb     4000c15d <CounterDefinitions+0x407d>
    4000c0f8:	00 00                	add    %al,(%rax)
    4000c0fa:	00 00                	add    %al,(%rax)
    4000c0fc:	c9                   	leave  
    4000c0fd:	00 00                	add    %al,(%rax)
    4000c0ff:	00 00                	add    %al,(%rax)
    4000c101:	20 00                	and    %al,(%rax)
    4000c103:	00 00                	add    %al,(%rax)
    4000c105:	00 08                	add    %cl,(%rax)
    4000c107:	00 00                	add    %al,(%rax)
    4000c109:	00 00                	add    %al,(%rax)
    4000c10b:	00 05 00 00 00 00    	add    %al,0x0(%rip)        # 4000c111 <CounterDefinitions+0x4031>
    4000c111:	00 00                	add    %al,(%rax)
    4000c113:	00 c4                	add    %al,%ah
    4000c115:	00 00                	add    %al,(%rax)
    4000c117:	00 00                	add    %al,(%rax)
    4000c119:	00 00                	add    %al,(%rax)
    4000c11b:	00 42 72             	add    %al,0x72(%rdx)
    4000c11e:	54                   	push   %rsp
    4000c11f:	61                   	(bad)  
    4000c120:	6b 65 6e 00          	imul   $0x0,0x6e(%rbp),%esp
    4000c124:	00 00                	add    %al,(%rax)
    4000c126:	00 00                	add    %al,(%rax)
    4000c128:	ca 00 00             	lret   $0x0
    4000c12b:	00 00                	add    %al,(%rax)
    4000c12d:	20 00                	and    %al,(%rax)
    4000c12f:	00 00                	add    %al,(%rax)
    4000c131:	00 08                	add    %cl,(%rax)
    4000c133:	00 00                	add    %al,(%rax)
    4000c135:	00 00                	add    %al,(%rax)
    4000c137:	00 05 00 00 00 00    	add    %al,0x0(%rip)        # 4000c13d <CounterDefinitions+0x405d>
    4000c13d:	00 00                	add    %al,(%rax)
    4000c13f:	00 d1                	add    %dl,%cl
    4000c141:	00 00                	add    %al,(%rax)
    4000c143:	00 00                	add    %al,(%rax)
    4000c145:	00 00                	add    %al,(%rax)
    4000c147:	00 42 72             	add    %al,0x72(%rdx)
    4000c14a:	43 6f                	rex.XB outsl %ds:(%rsi),(%dx)
    4000c14c:	6e                   	outsb  %ds:(%rsi),(%dx)
    4000c14d:	64 00 00             	add    %al,%fs:(%rax)
    4000c150:	00 00                	add    %al,(%rax)
    4000c152:	00 00                	add    %al,(%rax)
    4000c154:	cb                   	lret   
    4000c155:	00 00                	add    %al,(%rax)
    4000c157:	00 00                	add    %al,(%rax)
    4000c159:	20 00                	and    %al,(%rax)
    4000c15b:	00 00                	add    %al,(%rax)
    4000c15d:	00 08                	add    %cl,(%rax)
    4000c15f:	00 00                	add    %al,(%rax)
    4000c161:	00 00                	add    %al,(%rax)
    4000c163:	00 05 00 00 00 00    	add    %al,0x0(%rip)        # 4000c169 <CounterDefinitions+0x4089>
    4000c169:	00 00                	add    %al,(%rax)
    4000c16b:	00 c5                	add    %al,%ch
    4000c16d:	00 00                	add    %al,(%rax)
    4000c16f:	00 00                	add    %al,(%rax)
    4000c171:	00 00                	add    %al,(%rax)
    4000c173:	00 42 72             	add    %al,0x72(%rdx)
    4000c176:	4d 69 73 70 54 61 6b 	imul   $0x6b6154,0x70(%r11),%r14
    4000c17d:	00 
    4000c17e:	00 00                	add    %al,(%rax)
    4000c180:	cc                   	int3   
    4000c181:	00 00                	add    %al,(%rax)
    4000c183:	00 00                	add    %al,(%rax)
    4000c185:	20 00                	and    %al,(%rax)
    4000c187:	00 00                	add    %al,(%rax)
    4000c189:	00 08                	add    %cl,(%rax)
    4000c18b:	00 00                	add    %al,(%rax)
    4000c18d:	00 00                	add    %al,(%rax)
    4000c18f:	00 05 00 00 00 00    	add    %al,0x0(%rip)        # 4000c195 <CounterDefinitions+0x40b5>
    4000c195:	00 00                	add    %al,(%rax)
    4000c197:	00 c3                	add    %al,%bl
    4000c199:	00 00                	add    %al,(%rax)
    4000c19b:	00 00                	add    %al,(%rax)
    4000c19d:	00 00                	add    %al,(%rax)
    4000c19f:	00 42 72             	add    %al,0x72(%rdx)
    4000c1a2:	4d 69 73 70 72 65 64 	imul   $0x646572,0x70(%r11),%r14
    4000c1a9:	00 
    4000c1aa:	00 00                	add    %al,(%rax)
    4000c1ac:	cd 00                	int    $0x0
    4000c1ae:	00 00                	add    %al,(%rax)
    4000c1b0:	00 20                	add    %ah,(%rax)
    4000c1b2:	00 00                	add    %al,(%rax)
    4000c1b4:	00 00                	add    %al,(%rax)
    4000c1b6:	08 00                	or     %al,(%rax)
    4000c1b8:	00 00                	add    %al,(%rax)
    4000c1ba:	00 00                	add    %al,(%rax)
    4000c1bc:	05 00 00 00 00       	add    $0x0,%eax
    4000c1c1:	00 00                	add    %al,(%rax)
    4000c1c3:	00 8a 00 00 00 00    	add    %cl,0x0(%rdx)
    4000c1c9:	00 00                	add    %al,(%rax)
    4000c1cb:	00 4c 31 42          	add    %cl,0x42(%rcx,%rsi,1)
    4000c1cf:	54                   	push   %rsp
    4000c1d0:	42                   	rex.X
    4000c1d1:	48 69 74 00 00 00 00 	imul   $0xce0000,0x0(%rax,%rax,1),%rsi
    4000c1d8:	ce 00 
    4000c1da:	00 00                	add    %al,(%rax)
    4000c1dc:	00 20                	add    %ah,(%rax)
    4000c1de:	00 00                	add    %al,(%rax)
    4000c1e0:	00 00                	add    %al,(%rax)
    4000c1e2:	08 00                	or     %al,(%rax)
    4000c1e4:	00 00                	add    %al,(%rax)
    4000c1e6:	00 00                	add    %al,(%rax)
    4000c1e8:	05 00 00 00 00       	add    $0x0,%eax
    4000c1ed:	00 00                	add    %al,(%rax)
    4000c1ef:	00 8b 00 00 00 00    	add    %cl,0x0(%rbx)
    4000c1f5:	00 00                	add    %al,(%rax)
    4000c1f7:	00 4c 32 42          	add    %cl,0x42(%rdx,%rsi,1)
    4000c1fb:	54                   	push   %rsp
    4000c1fc:	42                   	rex.X
    4000c1fd:	48 69 74 00 00 00 00 	imul   $0xd20000,0x0(%rax,%rax,1),%rsi
    4000c204:	d2 00 
    4000c206:	00 00                	add    %al,(%rax)
    4000c208:	00 20                	add    %ah,(%rax)
    4000c20a:	00 00                	add    %al,(%rax)
    4000c20c:	00 00                	add    %al,(%rax)
    4000c20e:	08 00                	or     %al,(%rax)
    4000c210:	00 00                	add    %al,(%rax)
    4000c212:	00 00                	add    %al,(%rax)
    4000c214:	05 00 00 00 00       	add    $0x0,%eax
    4000c219:	00 00                	add    %al,(%rax)
    4000c21b:	00 cc                	add    %cl,%ah
    4000c21d:	00 00                	add    %al,(%rax)
    4000c21f:	00 00                	add    %al,(%rax)
    4000c221:	00 00                	add    %al,(%rax)
    4000c223:	00 42 72             	add    %al,0x72(%rdx)
    4000c226:	49 6e                	rex.WB outsb %ds:(%rsi),(%dx)
    4000c228:	64 4d 69 73 70 00 00 	imul   $0xffffffffd3000000,%fs:0x70(%r11),%r14
    4000c22f:	00 d3 
    4000c231:	00 00                	add    %al,(%rax)
    4000c233:	00 00                	add    %al,(%rax)
    4000c235:	20 00                	and    %al,(%rax)
    4000c237:	00 00                	add    %al,(%rax)
    4000c239:	00 08                	add    %cl,(%rax)
    4000c23b:	00 00                	add    %al,(%rax)
    4000c23d:	00 00                	add    %al,(%rax)
    4000c23f:	00 05 00 00 00 00    	add    %al,0x0(%rip)        # 4000c245 <CounterDefinitions+0x4165>
    4000c245:	00 00                	add    %al,(%rax)
    4000c247:	00 c7                	add    %al,%bh
    4000c249:	00 00                	add    %al,(%rax)
    4000c24b:	00 01                	add    %al,(%rcx)
    4000c24d:	00 00                	add    %al,(%rax)
    4000c24f:	00 4d 69             	add    %cl,0x69(%rbp)
    4000c252:	73 70                	jae    4000c2c4 <CounterDefinitions+0x41e4>
    4000c254:	44 69 72 00 00 00 00 	imul   $0x0,0x0(%rdx),%r14d
    4000c25b:	00 
    4000c25c:	d4                   	(bad)  
    4000c25d:	00 00                	add    %al,(%rax)
    4000c25f:	00 00                	add    %al,(%rax)
    4000c261:	20 00                	and    %al,(%rax)
    4000c263:	00 00                	add    %al,(%rax)
    4000c265:	00 08                	add    %cl,(%rax)
    4000c267:	00 00                	add    %al,(%rax)
    4000c269:	00 00                	add    %al,(%rax)
    4000c26b:	00 05 00 00 00 00    	add    %al,0x0(%rip)        # 4000c271 <CounterDefinitions+0x4191>
    4000c271:	00 00                	add    %al,(%rax)
    4000c273:	00 c9                	add    %cl,%cl
    4000c275:	00 00                	add    %al,(%rax)
    4000c277:	00 00                	add    %al,(%rax)
    4000c279:	00 00                	add    %al,(%rax)
    4000c27b:	00 4e 65             	add    %cl,0x65(%rsi)
    4000c27e:	61                   	(bad)  
    4000c27f:	72 52                	jb     4000c2d3 <CounterDefinitions+0x41f3>
    4000c281:	65 74 00             	gs je  4000c284 <CounterDefinitions+0x41a4>
    4000c284:	00 00                	add    %al,(%rax)
    4000c286:	00 00                	add    %al,(%rax)
    4000c288:	d5                   	(bad)  
    4000c289:	00 00                	add    %al,(%rax)
    4000c28b:	00 00                	add    %al,(%rax)
    4000c28d:	20 00                	and    %al,(%rax)
    4000c28f:	00 00                	add    %al,(%rax)
    4000c291:	00 08                	add    %cl,(%rax)
    4000c293:	00 00                	add    %al,(%rax)
    4000c295:	00 00                	add    %al,(%rax)
    4000c297:	00 05 00 00 00 00    	add    %al,0x0(%rip)        # 4000c29d <CounterDefinitions+0x41bd>
    4000c29d:	00 00                	add    %al,(%rax)
    4000c29f:	00 91 00 00 00 00    	add    %dl,0x0(%rcx)
    4000c2a5:	00 00                	add    %al,(%rax)
    4000c2a7:	00 72 65             	add    %dh,0x65(%rdx)
    4000c2aa:	73 74                	jae    4000c320 <CounterDefinitions+0x4240>
    4000c2ac:	65 65 72 73          	gs gs jb 4000c323 <CounterDefinitions+0x4243>
    4000c2b0:	00 00                	add    %al,(%rax)
    4000c2b2:	00 00                	add    %al,(%rax)
    4000c2b4:	36 01 00             	ss add %eax,(%rax)
    4000c2b7:	00 00                	add    %al,(%rax)
    4000c2b9:	20 00                	and    %al,(%rax)
    4000c2bb:	00 00                	add    %al,(%rax)
    4000c2bd:	00 08                	add    %cl,(%rax)
    4000c2bf:	00 00                	add    %al,(%rax)
    4000c2c1:	00 00                	add    %al,(%rax)
    4000c2c3:	00 05 00 00 00 00    	add    %al,0x0(%rip)        # 4000c2c9 <CounterDefinitions+0x41e9>
    4000c2c9:	00 00                	add    %al,(%rax)
    4000c2cb:	00 81 00 00 00 00    	add    %al,0x0(%rcx)
    4000c2d1:	00 00                	add    %al,(%rax)
    4000c2d3:	00 43 6f             	add    %al,0x6f(%rbx)
    4000c2d6:	64 65 4d 69 73 73 00 	fs imul $0x0,%gs:0x73(%r11),%r14
    4000c2dd:	00 00 00 
    4000c2e0:	40 01 00             	rex add %eax,(%rax)
    4000c2e3:	00 00                	add    %al,(%rax)
    4000c2e5:	20 00                	and    %al,(%rax)
    4000c2e7:	00 00                	add    %al,(%rax)
    4000c2e9:	00 08                	add    %cl,(%rax)
    4000c2eb:	00 00                	add    %al,(%rax)
    4000c2ed:	00 00                	add    %al,(%rax)
    4000c2ef:	00 05 00 00 00 00    	add    %al,0x0(%rip)        # 4000c2f5 <CounterDefinitions+0x4215>
    4000c2f5:	00 00                	add    %al,(%rax)
    4000c2f7:	00 60 00             	add    %ah,0x0(%rax)
    4000c2fa:	00 00                	add    %al,(%rax)
    4000c2fc:	ff 00                	incl   (%rax)
    4000c2fe:	00 00                	add    %al,(%rax)
    4000c300:	4c 32 20             	rex.WR xor (%rax),%r12b
    4000c303:	72 65                	jb     4000c36a <CounterDefinitions+0x428a>
    4000c305:	71 2e                	jno    4000c335 <CounterDefinitions+0x4255>
    4000c307:	00 00                	add    %al,(%rax)
    4000c309:	00 00                	add    %al,(%rax)
    4000c30b:	00 00                	add    %al,(%rax)
    4000c30d:	10 00                	adc    %al,(%rax)
    4000c30f:	00 00                	add    %al,(%rax)
    4000c311:	00 10                	add    %dl,(%rax)
    4000c313:	00 ff                	add    %bh,%bh
    4000c315:	ff                   	(bad)  
    4000c316:	ff                   	(bad)  
    4000c317:	ff 00                	incl   (%rax)
    4000c319:	00 00                	add    %al,(%rax)
    4000c31b:	00 01                	add    %al,(%rcx)
	...
    4000c329:	00 00                	add    %al,(%rax)
    4000c32b:	00 49 6e             	add    %cl,0x6e(%rcx)
    4000c32e:	73 74                	jae    4000c3a4 <CounterDefinitions+0x42c4>
    4000c330:	72 00                	jb     4000c332 <CounterDefinitions+0x4252>
    4000c332:	00 00                	add    %al,(%rax)
    4000c334:	00 00                	add    %al,(%rax)
    4000c336:	00 00                	add    %al,(%rax)
    4000c338:	01 00                	add    %eax,(%rax)
    4000c33a:	00 00                	add    %al,(%rax)
    4000c33c:	00 00                	add    %al,(%rax)
    4000c33e:	10 00                	adc    %al,(%rax)
    4000c340:	ff                   	(bad)  
    4000c341:	ff                   	(bad)  
    4000c342:	ff                   	(bad)  
    4000c343:	ff 00                	incl   (%rax)
    4000c345:	00 00                	add    %al,(%rax)
    4000c347:	00 01                	add    %al,(%rcx)
    4000c349:	00 00                	add    %al,(%rax)
    4000c34b:	00 00                	add    %al,(%rax)
    4000c34d:	00 00                	add    %al,(%rax)
    4000c34f:	00 01                	add    %al,(%rcx)
    4000c351:	00 00                	add    %al,(%rax)
    4000c353:	00 00                	add    %al,(%rax)
    4000c355:	00 00                	add    %al,(%rax)
    4000c357:	00 75 6f             	add    %dh,0x6f(%rbp)
    4000c35a:	70 73                	jo     4000c3cf <CounterDefinitions+0x42ef>
	...
    4000c364:	02 00                	add    (%rax),%al
    4000c366:	00 00                	add    %al,(%rax)
    4000c368:	00 00                	add    %al,(%rax)
    4000c36a:	10 00                	adc    %al,(%rax)
    4000c36c:	ff                   	(bad)  
    4000c36d:	ff                   	(bad)  
    4000c36e:	ff                   	(bad)  
    4000c36f:	ff 00                	incl   (%rax)
    4000c371:	00 00                	add    %al,(%rax)
    4000c373:	00 01                	add    %al,(%rcx)
    4000c375:	00 00                	add    %al,(%rax)
    4000c377:	00 00                	add    %al,(%rax)
    4000c379:	00 00                	add    %al,(%rax)
    4000c37b:	00 02                	add    %al,(%rdx)
    4000c37d:	00 00                	add    %al,(%rax)
    4000c37f:	00 00                	add    %al,(%rax)
    4000c381:	00 00                	add    %al,(%rax)
    4000c383:	00 32                	add    %dh,(%rdx)
	...
    4000c38d:	00 00                	add    %al,(%rax)
    4000c38f:	00 03                	add    %al,(%rbx)
    4000c391:	00 00                	add    %al,(%rax)
    4000c393:	00 00                	add    %al,(%rax)
    4000c395:	00 10                	add    %dl,(%rax)
    4000c397:	00 ff                	add    %bh,%bh
    4000c399:	ff                   	(bad)  
    4000c39a:	ff                   	(bad)  
    4000c39b:	ff 00                	incl   (%rax)
    4000c39d:	00 00                	add    %al,(%rax)
    4000c39f:	00 01                	add    %al,(%rcx)
    4000c3a1:	00 00                	add    %al,(%rax)
    4000c3a3:	00 00                	add    %al,(%rax)
    4000c3a5:	00 00                	add    %al,(%rax)
    4000c3a7:	00 03                	add    %al,(%rbx)
    4000c3a9:	00 00                	add    %al,(%rax)
    4000c3ab:	00 00                	add    %al,(%rax)
    4000c3ad:	00 00                	add    %al,(%rax)
    4000c3af:	00 33                	add    %dh,(%rbx)
	...
    4000c3b9:	00 00                	add    %al,(%rax)
    4000c3bb:	00 04 00             	add    %al,(%rax,%rax,1)
    4000c3be:	00 00                	add    %al,(%rax)
    4000c3c0:	00 00                	add    %al,(%rax)
    4000c3c2:	10 00                	adc    %al,(%rax)
    4000c3c4:	ff                   	(bad)  
    4000c3c5:	ff                   	(bad)  
    4000c3c6:	ff                   	(bad)  
    4000c3c7:	ff 00                	incl   (%rax)
    4000c3c9:	00 00                	add    %al,(%rax)
    4000c3cb:	00 01                	add    %al,(%rcx)
    4000c3cd:	00 00                	add    %al,(%rax)
    4000c3cf:	00 00                	add    %al,(%rax)
    4000c3d1:	00 00                	add    %al,(%rax)
    4000c3d3:	00 04 00             	add    %al,(%rax,%rax,1)
    4000c3d6:	00 00                	add    %al,(%rax)
    4000c3d8:	00 00                	add    %al,(%rax)
    4000c3da:	00 00                	add    %al,(%rax)
    4000c3dc:	62                   	(bad)  
    4000c3dd:	75 62                	jne    4000c441 <CounterDefinitions+0x4361>
    4000c3df:	62                   	(bad)  
    4000c3e0:	6c                   	insb   (%dx),%es:(%rdi)
    4000c3e1:	65 00 00             	add    %al,%gs:(%rax)
    4000c3e4:	00 00                	add    %al,(%rax)
    4000c3e6:	00 00                	add    %al,(%rax)
    4000c3e8:	05 00 00 00 00       	add    $0x0,%eax
    4000c3ed:	00 10                	add    %dl,(%rax)
    4000c3ef:	00 ff                	add    %bh,%bh
    4000c3f1:	ff                   	(bad)  
    4000c3f2:	ff                   	(bad)  
    4000c3f3:	ff 00                	incl   (%rax)
    4000c3f5:	00 00                	add    %al,(%rax)
    4000c3f7:	00 01                	add    %al,(%rcx)
    4000c3f9:	00 00                	add    %al,(%rax)
    4000c3fb:	00 00                	add    %al,(%rax)
    4000c3fd:	00 00                	add    %al,(%rax)
    4000c3ff:	00 05 00 00 00 00    	add    %al,0x0(%rip)        # 4000c405 <CounterDefinitions+0x4325>
    4000c405:	00 00                	add    %al,(%rax)
    4000c407:	00 35 00 00 00 00    	add    %dh,0x0(%rip)        # 4000c40d <CounterDefinitions+0x432d>
    4000c40d:	00 00                	add    %al,(%rax)
    4000c40f:	00 00                	add    %al,(%rax)
    4000c411:	00 00                	add    %al,(%rax)
    4000c413:	00 06                	add    %al,(%rsi)
    4000c415:	00 00                	add    %al,(%rax)
    4000c417:	00 00                	add    %al,(%rax)
    4000c419:	00 10                	add    %dl,(%rax)
    4000c41b:	00 ff                	add    %bh,%bh
    4000c41d:	ff                   	(bad)  
    4000c41e:	ff                   	(bad)  
    4000c41f:	ff 00                	incl   (%rax)
    4000c421:	00 00                	add    %al,(%rax)
    4000c423:	00 01                	add    %al,(%rcx)
    4000c425:	00 00                	add    %al,(%rax)
    4000c427:	00 00                	add    %al,(%rax)
    4000c429:	00 00                	add    %al,(%rax)
    4000c42b:	00 06                	add    %al,(%rsi)
    4000c42d:	00 00                	add    %al,(%rax)
    4000c42f:	00 00                	add    %al,(%rax)
    4000c431:	00 00                	add    %al,(%rax)
    4000c433:	00 36                	add    %dh,(%rsi)
	...
    4000c43d:	00 00                	add    %al,(%rax)
    4000c43f:	00 07                	add    %al,(%rdi)
    4000c441:	00 00                	add    %al,(%rax)
    4000c443:	00 00                	add    %al,(%rax)
    4000c445:	00 10                	add    %dl,(%rax)
    4000c447:	00 ff                	add    %bh,%bh
    4000c449:	ff                   	(bad)  
    4000c44a:	ff                   	(bad)  
    4000c44b:	ff 00                	incl   (%rax)
    4000c44d:	00 00                	add    %al,(%rax)
    4000c44f:	00 01                	add    %al,(%rcx)
    4000c451:	00 00                	add    %al,(%rax)
    4000c453:	00 00                	add    %al,(%rax)
    4000c455:	00 00                	add    %al,(%rax)
    4000c457:	00 07                	add    %al,(%rdi)
    4000c459:	00 00                	add    %al,(%rax)
    4000c45b:	00 00                	add    %al,(%rax)
    4000c45d:	00 00                	add    %al,(%rax)
    4000c45f:	00 37                	add    %dh,(%rdi)
	...
    4000c469:	00 00                	add    %al,(%rax)
    4000c46b:	00 08                	add    %cl,(%rax)
    4000c46d:	00 00                	add    %al,(%rax)
    4000c46f:	00 00                	add    %al,(%rax)
    4000c471:	00 10                	add    %dl,(%rax)
    4000c473:	00 ff                	add    %bh,%bh
    4000c475:	ff                   	(bad)  
    4000c476:	ff                   	(bad)  
    4000c477:	ff 00                	incl   (%rax)
    4000c479:	00 00                	add    %al,(%rax)
    4000c47b:	00 01                	add    %al,(%rcx)
    4000c47d:	00 00                	add    %al,(%rax)
    4000c47f:	00 00                	add    %al,(%rax)
    4000c481:	00 00                	add    %al,(%rax)
    4000c483:	00 08                	add    %cl,(%rax)
    4000c485:	00 00                	add    %al,(%rax)
    4000c487:	00 00                	add    %al,(%rax)
    4000c489:	00 00                	add    %al,(%rax)
    4000c48b:	00 38                	add    %bh,(%rax)
	...
    4000c495:	00 00                	add    %al,(%rax)
    4000c497:	00 09                	add    %cl,(%rcx)
    4000c499:	00 00                	add    %al,(%rax)
    4000c49b:	00 00                	add    %al,(%rax)
    4000c49d:	00 10                	add    %dl,(%rax)
    4000c49f:	00 ff                	add    %bh,%bh
    4000c4a1:	ff                   	(bad)  
    4000c4a2:	ff                   	(bad)  
    4000c4a3:	ff 00                	incl   (%rax)
    4000c4a5:	00 00                	add    %al,(%rax)
    4000c4a7:	00 01                	add    %al,(%rcx)
	...
    4000c4b5:	00 00                	add    %al,(%rax)
    4000c4b7:	00 49 6e             	add    %cl,0x6e(%rcx)
    4000c4ba:	73 74                	jae    4000c530 <CounterDefinitions+0x4450>
    4000c4bc:	72 00                	jb     4000c4be <CounterDefinitions+0x43de>
    4000c4be:	00 00                	add    %al,(%rax)
    4000c4c0:	00 00                	add    %al,(%rax)
    4000c4c2:	00 00                	add    %al,(%rax)
    4000c4c4:	10 00                	adc    %al,(%rax)
    4000c4c6:	00 00                	add    %al,(%rax)
    4000c4c8:	00 00                	add    %al,(%rax)
    4000c4ca:	10 00                	adc    %al,(%rax)
    4000c4cc:	ff                   	(bad)  
    4000c4cd:	ff                   	(bad)  
    4000c4ce:	ff                   	(bad)  
    4000c4cf:	ff 00                	incl   (%rax)
    4000c4d1:	00 00                	add    %al,(%rax)
    4000c4d3:	00 01                	add    %al,(%rcx)
    4000c4d5:	00 00                	add    %al,(%rax)
    4000c4d7:	00 00                	add    %al,(%rax)
    4000c4d9:	00 00                	add    %al,(%rax)
    4000c4db:	00 10                	add    %dl,(%rax)
    4000c4dd:	00 00                	add    %al,(%rax)
    4000c4df:	00 00                	add    %al,(%rax)
    4000c4e1:	00 00                	add    %al,(%rax)
    4000c4e3:	00 31                	add    %dh,(%rcx)
    4000c4e5:	30 00                	xor    %al,(%rax)
	...
    4000c4ef:	00 14 00             	add    %dl,(%rax,%rax,1)
    4000c4f2:	00 00                	add    %al,(%rax)
    4000c4f4:	00 00                	add    %al,(%rax)
    4000c4f6:	10 00                	adc    %al,(%rax)
    4000c4f8:	ff                   	(bad)  
    4000c4f9:	ff                   	(bad)  
    4000c4fa:	ff                   	(bad)  
    4000c4fb:	ff 00                	incl   (%rax)
    4000c4fd:	00 00                	add    %al,(%rax)
    4000c4ff:	00 01                	add    %al,(%rcx)
    4000c501:	00 00                	add    %al,(%rax)
    4000c503:	00 00                	add    %al,(%rax)
    4000c505:	00 00                	add    %al,(%rax)
    4000c507:	00 14 00             	add    %dl,(%rax,%rax,1)
    4000c50a:	00 00                	add    %al,(%rax)
    4000c50c:	00 00                	add    %al,(%rax)
    4000c50e:	00 00                	add    %al,(%rax)
    4000c510:	31 34 00             	xor    %esi,(%rax,%rax,1)
	...
    4000c51b:	00 20                	add    %ah,(%rax)
    4000c51d:	00 00                	add    %al,(%rax)
    4000c51f:	00 00                	add    %al,(%rax)
    4000c521:	00 10                	add    %dl,(%rax)
    4000c523:	00 ff                	add    %bh,%bh
    4000c525:	ff                   	(bad)  
    4000c526:	ff                   	(bad)  
    4000c527:	ff 00                	incl   (%rax)
    4000c529:	00 00                	add    %al,(%rax)
    4000c52b:	00 01                	add    %al,(%rcx)
    4000c52d:	00 00                	add    %al,(%rax)
    4000c52f:	00 00                	add    %al,(%rax)
    4000c531:	00 00                	add    %al,(%rax)
    4000c533:	00 20                	add    %ah,(%rax)
    4000c535:	00 00                	add    %al,(%rax)
    4000c537:	00 00                	add    %al,(%rax)
    4000c539:	00 00                	add    %al,(%rax)
    4000c53b:	00 42 72             	add    %al,0x72(%rdx)
    4000c53e:	20 4e 54             	and    %cl,0x54(%rsi)
    4000c541:	00 00                	add    %al,(%rax)
    4000c543:	00 00                	add    %al,(%rax)
    4000c545:	00 00                	add    %al,(%rax)
    4000c547:	00 21                	add    %ah,(%rcx)
    4000c549:	00 00                	add    %al,(%rax)
    4000c54b:	00 00                	add    %al,(%rax)
    4000c54d:	00 10                	add    %dl,(%rax)
    4000c54f:	00 ff                	add    %bh,%bh
    4000c551:	ff                   	(bad)  
    4000c552:	ff                   	(bad)  
    4000c553:	ff 00                	incl   (%rax)
    4000c555:	00 00                	add    %al,(%rax)
    4000c557:	00 01                	add    %al,(%rcx)
    4000c559:	00 00                	add    %al,(%rax)
    4000c55b:	00 00                	add    %al,(%rax)
    4000c55d:	00 00                	add    %al,(%rax)
    4000c55f:	00 21                	add    %ah,(%rcx)
    4000c561:	00 00                	add    %al,(%rax)
    4000c563:	00 00                	add    %al,(%rax)
    4000c565:	00 00                	add    %al,(%rax)
    4000c567:	00 42 72             	add    %al,0x72(%rdx)
    4000c56a:	20 4e 54             	and    %cl,0x54(%rsi)
    4000c56d:	20 50 72             	and    %dl,0x72(%rax)
    4000c570:	00 00                	add    %al,(%rax)
    4000c572:	00 00                	add    %al,(%rax)
    4000c574:	22 00                	and    (%rax),%al
    4000c576:	00 00                	add    %al,(%rax)
    4000c578:	00 00                	add    %al,(%rax)
    4000c57a:	10 00                	adc    %al,(%rax)
    4000c57c:	ff                   	(bad)  
    4000c57d:	ff                   	(bad)  
    4000c57e:	ff                   	(bad)  
    4000c57f:	ff 00                	incl   (%rax)
    4000c581:	00 00                	add    %al,(%rax)
    4000c583:	00 01                	add    %al,(%rcx)
    4000c585:	00 00                	add    %al,(%rax)
    4000c587:	00 00                	add    %al,(%rax)
    4000c589:	00 00                	add    %al,(%rax)
    4000c58b:	00 22                	add    %ah,(%rdx)
    4000c58d:	00 00                	add    %al,(%rax)
    4000c58f:	00 00                	add    %al,(%rax)
    4000c591:	00 00                	add    %al,(%rax)
    4000c593:	00 42 72             	add    %al,0x72(%rdx)
    4000c596:	20 54 6b 00          	and    %dl,0x0(%rbx,%rbp,2)
    4000c59a:	00 00                	add    %al,(%rax)
    4000c59c:	00 00                	add    %al,(%rax)
    4000c59e:	00 00                	add    %al,(%rax)
    4000c5a0:	23 00                	and    (%rax),%eax
    4000c5a2:	00 00                	add    %al,(%rax)
    4000c5a4:	00 00                	add    %al,(%rax)
    4000c5a6:	10 00                	adc    %al,(%rax)
    4000c5a8:	ff                   	(bad)  
    4000c5a9:	ff                   	(bad)  
    4000c5aa:	ff                   	(bad)  
    4000c5ab:	ff 00                	incl   (%rax)
    4000c5ad:	00 00                	add    %al,(%rax)
    4000c5af:	00 01                	add    %al,(%rcx)
    4000c5b1:	00 00                	add    %al,(%rax)
    4000c5b3:	00 00                	add    %al,(%rax)
    4000c5b5:	00 00                	add    %al,(%rax)
    4000c5b7:	00 23                	add    %ah,(%rbx)
    4000c5b9:	00 00                	add    %al,(%rax)
    4000c5bb:	00 00                	add    %al,(%rax)
    4000c5bd:	00 00                	add    %al,(%rax)
    4000c5bf:	00 42 72             	add    %al,0x72(%rdx)
    4000c5c2:	20 54 6b 20          	and    %dl,0x20(%rbx,%rbp,2)
    4000c5c6:	50                   	push   %rax
    4000c5c7:	72 00                	jb     4000c5c9 <CounterDefinitions+0x44e9>
    4000c5c9:	00 00                	add    %al,(%rax)
    4000c5cb:	00 24 00             	add    %ah,(%rax,%rax,1)
    4000c5ce:	00 00                	add    %al,(%rax)
    4000c5d0:	00 00                	add    %al,(%rax)
    4000c5d2:	10 00                	adc    %al,(%rax)
    4000c5d4:	ff                   	(bad)  
    4000c5d5:	ff                   	(bad)  
    4000c5d6:	ff                   	(bad)  
    4000c5d7:	ff 00                	incl   (%rax)
    4000c5d9:	00 00                	add    %al,(%rax)
    4000c5db:	00 01                	add    %al,(%rcx)
    4000c5dd:	00 00                	add    %al,(%rax)
    4000c5df:	00 00                	add    %al,(%rax)
    4000c5e1:	00 00                	add    %al,(%rax)
    4000c5e3:	00 24 00             	add    %ah,(%rax,%rax,1)
    4000c5e6:	00 00                	add    %al,(%rax)
    4000c5e8:	00 00                	add    %al,(%rax)
    4000c5ea:	00 00                	add    %al,(%rax)
    4000c5ec:	4a 6d                	rex.WX insl (%dx),%es:(%rdi)
    4000c5ee:	70 00                	jo     4000c5f0 <CounterDefinitions+0x4510>
	...
    4000c5f8:	25 00 00 00 00       	and    $0x0,%eax
    4000c5fd:	00 10                	add    %dl,(%rax)
    4000c5ff:	00 ff                	add    %bh,%bh
    4000c601:	ff                   	(bad)  
    4000c602:	ff                   	(bad)  
    4000c603:	ff 00                	incl   (%rax)
    4000c605:	00 00                	add    %al,(%rax)
    4000c607:	00 01                	add    %al,(%rcx)
    4000c609:	00 00                	add    %al,(%rax)
    4000c60b:	00 00                	add    %al,(%rax)
    4000c60d:	00 00                	add    %al,(%rax)
    4000c60f:	00 25 00 00 00 00    	add    %ah,0x0(%rip)        # 4000c615 <CounterDefinitions+0x4535>
    4000c615:	00 00                	add    %al,(%rax)
    4000c617:	00 4a 6d             	add    %cl,0x6d(%rdx)
    4000c61a:	70 00                	jo     4000c61c <CounterDefinitions+0x453c>
	...
    4000c624:	26 00 00             	es add %al,(%rax)
    4000c627:	00 00                	add    %al,(%rax)
    4000c629:	00 10                	add    %dl,(%rax)
    4000c62b:	00 ff                	add    %bh,%bh
    4000c62d:	ff                   	(bad)  
    4000c62e:	ff                   	(bad)  
    4000c62f:	ff 00                	incl   (%rax)
    4000c631:	00 00                	add    %al,(%rax)
    4000c633:	00 01                	add    %al,(%rcx)
    4000c635:	00 00                	add    %al,(%rax)
    4000c637:	00 00                	add    %al,(%rax)
    4000c639:	00 00                	add    %al,(%rax)
    4000c63b:	00 26                	add    %ah,(%rsi)
    4000c63d:	00 00                	add    %al,(%rax)
    4000c63f:	00 00                	add    %al,(%rax)
    4000c641:	00 00                	add    %al,(%rax)
    4000c643:	00 49 6e             	add    %cl,0x6e(%rcx)
    4000c646:	64 2e 4a 6d          	fs cs rex.WX insl (%dx),%es:(%rdi)
    4000c64a:	70 00                	jo     4000c64c <CounterDefinitions+0x456c>
    4000c64c:	00 00                	add    %al,(%rax)
    4000c64e:	00 00                	add    %al,(%rax)
    4000c650:	27                   	(bad)  
    4000c651:	00 00                	add    %al,(%rax)
    4000c653:	00 00                	add    %al,(%rax)
    4000c655:	00 10                	add    %dl,(%rax)
    4000c657:	00 ff                	add    %bh,%bh
    4000c659:	ff                   	(bad)  
    4000c65a:	ff                   	(bad)  
    4000c65b:	ff 00                	incl   (%rax)
    4000c65d:	00 00                	add    %al,(%rax)
    4000c65f:	00 01                	add    %al,(%rcx)
    4000c661:	00 00                	add    %al,(%rax)
    4000c663:	00 00                	add    %al,(%rax)
    4000c665:	00 00                	add    %al,(%rax)
    4000c667:	00 27                	add    %ah,(%rdi)
    4000c669:	00 00                	add    %al,(%rax)
    4000c66b:	00 00                	add    %al,(%rax)
    4000c66d:	00 00                	add    %al,(%rax)
    4000c66f:	00 49 6e             	add    %cl,0x6e(%rcx)
    4000c672:	64 2e 4a             	fs cs rex.WX
    4000c675:	2e 20 50 72          	cs and %dl,0x72(%rax)
    4000c679:	00 00                	add    %al,(%rax)
    4000c67b:	00 34 00             	add    %dh,(%rax,%rax,1)
    4000c67e:	00 00                	add    %al,(%rax)
    4000c680:	00 00                	add    %al,(%rax)
    4000c682:	10 00                	adc    %al,(%rax)
    4000c684:	ff                   	(bad)  
    4000c685:	ff                   	(bad)  
    4000c686:	ff                   	(bad)  
    4000c687:	ff 00                	incl   (%rax)
    4000c689:	00 00                	add    %al,(%rax)
    4000c68b:	00 01                	add    %al,(%rcx)
    4000c68d:	00 00                	add    %al,(%rax)
    4000c68f:	00 00                	add    %al,(%rax)
    4000c691:	00 00                	add    %al,(%rax)
    4000c693:	00 34 00             	add    %dh,(%rax,%rax,1)
    4000c696:	00 00                	add    %al,(%rax)
    4000c698:	00 00                	add    %al,(%rax)
    4000c69a:	00 00                	add    %al,(%rax)
    4000c69c:	33 34 00             	xor    (%rax,%rax,1),%esi
	...
    4000c6a7:	00 40 00             	add    %al,0x0(%rax)
    4000c6aa:	00 00                	add    %al,(%rax)
    4000c6ac:	00 00                	add    %al,(%rax)
    4000c6ae:	10 00                	adc    %al,(%rax)
    4000c6b0:	ff                   	(bad)  
    4000c6b1:	ff                   	(bad)  
    4000c6b2:	ff                   	(bad)  
    4000c6b3:	ff 00                	incl   (%rax)
    4000c6b5:	00 00                	add    %al,(%rax)
    4000c6b7:	00 01                	add    %al,(%rcx)
    4000c6b9:	00 00                	add    %al,(%rax)
    4000c6bb:	00 00                	add    %al,(%rax)
    4000c6bd:	00 00                	add    %al,(%rax)
    4000c6bf:	00 40 00             	add    %al,0x0(%rax)
    4000c6c2:	00 00                	add    %al,(%rax)
    4000c6c4:	00 00                	add    %al,(%rax)
    4000c6c6:	00 00                	add    %al,(%rax)
    4000c6c8:	34 30                	xor    $0x30,%al
	...
    4000c6d2:	00 00                	add    %al,(%rax)
    4000c6d4:	41 00 00             	add    %al,(%r8)
    4000c6d7:	00 00                	add    %al,(%rax)
    4000c6d9:	00 10                	add    %dl,(%rax)
    4000c6db:	00 ff                	add    %bh,%bh
    4000c6dd:	ff                   	(bad)  
    4000c6de:	ff                   	(bad)  
    4000c6df:	ff 00                	incl   (%rax)
    4000c6e1:	00 00                	add    %al,(%rax)
    4000c6e3:	00 01                	add    %al,(%rcx)
    4000c6e5:	00 00                	add    %al,(%rax)
    4000c6e7:	00 00                	add    %al,(%rax)
    4000c6e9:	00 00                	add    %al,(%rax)
    4000c6eb:	00 40 00             	add    %al,0x0(%rax)
    4000c6ee:	00 00                	add    %al,(%rax)
    4000c6f0:	00 00                	add    %al,(%rax)
    4000c6f2:	00 00                	add    %al,(%rax)
    4000c6f4:	34 31                	xor    $0x31,%al
	...
    4000c6fe:	00 00                	add    %al,(%rax)
    4000c700:	42 00 00             	rex.X add %al,(%rax)
    4000c703:	00 00                	add    %al,(%rax)
    4000c705:	00 10                	add    %dl,(%rax)
    4000c707:	00 ff                	add    %bh,%bh
    4000c709:	ff                   	(bad)  
    4000c70a:	ff                   	(bad)  
    4000c70b:	ff 00                	incl   (%rax)
    4000c70d:	00 00                	add    %al,(%rax)
    4000c70f:	00 01                	add    %al,(%rcx)
    4000c711:	00 00                	add    %al,(%rax)
    4000c713:	00 00                	add    %al,(%rax)
    4000c715:	00 00                	add    %al,(%rax)
    4000c717:	00 40 00             	add    %al,0x0(%rax)
    4000c71a:	00 00                	add    %al,(%rax)
    4000c71c:	00 00                	add    %al,(%rax)
    4000c71e:	00 00                	add    %al,(%rax)
    4000c720:	34 32                	xor    $0x32,%al
	...
    4000c72a:	00 00                	add    %al,(%rax)
    4000c72c:	43 00 00             	rex.XB add %al,(%r8)
    4000c72f:	00 00                	add    %al,(%rax)
    4000c731:	00 10                	add    %dl,(%rax)
    4000c733:	00 ff                	add    %bh,%bh
    4000c735:	ff                   	(bad)  
    4000c736:	ff                   	(bad)  
    4000c737:	ff 00                	incl   (%rax)
    4000c739:	00 00                	add    %al,(%rax)
    4000c73b:	00 01                	add    %al,(%rcx)
    4000c73d:	00 00                	add    %al,(%rax)
    4000c73f:	00 00                	add    %al,(%rax)
    4000c741:	00 00                	add    %al,(%rax)
    4000c743:	00 40 00             	add    %al,0x0(%rax)
    4000c746:	00 00                	add    %al,(%rax)
    4000c748:	00 00                	add    %al,(%rax)
    4000c74a:	00 00                	add    %al,(%rax)
    4000c74c:	34 33                	xor    $0x33,%al
	...
    4000c756:	00 00                	add    %al,(%rax)
    4000c758:	44 00 00             	add    %r8b,(%rax)
    4000c75b:	00 00                	add    %al,(%rax)
    4000c75d:	00 10                	add    %dl,(%rax)
    4000c75f:	00 ff                	add    %bh,%bh
    4000c761:	ff                   	(bad)  
    4000c762:	ff                   	(bad)  
    4000c763:	ff 00                	incl   (%rax)
    4000c765:	00 00                	add    %al,(%rax)
    4000c767:	00 01                	add    %al,(%rcx)
    4000c769:	00 00                	add    %al,(%rax)
    4000c76b:	00 00                	add    %al,(%rax)
    4000c76d:	00 00                	add    %al,(%rax)
    4000c76f:	00 40 00             	add    %al,0x0(%rax)
    4000c772:	00 00                	add    %al,(%rax)
    4000c774:	00 00                	add    %al,(%rax)
    4000c776:	00 00                	add    %al,(%rax)
    4000c778:	34 34                	xor    $0x34,%al
	...
    4000c782:	00 00                	add    %al,(%rax)
    4000c784:	46 00 00             	rex.RX add %r8b,(%rax)
    4000c787:	00 00                	add    %al,(%rax)
    4000c789:	00 10                	add    %dl,(%rax)
    4000c78b:	00 ff                	add    %bh,%bh
    4000c78d:	ff                   	(bad)  
    4000c78e:	ff                   	(bad)  
    4000c78f:	ff 00                	incl   (%rax)
    4000c791:	00 00                	add    %al,(%rax)
    4000c793:	00 01                	add    %al,(%rcx)
    4000c795:	00 00                	add    %al,(%rax)
    4000c797:	00 00                	add    %al,(%rax)
    4000c799:	00 00                	add    %al,(%rax)
    4000c79b:	00 40 00             	add    %al,0x0(%rax)
    4000c79e:	00 00                	add    %al,(%rax)
    4000c7a0:	00 00                	add    %al,(%rax)
    4000c7a2:	00 00                	add    %al,(%rax)
    4000c7a4:	34 36                	xor    $0x36,%al
	...
    4000c7ae:	00 00                	add    %al,(%rax)
    4000c7b0:	48 00 00             	rex.W add %al,(%rax)
    4000c7b3:	00 00                	add    %al,(%rax)
    4000c7b5:	00 10                	add    %dl,(%rax)
    4000c7b7:	00 ff                	add    %bh,%bh
    4000c7b9:	ff                   	(bad)  
    4000c7ba:	ff                   	(bad)  
    4000c7bb:	ff 00                	incl   (%rax)
    4000c7bd:	00 00                	add    %al,(%rax)
    4000c7bf:	00 01                	add    %al,(%rcx)
    4000c7c1:	00 00                	add    %al,(%rax)
    4000c7c3:	00 00                	add    %al,(%rax)
    4000c7c5:	00 00                	add    %al,(%rax)
    4000c7c7:	00 40 00             	add    %al,0x0(%rax)
    4000c7ca:	00 00                	add    %al,(%rax)
    4000c7cc:	00 00                	add    %al,(%rax)
    4000c7ce:	00 00                	add    %al,(%rax)
    4000c7d0:	34 38                	xor    $0x38,%al
	...
    4000c7da:	00 00                	add    %al,(%rax)
    4000c7dc:	82                   	(bad)  
    4000c7dd:	00 00                	add    %al,(%rax)
    4000c7df:	00 00                	add    %al,(%rax)
    4000c7e1:	00 10                	add    %dl,(%rax)
    4000c7e3:	00 ff                	add    %bh,%bh
    4000c7e5:	ff                   	(bad)  
    4000c7e6:	ff                   	(bad)  
    4000c7e7:	ff 00                	incl   (%rax)
    4000c7e9:	00 00                	add    %al,(%rax)
    4000c7eb:	00 01                	add    %al,(%rcx)
    4000c7ed:	00 00                	add    %al,(%rax)
    4000c7ef:	00 00                	add    %al,(%rax)
    4000c7f1:	00 00                	add    %al,(%rax)
    4000c7f3:	00 82 00 00 00 00    	add    %al,0x0(%rdx)
    4000c7f9:	00 00                	add    %al,(%rax)
    4000c7fb:	00 38                	add    %bh,(%rax)
    4000c7fd:	32 00                	xor    (%rax),%al
	...
    4000c807:	00 83 00 00 00 00    	add    %al,0x0(%rbx)
    4000c80d:	00 10                	add    %dl,(%rax)
    4000c80f:	00 ff                	add    %bh,%bh
    4000c811:	ff                   	(bad)  
    4000c812:	ff                   	(bad)  
    4000c813:	ff 00                	incl   (%rax)
    4000c815:	00 00                	add    %al,(%rax)
    4000c817:	00 01                	add    %al,(%rcx)
    4000c819:	00 00                	add    %al,(%rax)
    4000c81b:	00 00                	add    %al,(%rax)
    4000c81d:	00 00                	add    %al,(%rax)
    4000c81f:	00 83 00 00 00 00    	add    %al,0x0(%rbx)
    4000c825:	00 00                	add    %al,(%rax)
    4000c827:	00 38                	add    %bh,(%rax)
    4000c829:	33 00                	xor    (%rax),%eax
	...
    4000c833:	00 84 00 00 00 00 00 	add    %al,0x0(%rax,%rax,1)
    4000c83a:	10 00                	adc    %al,(%rax)
    4000c83c:	ff                   	(bad)  
    4000c83d:	ff                   	(bad)  
    4000c83e:	ff                   	(bad)  
    4000c83f:	ff 00                	incl   (%rax)
    4000c841:	00 00                	add    %al,(%rax)
    4000c843:	00 01                	add    %al,(%rcx)
    4000c845:	00 00                	add    %al,(%rax)
    4000c847:	00 00                	add    %al,(%rax)
    4000c849:	00 00                	add    %al,(%rax)
    4000c84b:	00 84 00 00 00 00 00 	add    %al,0x0(%rax,%rax,1)
    4000c852:	00 00                	add    %al,(%rax)
    4000c854:	38 34 00             	cmp    %dh,(%rax,%rax,1)
	...
    4000c85f:	00 b4 00 00 00 00 00 	add    %dh,0x0(%rax,%rax,1)
    4000c866:	10 00                	adc    %al,(%rax)
    4000c868:	ff                   	(bad)  
    4000c869:	ff                   	(bad)  
    4000c86a:	ff                   	(bad)  
    4000c86b:	ff 00                	incl   (%rax)
    4000c86d:	00 00                	add    %al,(%rax)
    4000c86f:	00 01                	add    %al,(%rcx)
    4000c871:	00 00                	add    %al,(%rax)
    4000c873:	00 00                	add    %al,(%rax)
    4000c875:	00 00                	add    %al,(%rax)
    4000c877:	00 b4 00 00 00 00 00 	add    %dh,0x0(%rax,%rax,1)
    4000c87e:	00 00                	add    %al,(%rax)
    4000c880:	42 34 00             	rex.X xor $0x0,%al
	...
    4000c88b:	00 c0                	add    %al,%al
    4000c88d:	00 00                	add    %al,(%rax)
    4000c88f:	00 00                	add    %al,(%rax)
    4000c891:	00 10                	add    %dl,(%rax)
    4000c893:	00 ff                	add    %bh,%bh
    4000c895:	ff                   	(bad)  
    4000c896:	ff                   	(bad)  
    4000c897:	ff 00                	incl   (%rax)
    4000c899:	00 00                	add    %al,(%rax)
    4000c89b:	00 01                	add    %al,(%rcx)
    4000c89d:	00 00                	add    %al,(%rax)
    4000c89f:	00 00                	add    %al,(%rax)
    4000c8a1:	00 00                	add    %al,(%rax)
    4000c8a3:	00 c0                	add    %al,%al
    4000c8a5:	00 00                	add    %al,(%rax)
    4000c8a7:	00 00                	add    %al,(%rax)
    4000c8a9:	00 00                	add    %al,(%rax)
    4000c8ab:	00 43 30             	add    %al,0x30(%rbx)
	...
    4000c8b6:	00 00                	add    %al,(%rax)
    4000c8b8:	c4                   	(bad)  
    4000c8b9:	00 00                	add    %al,(%rax)
    4000c8bb:	00 00                	add    %al,(%rax)
    4000c8bd:	00 10                	add    %dl,(%rax)
    4000c8bf:	00 ff                	add    %bh,%bh
    4000c8c1:	ff                   	(bad)  
    4000c8c2:	ff                   	(bad)  
    4000c8c3:	ff 00                	incl   (%rax)
    4000c8c5:	00 00                	add    %al,(%rax)
    4000c8c7:	00 01                	add    %al,(%rcx)
    4000c8c9:	00 00                	add    %al,(%rax)
    4000c8cb:	00 00                	add    %al,(%rax)
    4000c8cd:	00 00                	add    %al,(%rax)
    4000c8cf:	00 c4                	add    %al,%ah
    4000c8d1:	00 00                	add    %al,(%rax)
    4000c8d3:	00 00                	add    %al,(%rax)
    4000c8d5:	00 00                	add    %al,(%rax)
    4000c8d7:	00 43 34             	add    %al,0x34(%rbx)
	...
    4000c8e2:	00 00                	add    %al,(%rax)
    4000c8e4:	04 01                	add    $0x1,%al
    4000c8e6:	00 00                	add    %al,(%rax)
    4000c8e8:	00 00                	add    %al,(%rax)
    4000c8ea:	10 00                	adc    %al,(%rax)
    4000c8ec:	ff                   	(bad)  
    4000c8ed:	ff                   	(bad)  
    4000c8ee:	ff                   	(bad)  
    4000c8ef:	ff 00                	incl   (%rax)
    4000c8f1:	00 00                	add    %al,(%rax)
    4000c8f3:	00 01                	add    %al,(%rcx)
    4000c8f5:	00 00                	add    %al,(%rax)
    4000c8f7:	00 00                	add    %al,(%rax)
    4000c8f9:	00 00                	add    %al,(%rax)
    4000c8fb:	00 04 01             	add    %al,(%rcx,%rax,1)
    4000c8fe:	00 00                	add    %al,(%rax)
    4000c900:	00 00                	add    %al,(%rax)
    4000c902:	00 00                	add    %al,(%rax)
    4000c904:	31 30                	xor    %esi,(%rax)
    4000c906:	34 00                	xor    $0x0,%al
	...
    4000c910:	05 01 00 00 00       	add    $0x1,%eax
    4000c915:	00 10                	add    %dl,(%rax)
    4000c917:	00 ff                	add    %bh,%bh
    4000c919:	ff                   	(bad)  
    4000c91a:	ff                   	(bad)  
    4000c91b:	ff 00                	incl   (%rax)
    4000c91d:	00 00                	add    %al,(%rax)
    4000c91f:	00 01                	add    %al,(%rcx)
    4000c921:	00 00                	add    %al,(%rax)
    4000c923:	00 00                	add    %al,(%rax)
    4000c925:	00 00                	add    %al,(%rax)
    4000c927:	00 05 01 00 00 00    	add    %al,0x1(%rip)        # 4000c92e <CounterDefinitions+0x484e>
    4000c92d:	00 00                	add    %al,(%rax)
    4000c92f:	00 31                	add    %dh,(%rcx)
    4000c931:	30 35 00 00 00 00    	xor    %dh,0x0(%rip)        # 4000c937 <CounterDefinitions+0x4857>
    4000c937:	00 00                	add    %al,(%rax)
    4000c939:	00 00                	add    %al,(%rax)
    4000c93b:	00 06                	add    %al,(%rsi)
    4000c93d:	01 00                	add    %eax,(%rax)
    4000c93f:	00 00                	add    %al,(%rax)
    4000c941:	00 10                	add    %dl,(%rax)
    4000c943:	00 ff                	add    %bh,%bh
    4000c945:	ff                   	(bad)  
    4000c946:	ff                   	(bad)  
    4000c947:	ff 00                	incl   (%rax)
    4000c949:	00 00                	add    %al,(%rax)
    4000c94b:	00 01                	add    %al,(%rcx)
    4000c94d:	00 00                	add    %al,(%rax)
    4000c94f:	00 00                	add    %al,(%rax)
    4000c951:	00 00                	add    %al,(%rax)
    4000c953:	00 06                	add    %al,(%rsi)
    4000c955:	01 00                	add    %eax,(%rax)
    4000c957:	00 00                	add    %al,(%rax)
    4000c959:	00 00                	add    %al,(%rax)
    4000c95b:	00 31                	add    %dh,(%rcx)
    4000c95d:	30 36                	xor    %dh,(%rsi)
	...
    4000c967:	00 07                	add    %al,(%rdi)
    4000c969:	01 00                	add    %eax,(%rax)
    4000c96b:	00 00                	add    %al,(%rax)
    4000c96d:	00 10                	add    %dl,(%rax)
    4000c96f:	00 ff                	add    %bh,%bh
    4000c971:	ff                   	(bad)  
    4000c972:	ff                   	(bad)  
    4000c973:	ff 00                	incl   (%rax)
    4000c975:	00 00                	add    %al,(%rax)
    4000c977:	00 01                	add    %al,(%rcx)
    4000c979:	00 00                	add    %al,(%rax)
    4000c97b:	00 00                	add    %al,(%rax)
    4000c97d:	00 00                	add    %al,(%rax)
    4000c97f:	00 07                	add    %al,(%rdi)
    4000c981:	01 00                	add    %eax,(%rax)
    4000c983:	00 00                	add    %al,(%rax)
    4000c985:	00 00                	add    %al,(%rax)
    4000c987:	00 31                	add    %dh,(%rcx)
    4000c989:	30 37                	xor    %dh,(%rdi)
	...
    4000c993:	00 09                	add    %cl,(%rcx)
    4000c995:	01 00                	add    %eax,(%rax)
    4000c997:	00 00                	add    %al,(%rax)
    4000c999:	00 10                	add    %dl,(%rax)
    4000c99b:	00 ff                	add    %bh,%bh
    4000c99d:	ff                   	(bad)  
    4000c99e:	ff                   	(bad)  
    4000c99f:	ff 00                	incl   (%rax)
    4000c9a1:	00 00                	add    %al,(%rax)
    4000c9a3:	00 01                	add    %al,(%rcx)
    4000c9a5:	00 00                	add    %al,(%rax)
    4000c9a7:	00 00                	add    %al,(%rax)
    4000c9a9:	00 00                	add    %al,(%rax)
    4000c9ab:	00 09                	add    %cl,(%rcx)
    4000c9ad:	01 00                	add    %eax,(%rax)
    4000c9af:	00 00                	add    %al,(%rax)
    4000c9b1:	00 00                	add    %al,(%rax)
    4000c9b3:	00 31                	add    %dh,(%rcx)
    4000c9b5:	30 39                	xor    %bh,(%rcx)
	...
    4000c9bf:	00 0a                	add    %cl,(%rdx)
    4000c9c1:	01 00                	add    %eax,(%rax)
    4000c9c3:	00 00                	add    %al,(%rax)
    4000c9c5:	00 10                	add    %dl,(%rax)
    4000c9c7:	00 ff                	add    %bh,%bh
    4000c9c9:	ff                   	(bad)  
    4000c9ca:	ff                   	(bad)  
    4000c9cb:	ff 00                	incl   (%rax)
    4000c9cd:	00 00                	add    %al,(%rax)
    4000c9cf:	00 01                	add    %al,(%rcx)
    4000c9d1:	00 00                	add    %al,(%rax)
    4000c9d3:	00 00                	add    %al,(%rax)
    4000c9d5:	00 00                	add    %al,(%rax)
    4000c9d7:	00 0a                	add    %cl,(%rdx)
    4000c9d9:	01 00                	add    %eax,(%rax)
    4000c9db:	00 00                	add    %al,(%rax)
    4000c9dd:	00 00                	add    %al,(%rax)
    4000c9df:	00 31                	add    %dh,(%rcx)
    4000c9e1:	30 41 00             	xor    %al,0x0(%rcx)
	...
    4000c9ec:	0b 01                	or     (%rcx),%eax
    4000c9ee:	00 00                	add    %al,(%rax)
    4000c9f0:	00 00                	add    %al,(%rax)
    4000c9f2:	10 00                	adc    %al,(%rax)
    4000c9f4:	ff                   	(bad)  
    4000c9f5:	ff                   	(bad)  
    4000c9f6:	ff                   	(bad)  
    4000c9f7:	ff 00                	incl   (%rax)
    4000c9f9:	00 00                	add    %al,(%rax)
    4000c9fb:	00 01                	add    %al,(%rcx)
    4000c9fd:	00 00                	add    %al,(%rax)
    4000c9ff:	00 00                	add    %al,(%rax)
    4000ca01:	00 00                	add    %al,(%rax)
    4000ca03:	00 0b                	add    %cl,(%rbx)
    4000ca05:	01 00                	add    %eax,(%rax)
    4000ca07:	00 00                	add    %al,(%rax)
    4000ca09:	00 00                	add    %al,(%rax)
    4000ca0b:	00 31                	add    %dh,(%rcx)
    4000ca0d:	30 42 00             	xor    %al,0x0(%rdx)
	...
    4000ca18:	0c 01                	or     $0x1,%al
    4000ca1a:	00 00                	add    %al,(%rax)
    4000ca1c:	00 00                	add    %al,(%rax)
    4000ca1e:	10 00                	adc    %al,(%rax)
    4000ca20:	ff                   	(bad)  
    4000ca21:	ff                   	(bad)  
    4000ca22:	ff                   	(bad)  
    4000ca23:	ff 00                	incl   (%rax)
    4000ca25:	00 00                	add    %al,(%rax)
    4000ca27:	00 01                	add    %al,(%rcx)
    4000ca29:	00 00                	add    %al,(%rax)
    4000ca2b:	00 00                	add    %al,(%rax)
    4000ca2d:	00 00                	add    %al,(%rax)
    4000ca2f:	00 0c 01             	add    %cl,(%rcx,%rax,1)
    4000ca32:	00 00                	add    %al,(%rax)
    4000ca34:	00 00                	add    %al,(%rax)
    4000ca36:	00 00                	add    %al,(%rax)
    4000ca38:	31 30                	xor    %esi,(%rax)
    4000ca3a:	43 00 00             	rex.XB add %al,(%r8)
    4000ca3d:	00 00                	add    %al,(%rax)
    4000ca3f:	00 00                	add    %al,(%rax)
    4000ca41:	00 00                	add    %al,(%rax)
    4000ca43:	00 10                	add    %dl,(%rax)
    4000ca45:	01 00                	add    %eax,(%rax)
    4000ca47:	00 00                	add    %al,(%rax)
    4000ca49:	00 10                	add    %dl,(%rax)
    4000ca4b:	00 ff                	add    %bh,%bh
    4000ca4d:	ff                   	(bad)  
    4000ca4e:	ff                   	(bad)  
    4000ca4f:	ff 00                	incl   (%rax)
    4000ca51:	00 00                	add    %al,(%rax)
    4000ca53:	00 01                	add    %al,(%rcx)
    4000ca55:	00 00                	add    %al,(%rax)
    4000ca57:	00 00                	add    %al,(%rax)
    4000ca59:	00 00                	add    %al,(%rax)
    4000ca5b:	00 10                	add    %dl,(%rax)
    4000ca5d:	01 00                	add    %eax,(%rax)
    4000ca5f:	00 00                	add    %al,(%rax)
    4000ca61:	00 00                	add    %al,(%rax)
    4000ca63:	00 31                	add    %dh,(%rcx)
    4000ca65:	31 30                	xor    %esi,(%rax)
	...
    4000ca6f:	00 11                	add    %dl,(%rcx)
    4000ca71:	01 00                	add    %eax,(%rax)
    4000ca73:	00 00                	add    %al,(%rax)
    4000ca75:	00 10                	add    %dl,(%rax)
    4000ca77:	00 ff                	add    %bh,%bh
    4000ca79:	ff                   	(bad)  
    4000ca7a:	ff                   	(bad)  
    4000ca7b:	ff 00                	incl   (%rax)
    4000ca7d:	00 00                	add    %al,(%rax)
    4000ca7f:	00 01                	add    %al,(%rcx)
    4000ca81:	00 00                	add    %al,(%rax)
    4000ca83:	00 00                	add    %al,(%rax)
    4000ca85:	00 00                	add    %al,(%rax)
    4000ca87:	00 11                	add    %dl,(%rcx)
    4000ca89:	01 00                	add    %eax,(%rax)
    4000ca8b:	00 00                	add    %al,(%rax)
    4000ca8d:	00 00                	add    %al,(%rax)
    4000ca8f:	00 31                	add    %dh,(%rcx)
    4000ca91:	31 31                	xor    %esi,(%rcx)
	...
    4000ca9b:	00 16                	add    %dl,(%rsi)
    4000ca9d:	01 00                	add    %eax,(%rax)
    4000ca9f:	00 00                	add    %al,(%rax)
    4000caa1:	00 10                	add    %dl,(%rax)
    4000caa3:	00 ff                	add    %bh,%bh
    4000caa5:	ff                   	(bad)  
    4000caa6:	ff                   	(bad)  
    4000caa7:	ff 00                	incl   (%rax)
    4000caa9:	00 00                	add    %al,(%rax)
    4000caab:	00 01                	add    %al,(%rcx)
    4000caad:	00 00                	add    %al,(%rax)
    4000caaf:	00 00                	add    %al,(%rax)
    4000cab1:	00 00                	add    %al,(%rax)
    4000cab3:	00 16                	add    %dl,(%rsi)
    4000cab5:	01 00                	add    %eax,(%rax)
    4000cab7:	00 00                	add    %al,(%rax)
    4000cab9:	00 00                	add    %al,(%rax)
    4000cabb:	00 31                	add    %dh,(%rcx)
    4000cabd:	31 36                	xor    %esi,(%rsi)
	...
    4000cac7:	00 20                	add    %ah,(%rax)
    4000cac9:	01 00                	add    %eax,(%rax)
    4000cacb:	00 00                	add    %al,(%rax)
    4000cacd:	00 10                	add    %dl,(%rax)
    4000cacf:	00 ff                	add    %bh,%bh
    4000cad1:	ff                   	(bad)  
    4000cad2:	ff                   	(bad)  
    4000cad3:	ff 00                	incl   (%rax)
    4000cad5:	00 00                	add    %al,(%rax)
    4000cad7:	00 01                	add    %al,(%rcx)
    4000cad9:	00 00                	add    %al,(%rax)
    4000cadb:	00 00                	add    %al,(%rax)
    4000cadd:	00 00                	add    %al,(%rax)
    4000cadf:	00 20                	add    %ah,(%rax)
    4000cae1:	01 00                	add    %eax,(%rax)
    4000cae3:	00 00                	add    %al,(%rax)
    4000cae5:	00 00                	add    %al,(%rax)
    4000cae7:	00 31                	add    %dh,(%rcx)
    4000cae9:	32 30                	xor    (%rax),%dh
	...
    4000caf3:	00 21                	add    %ah,(%rcx)
    4000caf5:	01 00                	add    %eax,(%rax)
    4000caf7:	00 00                	add    %al,(%rax)
    4000caf9:	00 10                	add    %dl,(%rax)
    4000cafb:	00 ff                	add    %bh,%bh
    4000cafd:	ff                   	(bad)  
    4000cafe:	ff                   	(bad)  
    4000caff:	ff 00                	incl   (%rax)
    4000cb01:	00 00                	add    %al,(%rax)
    4000cb03:	00 01                	add    %al,(%rcx)
    4000cb05:	00 00                	add    %al,(%rax)
    4000cb07:	00 00                	add    %al,(%rax)
    4000cb09:	00 00                	add    %al,(%rax)
    4000cb0b:	00 21                	add    %ah,(%rcx)
    4000cb0d:	01 00                	add    %eax,(%rax)
    4000cb0f:	00 00                	add    %al,(%rax)
    4000cb11:	00 00                	add    %al,(%rax)
    4000cb13:	00 31                	add    %dh,(%rcx)
    4000cb15:	32 31                	xor    (%rcx),%dh
	...
    4000cb1f:	00 3c 01             	add    %bh,(%rcx,%rax,1)
    4000cb22:	00 00                	add    %al,(%rax)
    4000cb24:	00 00                	add    %al,(%rax)
    4000cb26:	10 00                	adc    %al,(%rax)
    4000cb28:	ff                   	(bad)  
    4000cb29:	ff                   	(bad)  
    4000cb2a:	ff                   	(bad)  
    4000cb2b:	ff 00                	incl   (%rax)
    4000cb2d:	00 00                	add    %al,(%rax)
    4000cb2f:	00 01                	add    %al,(%rcx)
    4000cb31:	00 00                	add    %al,(%rax)
    4000cb33:	00 00                	add    %al,(%rax)
    4000cb35:	00 00                	add    %al,(%rax)
    4000cb37:	00 3c 01             	add    %bh,(%rcx,%rax,1)
    4000cb3a:	00 00                	add    %al,(%rax)
    4000cb3c:	00 00                	add    %al,(%rax)
    4000cb3e:	00 00                	add    %al,(%rax)
    4000cb40:	31 33                	xor    %esi,(%rbx)
    4000cb42:	43 00 00             	rex.XB add %al,(%r8)
	...
    4000cb4d:	02 00                	add    (%rax),%al
    4000cb4f:	00 00                	add    %al,(%rax)
    4000cb51:	00 10                	add    %dl,(%rax)
    4000cb53:	00 ff                	add    %bh,%bh
    4000cb55:	ff                   	(bad)  
    4000cb56:	ff                   	(bad)  
    4000cb57:	ff 00                	incl   (%rax)
    4000cb59:	00 00                	add    %al,(%rax)
    4000cb5b:	00 01                	add    %al,(%rcx)
	...
    4000cb65:	02 00                	add    (%rax),%al
    4000cb67:	00 00                	add    %al,(%rax)
    4000cb69:	00 00                	add    %al,(%rax)
    4000cb6b:	00 32                	add    %dh,(%rdx)
    4000cb6d:	30 30                	xor    %dh,(%rax)
	...
    4000cb77:	00 01                	add    %al,(%rcx)
    4000cb79:	02 00                	add    (%rax),%al
    4000cb7b:	00 00                	add    %al,(%rax)
    4000cb7d:	00 10                	add    %dl,(%rax)
    4000cb7f:	00 ff                	add    %bh,%bh
    4000cb81:	ff                   	(bad)  
    4000cb82:	ff                   	(bad)  
    4000cb83:	ff 00                	incl   (%rax)
    4000cb85:	00 00                	add    %al,(%rax)
    4000cb87:	00 01                	add    %al,(%rcx)
    4000cb89:	00 00                	add    %al,(%rax)
    4000cb8b:	00 00                	add    %al,(%rax)
    4000cb8d:	00 00                	add    %al,(%rax)
    4000cb8f:	00 01                	add    %al,(%rcx)
    4000cb91:	02 00                	add    (%rax),%al
    4000cb93:	00 00                	add    %al,(%rax)
    4000cb95:	00 00                	add    %al,(%rax)
    4000cb97:	00 32                	add    %dh,(%rdx)
    4000cb99:	30 31                	xor    %dh,(%rcx)
	...
    4000cba3:	00 06                	add    %al,(%rsi)
    4000cba5:	02 00                	add    (%rax),%al
    4000cba7:	00 00                	add    %al,(%rax)
    4000cba9:	00 10                	add    %dl,(%rax)
    4000cbab:	00 ff                	add    %bh,%bh
    4000cbad:	ff                   	(bad)  
    4000cbae:	ff                   	(bad)  
    4000cbaf:	ff 00                	incl   (%rax)
    4000cbb1:	00 00                	add    %al,(%rax)
    4000cbb3:	00 01                	add    %al,(%rcx)
    4000cbb5:	00 00                	add    %al,(%rax)
    4000cbb7:	00 00                	add    %al,(%rax)
    4000cbb9:	00 00                	add    %al,(%rax)
    4000cbbb:	00 06                	add    %al,(%rsi)
    4000cbbd:	02 00                	add    (%rax),%al
    4000cbbf:	00 00                	add    %al,(%rax)
    4000cbc1:	00 00                	add    %al,(%rax)
    4000cbc3:	00 32                	add    %dh,(%rdx)
    4000cbc5:	30 36                	xor    %dh,(%rsi)
	...
    4000cbcf:	00 07                	add    %al,(%rdi)
    4000cbd1:	02 00                	add    (%rax),%al
    4000cbd3:	00 00                	add    %al,(%rax)
    4000cbd5:	00 10                	add    %dl,(%rax)
    4000cbd7:	00 ff                	add    %bh,%bh
    4000cbd9:	ff                   	(bad)  
    4000cbda:	ff                   	(bad)  
    4000cbdb:	ff 00                	incl   (%rax)
    4000cbdd:	00 00                	add    %al,(%rax)
    4000cbdf:	00 01                	add    %al,(%rcx)
    4000cbe1:	00 00                	add    %al,(%rax)
    4000cbe3:	00 00                	add    %al,(%rax)
    4000cbe5:	00 00                	add    %al,(%rax)
    4000cbe7:	00 07                	add    %al,(%rdi)
    4000cbe9:	02 00                	add    (%rax),%al
    4000cbeb:	00 00                	add    %al,(%rax)
    4000cbed:	00 00                	add    %al,(%rax)
    4000cbef:	00 32                	add    %dh,(%rdx)
    4000cbf1:	30 37                	xor    %dh,(%rdi)
	...
    4000cbfb:	00 01                	add    %al,(%rcx)
    4000cbfd:	03 00                	add    (%rax),%eax
    4000cbff:	00 00                	add    %al,(%rax)
    4000cc01:	00 10                	add    %dl,(%rax)
    4000cc03:	00 ff                	add    %bh,%bh
    4000cc05:	ff                   	(bad)  
    4000cc06:	ff                   	(bad)  
    4000cc07:	ff 00                	incl   (%rax)
    4000cc09:	00 00                	add    %al,(%rax)
    4000cc0b:	00 01                	add    %al,(%rcx)
    4000cc0d:	00 00                	add    %al,(%rax)
    4000cc0f:	00 00                	add    %al,(%rax)
    4000cc11:	00 00                	add    %al,(%rax)
    4000cc13:	00 01                	add    %al,(%rcx)
    4000cc15:	03 00                	add    (%rax),%eax
    4000cc17:	00 00                	add    %al,(%rax)
    4000cc19:	00 00                	add    %al,(%rax)
    4000cc1b:	00 33                	add    %dh,(%rbx)
    4000cc1d:	30 31                	xor    %dh,(%rcx)
	...
    4000cc27:	00 02                	add    %al,(%rdx)
    4000cc29:	03 00                	add    (%rax),%eax
    4000cc2b:	00 00                	add    %al,(%rax)
    4000cc2d:	00 10                	add    %dl,(%rax)
    4000cc2f:	00 ff                	add    %bh,%bh
    4000cc31:	ff                   	(bad)  
    4000cc32:	ff                   	(bad)  
    4000cc33:	ff 00                	incl   (%rax)
    4000cc35:	00 00                	add    %al,(%rax)
    4000cc37:	00 01                	add    %al,(%rcx)
    4000cc39:	00 00                	add    %al,(%rax)
    4000cc3b:	00 00                	add    %al,(%rax)
    4000cc3d:	00 00                	add    %al,(%rax)
    4000cc3f:	00 02                	add    %al,(%rdx)
    4000cc41:	03 00                	add    (%rax),%eax
    4000cc43:	00 00                	add    %al,(%rax)
    4000cc45:	00 00                	add    %al,(%rax)
    4000cc47:	00 33                	add    %dh,(%rbx)
    4000cc49:	30 32                	xor    %dh,(%rdx)
	...
    4000cc53:	00 03                	add    %al,(%rbx)
    4000cc55:	03 00                	add    (%rax),%eax
    4000cc57:	00 00                	add    %al,(%rax)
    4000cc59:	00 10                	add    %dl,(%rax)
    4000cc5b:	00 ff                	add    %bh,%bh
    4000cc5d:	ff                   	(bad)  
    4000cc5e:	ff                   	(bad)  
    4000cc5f:	ff 00                	incl   (%rax)
    4000cc61:	00 00                	add    %al,(%rax)
    4000cc63:	00 01                	add    %al,(%rcx)
    4000cc65:	00 00                	add    %al,(%rax)
    4000cc67:	00 00                	add    %al,(%rax)
    4000cc69:	00 00                	add    %al,(%rax)
    4000cc6b:	00 03                	add    %al,(%rbx)
    4000cc6d:	03 00                	add    (%rax),%eax
    4000cc6f:	00 00                	add    %al,(%rax)
    4000cc71:	00 00                	add    %al,(%rax)
    4000cc73:	00 33                	add    %dh,(%rbx)
    4000cc75:	30 33                	xor    %dh,(%rbx)
	...
    4000cc7f:	00 04 03             	add    %al,(%rbx,%rax,1)
    4000cc82:	00 00                	add    %al,(%rax)
    4000cc84:	00 00                	add    %al,(%rax)
    4000cc86:	10 00                	adc    %al,(%rax)
    4000cc88:	ff                   	(bad)  
    4000cc89:	ff                   	(bad)  
    4000cc8a:	ff                   	(bad)  
    4000cc8b:	ff 00                	incl   (%rax)
    4000cc8d:	00 00                	add    %al,(%rax)
    4000cc8f:	00 01                	add    %al,(%rcx)
    4000cc91:	00 00                	add    %al,(%rax)
    4000cc93:	00 00                	add    %al,(%rax)
    4000cc95:	00 00                	add    %al,(%rax)
    4000cc97:	00 04 03             	add    %al,(%rbx,%rax,1)
    4000cc9a:	00 00                	add    %al,(%rax)
    4000cc9c:	00 00                	add    %al,(%rax)
    4000cc9e:	00 00                	add    %al,(%rax)
    4000cca0:	33 30                	xor    (%rax),%esi
    4000cca2:	34 00                	xor    $0x0,%al
	...
    4000ccac:	05 03 00 00 00       	add    $0x3,%eax
    4000ccb1:	00 10                	add    %dl,(%rax)
    4000ccb3:	00 ff                	add    %bh,%bh
    4000ccb5:	ff                   	(bad)  
    4000ccb6:	ff                   	(bad)  
    4000ccb7:	ff 00                	incl   (%rax)
    4000ccb9:	00 00                	add    %al,(%rax)
    4000ccbb:	00 01                	add    %al,(%rcx)
    4000ccbd:	00 00                	add    %al,(%rax)
    4000ccbf:	00 00                	add    %al,(%rax)
    4000ccc1:	00 00                	add    %al,(%rax)
    4000ccc3:	00 05 03 00 00 00    	add    %al,0x3(%rip)        # 4000cccc <CounterDefinitions+0x4bec>
    4000ccc9:	00 00                	add    %al,(%rax)
    4000cccb:	00 33                	add    %dh,(%rbx)
    4000cccd:	30 35 00 00 00 00    	xor    %dh,0x0(%rip)        # 4000ccd3 <CounterDefinitions+0x4bf3>
    4000ccd3:	00 00                	add    %al,(%rax)
    4000ccd5:	00 00                	add    %al,(%rax)
    4000ccd7:	00 06                	add    %al,(%rsi)
    4000ccd9:	03 00                	add    (%rax),%eax
    4000ccdb:	00 00                	add    %al,(%rax)
    4000ccdd:	00 10                	add    %dl,(%rax)
    4000ccdf:	00 ff                	add    %bh,%bh
    4000cce1:	ff                   	(bad)  
    4000cce2:	ff                   	(bad)  
    4000cce3:	ff 00                	incl   (%rax)
    4000cce5:	00 00                	add    %al,(%rax)
    4000cce7:	00 01                	add    %al,(%rcx)
    4000cce9:	00 00                	add    %al,(%rax)
    4000cceb:	00 00                	add    %al,(%rax)
    4000cced:	00 00                	add    %al,(%rax)
    4000ccef:	00 06                	add    %al,(%rsi)
    4000ccf1:	03 00                	add    (%rax),%eax
    4000ccf3:	00 00                	add    %al,(%rax)
    4000ccf5:	00 00                	add    %al,(%rax)
    4000ccf7:	00 33                	add    %dh,(%rbx)
    4000ccf9:	30 36                	xor    %dh,(%rsi)
	...
    4000cd03:	00 02                	add    %al,(%rdx)
    4000cd05:	05 00 00 00 00       	add    $0x0,%eax
    4000cd0a:	10 00                	adc    %al,(%rax)
    4000cd0c:	ff                   	(bad)  
    4000cd0d:	ff                   	(bad)  
    4000cd0e:	ff                   	(bad)  
    4000cd0f:	ff 00                	incl   (%rax)
    4000cd11:	00 00                	add    %al,(%rax)
    4000cd13:	00 01                	add    %al,(%rcx)
    4000cd15:	00 00                	add    %al,(%rax)
    4000cd17:	00 00                	add    %al,(%rax)
    4000cd19:	00 00                	add    %al,(%rax)
    4000cd1b:	00 02                	add    %al,(%rdx)
    4000cd1d:	05 00 00 00 00       	add    $0x0,%eax
    4000cd22:	00 00                	add    %al,(%rax)
    4000cd24:	35 30 32 00 00       	xor    $0x3230,%eax
    4000cd29:	00 00                	add    %al,(%rax)
    4000cd2b:	00 00                	add    %al,(%rax)
    4000cd2d:	00 00                	add    %al,(%rax)
    4000cd2f:	00 07                	add    %al,(%rdi)
    4000cd31:	05 00 00 00 00       	add    $0x0,%eax
    4000cd36:	10 00                	adc    %al,(%rax)
    4000cd38:	ff                   	(bad)  
    4000cd39:	ff                   	(bad)  
    4000cd3a:	ff                   	(bad)  
    4000cd3b:	ff 00                	incl   (%rax)
    4000cd3d:	00 00                	add    %al,(%rax)
    4000cd3f:	00 01                	add    %al,(%rcx)
    4000cd41:	00 00                	add    %al,(%rax)
    4000cd43:	00 00                	add    %al,(%rax)
    4000cd45:	00 00                	add    %al,(%rax)
    4000cd47:	00 07                	add    %al,(%rdi)
    4000cd49:	05 00 00 00 00       	add    $0x0,%eax
    4000cd4e:	00 00                	add    %al,(%rax)
    4000cd50:	35 30 37 00 00       	xor    $0x3730,%eax
    4000cd55:	00 00                	add    %al,(%rax)
    4000cd57:	00 00                	add    %al,(%rax)
    4000cd59:	00 00                	add    %al,(%rax)
    4000cd5b:	00 08                	add    %cl,(%rax)
    4000cd5d:	05 00 00 00 00       	add    $0x0,%eax
    4000cd62:	10 00                	adc    %al,(%rax)
    4000cd64:	ff                   	(bad)  
    4000cd65:	ff                   	(bad)  
    4000cd66:	ff                   	(bad)  
    4000cd67:	ff 00                	incl   (%rax)
    4000cd69:	00 00                	add    %al,(%rax)
    4000cd6b:	00 01                	add    %al,(%rcx)
    4000cd6d:	00 00                	add    %al,(%rax)
    4000cd6f:	00 00                	add    %al,(%rax)
    4000cd71:	00 00                	add    %al,(%rax)
    4000cd73:	00 08                	add    %cl,(%rax)
    4000cd75:	05 00 00 00 00       	add    $0x0,%eax
    4000cd7a:	00 00                	add    %al,(%rax)
    4000cd7c:	35 30 38 00 00       	xor    $0x3830,%eax
    4000cd81:	00 00                	add    %al,(%rax)
    4000cd83:	00 00                	add    %al,(%rax)
    4000cd85:	00 00                	add    %al,(%rax)
    4000cd87:	00 0d 05 00 00 00    	add    %cl,0x5(%rip)        # 4000cd92 <CounterDefinitions+0x4cb2>
    4000cd8d:	00 10                	add    %dl,(%rax)
    4000cd8f:	00 ff                	add    %bh,%bh
    4000cd91:	ff                   	(bad)  
    4000cd92:	ff                   	(bad)  
    4000cd93:	ff 00                	incl   (%rax)
    4000cd95:	00 00                	add    %al,(%rax)
    4000cd97:	00 01                	add    %al,(%rcx)
    4000cd99:	00 00                	add    %al,(%rax)
    4000cd9b:	00 00                	add    %al,(%rax)
    4000cd9d:	00 00                	add    %al,(%rax)
    4000cd9f:	00 0d 05 00 00 00    	add    %cl,0x5(%rip)        # 4000cdaa <CounterDefinitions+0x4cca>
    4000cda5:	00 00                	add    %al,(%rax)
    4000cda7:	00 35 30 44 00 00    	add    %dh,0x4430(%rip)        # 400111dd <UserData+0x3edd>
	...
    4000cdb5:	06                   	(bad)  
    4000cdb6:	00 00                	add    %al,(%rax)
    4000cdb8:	00 00                	add    %al,(%rax)
    4000cdba:	10 00                	adc    %al,(%rax)
    4000cdbc:	ff                   	(bad)  
    4000cdbd:	ff                   	(bad)  
    4000cdbe:	ff                   	(bad)  
    4000cdbf:	ff 00                	incl   (%rax)
    4000cdc1:	00 00                	add    %al,(%rax)
    4000cdc3:	00 01                	add    %al,(%rcx)
	...
    4000cdcd:	06                   	(bad)  
    4000cdce:	00 00                	add    %al,(%rax)
    4000cdd0:	00 00                	add    %al,(%rax)
    4000cdd2:	00 00                	add    %al,(%rax)
    4000cdd4:	36 30 30             	ss xor %dh,(%rax)
	...
    4000cddf:	00 05 06 00 00 00    	add    %al,0x6(%rip)        # 4000cdeb <CounterDefinitions+0x4d0b>
    4000cde5:	00 10                	add    %dl,(%rax)
    4000cde7:	00 ff                	add    %bh,%bh
    4000cde9:	ff                   	(bad)  
    4000cdea:	ff                   	(bad)  
    4000cdeb:	ff 00                	incl   (%rax)
    4000cded:	00 00                	add    %al,(%rax)
    4000cdef:	00 01                	add    %al,(%rcx)
    4000cdf1:	00 00                	add    %al,(%rax)
    4000cdf3:	00 00                	add    %al,(%rax)
    4000cdf5:	00 00                	add    %al,(%rax)
    4000cdf7:	00 05 06 00 00 00    	add    %al,0x6(%rip)        # 4000ce03 <CounterDefinitions+0x4d23>
    4000cdfd:	00 00                	add    %al,(%rax)
    4000cdff:	00 36                	add    %dh,(%rsi)
    4000ce01:	30 35 00 00 00 00    	xor    %dh,0x0(%rip)        # 4000ce07 <CounterDefinitions+0x4d27>
    4000ce07:	00 00                	add    %al,(%rax)
    4000ce09:	00 00                	add    %al,(%rax)
    4000ce0b:	00 07                	add    %al,(%rdi)
    4000ce0d:	06                   	(bad)  
    4000ce0e:	00 00                	add    %al,(%rax)
    4000ce10:	00 00                	add    %al,(%rax)
    4000ce12:	10 00                	adc    %al,(%rax)
    4000ce14:	ff                   	(bad)  
    4000ce15:	ff                   	(bad)  
    4000ce16:	ff                   	(bad)  
    4000ce17:	ff 00                	incl   (%rax)
    4000ce19:	00 00                	add    %al,(%rax)
    4000ce1b:	00 01                	add    %al,(%rcx)
    4000ce1d:	00 00                	add    %al,(%rax)
    4000ce1f:	00 00                	add    %al,(%rax)
    4000ce21:	00 00                	add    %al,(%rax)
    4000ce23:	00 07                	add    %al,(%rdi)
    4000ce25:	06                   	(bad)  
    4000ce26:	00 00                	add    %al,(%rax)
    4000ce28:	00 00                	add    %al,(%rax)
    4000ce2a:	00 00                	add    %al,(%rax)
    4000ce2c:	36 30 37             	ss xor %dh,(%rdi)
	...

000000004000ce68 <DW.ref.__gxx_personality_v0>:
	...

000000004000ce80 <CounterTypesDesired>:
    4000ce80:	c8 00 00 00          	enter  $0x0,$0x0
    4000ce84:	cc                   	int3   
	...

000000004000cec0 <ThreadData>:
	...

000000004000cee4 <CustomCountTemp>:
	...

000000004000cf08 <CountOverhead>:
    4000cf08:	ff                   	(bad)  
    4000cf09:	ff                   	(bad)  
    4000cf0a:	ff                   	(bad)  
    4000cf0b:	ff                   	(bad)  
    4000cf0c:	ff                   	(bad)  
    4000cf0d:	ff                   	(bad)  
    4000cf0e:	ff                   	(bad)  
    4000cf0f:	ff                   	(bad)  
    4000cf10:	ff                   	(bad)  
    4000cf11:	ff                   	(bad)  
    4000cf12:	ff                   	(bad)  
    4000cf13:	ff                   	(bad)  
    4000cf14:	ff                   	(bad)  
    4000cf15:	ff                   	(bad)  
    4000cf16:	ff                   	(bad)  
    4000cf17:	ff                   	(bad)  
    4000cf18:	ff                   	(bad)  
    4000cf19:	ff                   	(bad)  
    4000cf1a:	ff                   	(bad)  
    4000cf1b:	ff                   	(bad)  
    4000cf1c:	ff                   	(bad)  
    4000cf1d:	ff                   	(bad)  
    4000cf1e:	ff                   	(bad)  
    4000cf1f:	ff                   	(bad)  
    4000cf20:	ff                   	(bad)  
    4000cf21:	ff                   	(bad)  
    4000cf22:	ff                   	(bad)  
    4000cf23:	ff                   	(bad)  
    4000cf24:	ff                   	(bad)  
    4000cf25:	ff                   	(bad)  
    4000cf26:	ff                   	(bad)  
    4000cf27:	ff                   	(bad)  
    4000cf28:	ff                   	(bad)  
    4000cf29:	ff                   	(bad)  
    4000cf2a:	ff                   	(bad)  
    4000cf2b:	ff                 	incl   (%rax)

000000004000cf2c <ClockResults>:
	...

000000004000cf54 <CustomClockResults>:
	...

000000004000cf7c <PMCResults>:
	...

000000004000d0bc <CustomPMCResults>:
	...

000000004000d200 <RSPSave>:
	...

000000004000d240 <PThreadData>:
    4000d240:	c0 ce 00             	ror    $0x0,%dh
    4000d243:	40 00 00             	rex add %al,(%rax)
	...

000000004000d248 <NumCounters>:
    4000d248:	00 00                	add    %al,(%rax)
	...

000000004000d24c <MaxNumCounters>:
    4000d24c:	08 00                	or     %al,(%rax)
	...

000000004000d250 <UsePMC>:
    4000d250:	01 00                	add    %eax,(%rax)
	...

000000004000d254 <PrintCustomPMC>:
    4000d254:	00 00                	add    %al,(%rax)
	...

000000004000d258 <NumThreads>:
    4000d258:	01 00                	add    %eax,(%rax)
	...

000000004000d25c <ThreadDataSize>:
    4000d25c:	80 03 00             	addb   $0x0,(%rbx)
	...

000000004000d260 <ClockResultsOS>:
    4000d260:	6c                   	insb   (%dx),%es:(%rdi)
    4000d261:	00 00                	add    %al,(%rax)
	...

000000004000d264 <CustomClockResultsOS>:
    4000d264:	94                   	xchg   %eax,%esp
    4000d265:	00 00                	add    %al,(%rax)
	...

000000004000d268 <PMCResultsOS>:
    4000d268:	bc 00 00 00        	mov    $0xfc000000,%esp

000000004000d26c <CustomPMCResultsOS>:
    4000d26c:	fc                   	cld    
    4000d26d:	01 00                	add    %eax,(%rax)
	...

000000004000d270 <Counters>:
	...

000000004000d290 <EventRegistersUsed>:
	...

000000004000d2b0 <RatioOut>:
	...

000000004000d2c0 <TempOut>:
    4000d2c0:	00 00                	add    %al,(%rax)
	...

000000004000d2c4 <RatioOutTitle>:
	...

000000004000d2cc <TempOutTitle>:
	...

000000004000d300 <UserData>:
	...

000000004080d300 <TempData>:
	...

000000004080d320 <msr_file_name>:
    4080d320:	2f                   	(bad)  
    4080d321:	64 65 76 2f          	fs gs jbe 4080d354 <__TMC_END__+0x14>
    4080d325:	63 70 75             	movsxd 0x75(%rax),%esi
    4080d328:	2f                   	(bad)  
    4080d329:	30 2f                	xor    %ch,(%rdi)
    4080d32b:	6d                   	insl   (%dx),%es:(%rdi)
    4080d32c:	73 72                	jae    4080d3a0 <MSRCounters+0x40>
	...

000000004080d32f <data>:
    4080d32f:	01 00                	add    %eax,(%rax)
	...

000000004080d333 <thread_lock>:
    4080d333:	00 00                	add    %al,(%rax)
	...

000000004080d337 <inputGen_counter>:
    4080d337:	00 00                	add    %al,(%rax)
	...

Disassembly of section .bss:

000000004080d340 <completed.8061>:
	...

000000004080d360 <MSRCounters>:
	...

000000004081dfd8 <repetitions>:
	...

000000004081dfe0 <clockFactor>:
	...

000000004081e020 <ProcNum>:
	...

000000004081e140 <TSync>:
	...

000000004081e148 <diagnostics>:
    4081e148:	00 00                	add    %al,(%rax)
	...

000000004081e14c <_ZZN9CCounters13DefineCounterER18SCounterDefinitionE20FixedCountersEnabled>:
    4081e14c:	00 00                	add    %al,(%rax)
	...

000000004081e150 <_ZZN9CCounters13DefineCounterER18SCounterDefinitionE15CountersEnabled>:
	...

Disassembly of section .comment:

0000000000000000 <.comment>:
   0:	47                   	rex.RXB
   1:	43                   	rex.XB
   2:	43 3a 20             	rex.XB cmp (%r8),%spl
   5:	28 55 62             	sub    %dl,0x62(%rbp)
   8:	75 6e                	jne    78 <syscall_pwrite+0x66>
   a:	74 75                	je     81 <syscall_pwrite+0x6f>
   c:	20 39                	and    %bh,(%rcx)
   e:	2e 34 2e             	cs xor $0x2e,%al
  11:	30 2d 31 75 62 75    	xor    %ch,0x75627531(%rip)        # 75627548 <_end+0x34e093f0>
  17:	6e                   	outsb  %ds:(%rsi),(%dx)
  18:	74 75                	je     8f <syscall_pwrite+0x7d>
  1a:	31 7e 32             	xor    %edi,0x32(%rsi)
  1d:	30 2e                	xor    %ch,(%rsi)
  1f:	30 34 2e             	xor    %dh,(%rsi,%rbp,1)
  22:	32 29                	xor    (%rcx),%ch
  24:	20 39                	and    %bh,(%rcx)
  26:	2e 34 2e             	cs xor $0x2e,%al
  29:	30 00                	xor    %al,(%rax)

Disassembly of section .dummy_branch_0:

0000000100000000 <dummy_label_0>:
   100000000:	0f 84 fa ff ff 3f    	je     140000000 <dummy_label_1>

Disassembly of section .dummy_branch_1:

0000000140000000 <dummy_label_1>:
   140000000:	0f 84 fa ff ff 3f    	je     180000000 <dummy_label_2>

Disassembly of section .dummy_branch_2:

0000000180000000 <dummy_label_2>:
   180000000:	0f 84 fa ff ff 3f    	je     1c0000000 <dummy_label_3>

Disassembly of section .dummy_branch_3:

00000001c0000000 <dummy_label_3>:
   1c0000000:	0f 84 fa ff ff 3f    	je     200000000 <dummy_label_4>

Disassembly of section .dummy_branch_4:

0000000200000000 <dummy_label_4>:
   200000000:	0f 84 fa ff ff 3f    	je     240000000 <dummy_label_5>

Disassembly of section .dummy_branch_5:

0000000240000000 <dummy_label_5>:
   240000000:	0f 84 fa ff ff 3f    	je     280000000 <dummy_label_6>

Disassembly of section .dummy_branch_6:

0000000280000000 <dummy_label_6>:
   280000000:	0f 84 fa ff ff 3f    	je     2c0000000 <dummy_label_7>

Disassembly of section .dummy_branch_7:

00000002c0000000 <dummy_label_7>:
   2c0000000:	0f 84 fa ff ff 3f    	je     300000000 <dummy_label_8>

Disassembly of section .dummy_branch_8:

0000000300000000 <dummy_label_8>:
   300000000:	0f 84 fa ff ff 3f    	je     340000000 <dummy_label_9>

Disassembly of section .dummy_branch_9:

0000000340000000 <dummy_label_9>:
   340000000:	0f 84 fa ff ff 3f    	je     380000000 <dummy_label_10>

Disassembly of section .dummy_branch_10:

0000000380000000 <dummy_label_10>:
   380000000:	48 ff ca             	dec    %rdx
   380000003:	48 83 fa 00          	cmp    $0x0,%rdx
   380000007:	e9 f4 ff ff 3f       	jmp    3c0000000 <dummy_label_11>

Disassembly of section .dummy_branch_11:

00000003c0000000 <dummy_label_11>:
   3c0000000:	0f 84 fa ff ff 3f    	je     400000000 <dummy_label_12>
   3c0000006:	48 b8 00 00 00 00 01 	movabs $0x100000000,%rax
   3c000000d:	00 00 00 
   3c0000010:	b9 00 00 00 00       	mov    $0x0,%ecx
   3c0000015:	48 83 f9 00          	cmp    $0x0,%rcx
   3c0000019:	ff e0                	jmp    *%rax

Disassembly of section .dummy_branch_12:

0000000400000000 <dummy_label_12>:
   400000000:	80 3f 00             	cmpb   $0x0,(%rdi)
   400000003:	e9 37 00 00 40       	jmp    44000003f <dummy_label_13>

Disassembly of section .dummy_branch_13:

000000044000003f <dummy_label_13>:
   44000003f:	0f 84 a0 e5 73 40    	je     48073e5e5 <dummy_label_14>
   440000045:	e9 9b e5 73 40       	jmp    48073e5e5 <dummy_label_14>

Disassembly of section .dummy_branch_14:

000000048073e5e5 <dummy_label_14>:
   48073e5e5:	80 7f 01 00          	cmpb   $0x0,0x1(%rdi)
   48073e5e9:	e9 51 1a 8c 3f       	jmp    4c000003f <dummy_label_15>

Disassembly of section .dummy_branch_15:

00000004c000003f <dummy_label_15>:
   4c000003f:	0f 84 18 da 30 41    	je     50130da5d <dummy_label_16>
   4c0000045:	e9 13 da 30 41       	jmp    50130da5d <dummy_label_16>

Disassembly of section .dummy_branch_16:

000000050130da5d <dummy_label_16>:
   50130da5d:	ff e3                	jmp    *%rbx
